(dp0
S'features'
p1
(lp2
(lp3
I374648
aI15301
aI199
aI1681
aF0.0
aF0.44
aF0.91
aI2087
aI13380
aI2596
aI1
aa(lp4
I23227
aI247
aI8
aI1
aF0.0
aF0.18
aF0.89
aI4
aI4
aI922
aI0
aa(lp5
I21266
aI22719
aI13
aI4381
aF0.0
aF0.0
aF0.895
aI45
aI46
aI66
aI0
aa(lp6
I56759
aI22973
aI199
aI3
aF0.0
aF0.83
aF0.5
aI540
aI1710
aI222
aI0
aa(lp7
I10607
aI47
aI0
aI15
aF0.0
aF0.11
aF0.115
aI60
aI316
aI46
aI0
aa(lp8
I13143
aI12362
aI30
aI38
aF0.0
aF0.05
aF0.63
aI24
aI274
aI339
aI0
aa(lp9
I12406
aI583
aI28
aI981
aF0.0
aF0.25
aF0.855
aI63
aI14
aI170
aI0
aa(lp10
I18477
aI2981
aI199
aI186
aF0.0
aF0.17
aF1.0
aI23
aI391
aI11
aI0
aa(lp11
I87465
aI6873
aI199
aI2212
aF0.0
aF0.995
aF0.115
aI127
aI977
aI32
aI1
aa(lp12
I8799
aI222
aI55
aI93
aF0.0
aF0.84
aF0.96
aI57
aI24
aI3253
aI0
aa(lp13
I87318
aI24173
aI138
aI1002
aF0.0
aF0.825
aF0.45
aI1075
aI1169
aI392
aI1
aa(lp14
I60882
aI2582
aI162
aI439
aF0.0
aF0.415
aF0.915
aI1060
aI923
aI2394
aI1
aa(lp15
I34631
aI3798
aI199
aI607
aF0.0
aF0.515
aF0.83
aI404
aI646
aI505
aI1
aa(lp16
I4917
aI5209
aI142
aI544
aF0.0
aF0.755
aF0.5
aI166
aI89
aI2369
aI0
aa(lp17
I26329
aI1779
aI108
aI770
aF0.0
aF0.86
aF0.26
aI254
aI504
aI109
aI0
aa(lp18
I1270
aI707
aI8
aI6
aF0.0
aF0.015
aF1.0
aI33
aI5
aI12
aI0
aa(lp19
I3467
aI100
aI28
aI67
aF0.0
aF0.255
aF0.77
aI46
aI161
aI40
aI0
aa(lp20
I56220
aI2271
aI199
aI2600
aF0.0
aF0.855
aF0.68
aI322
aI591
aI89
aI1
aa(lp21
I22854
aI9926
aI199
aI557
aF0.0
aF0.945
aF0.15
aI72
aI454
aI27
aI1
aa(lp22
I7741
aI3457
aI70
aI335
aF0.0
aF0.715
aF0.625
aI407
aI204
aI182
aI1
aa(lp23
I4635084
aI21
aI175
aI20
aF0.0
aF0.08
aF0.955
aI36138
aI24960
aI34998
aI1
aa(lp24
I6143133
aI1736
aI199
aI840
aF0.0
aF0.995
aF0.195
aI1058
aI19268
aI645
aI1
aa(lp25
I172404
aI292
aI199
aI2425
aF0.0
aF0.125
aF0.94
aI291
aI8759
aI259
aI0
aa(lp26
I912409
aI1836
aI199
aI4
aF0.0
aF0.695
aF0.655
aI1480
aI15764
aI17938
aI1
aa(lp27
I4738971
aI1264
aI199
aI2603
aF0.0
aF0.83
aF0.715
aI7938
aI12922
aI3535
aI1
aa(lp28
I994
aI56
aI4
aI0
aF0.0
aF0.045
aF1.0
aI41
aI7
aI4
aI0
aa(lp29
I1818
aI1775
aI65
aI1
aF0.0
aF0.845
aF1.0
aI32
aI51
aI8
aI0
aa(lp30
I1397
aI1814
aI39
aI25
aF0.0
aF0.0
aF1.0
aI10
aI16
aI0
aI0
aa(lp31
I1904
aI1044
aI4
aI69
aF0.0
aF0.105
aF0.915
aI26
aI35
aI189
aI0
aa(lp32
I1172187
aI57418
aI199
aI6847
aF0.0
aF0.985
aF0.0
aI333
aI5738
aI72
aI1
aa(lp33
I33295
aI15242
aI199
aI3675
aF0.0
aF0.94
aF0.24
aI97
aI1303
aI29275
aI0
aa(lp34
I2125
aI710
aI0
aI8
aF0.0
aF0.6683673469387755
aF0.336734693877551
aI99
aI75
aI4795
aI0
aa(lp35
I1448
aI0
aI3
aI14
aF0.0
aF0.78
aF0.115
aI9
aI41
aI185
aI0
aa(lp36
I983
aI560
aI3
aI1
aF0.0
aF0.2676767676767677
aF0.04040404040404041
aI1
aI3
aI80
aI0
aa(lp37
I604
aI289
aI45
aI8
aF0.0
aF0.005
aF0.94
aI8
aI24
aI3
aI0
aa(lp38
I521
aI802
aI38
aI0
aF0.0
aF0.42276422764227645
aF0.0
aI3
aI19
aI16
aI0
aa(lp39
I319
aI342
aI13
aI119
aF0.0
aF0.625
aF0.215
aI57
aI16
aI277
aI0
aa(lp40
I393
aI642
aI0
aI12
aF0.0
aF0.41
aF0.66
aI18
aI31
aI42
aI0
aa(lp41
I564
aI462
aI142
aI167
aF0.0
aF0.5
aF0.29
aI64
aI13
aI461833
aI0
aa(lp42
I2451
aI1888
aI77
aI1460
aF0.0
aF0.3939393939393939
aF0.6464646464646465
aI99
aI43
aI109
aI0
aa(lp43
I2826
aI1648
aI154
aI1526
aF0.0
aF0.085
aF0.975
aI37
aI128
aI561
aI0
aa(lp44
I710
aI1014
aI184
aI6
aF0.0
aF0.0
aF1.0
aI1
aI8
aI1
aI0
aa(lp45
I598
aI1125
aI71
aI14
aF0.0
aF0.015
aF0.93
aI21
aI16
aI17
aI0
aa(lp46
I1538
aI1857
aI0
aI62
aF0.0
aF0.583756345177665
aF0.41116751269035534
aI161
aI32
aI3045
aI0
aa(lp47
I1410
aI635
aI4
aI600
aF0.0
aF0.67
aF0.165
aI105
aI52
aI148
aI0
aa(lp48
I543
aI143
aI0
aI15
aF0.0
aF0.5
aF0.93
aI16
aI27
aI10
aI0
aa(lp49
I416
aI215
aI1
aI119
aF0.0
aF0.9025641025641026
aF0.28717948717948716
aI42
aI27
aI91522
aI0
aa(lp50
I763
aI1940
aI5
aI89
aF0.0
aF0.625
aF0.35
aI93
aI12
aI53258
aI0
aa(lp51
I192
aI627
aI7
aI0
aF0.0
aF0.11764705882352941
aF0.2647058823529412
aI12
aI10
aI3
aI0
aa(lp52
I240
aI269
aI6
aI2
aF0.0
aF0.16363636363636364
aF0.6545454545454545
aI6
aI16
aI9
aI0
aa(lp53
I626
aI966
aI4
aI0
aF0.0
aF0.315
aF0.37
aI0
aI5
aI27
aI0
aa(lp54
I150
aI236
aI15
aI17
aF0.0
aF0.25210084033613445
aF0.5966386554621849
aI21
aI9
aI54
aI0
aa(lp55
I45
aI74
aI1
aI21
aF0.0
aF0.23076923076923078
aF0.1346153846153846
aI18
aI1
aI12
aI0
aa(lp56
I318
aI127
aI8
aI30
aF0.0
aF0.23
aF0.21
aI45
aI7
aI86
aI0
aa(lp57
I1551
aI98
aI3
aI0
aF0.0
aF0.005
aF0.74
aI5
aI4
aI1
aI0
aa(lp58
I113968
aI28737
aI110
aI1788
aF0.0
aF0.445
aF0.81
aI18806
aI1540
aI9345
aI1
aa(lp59
I94880
aI9494
aI199
aI12368
aF0.0
aF0.885
aF0.245
aI4359
aI1211
aI1525
aI1
aa(lp60
I26687
aI112
aI82
aI302
aF0.0
aF0.095
aF0.52
aI11753
aI295
aI5659
aI1
aa(lp61
I635
aI19
aI199
aI280
aF0.0
aF0.0
aF0.02
aI0
aI1
aI0
aI0
aa(lp62
I16
aI9
aI4
aI0
aF0.0
aF0.5555555555555556
aF0.7777777777777778
aI0
aI0
aI1
aI0
aa(lp63
I59514
aI1802
aI199
aI3397
aF0.0
aF0.75
aF0.335
aI1619
aI789
aI3564
aI1
aa(lp64
I89
aI0
aI0
aI0
aF0.0
aF1.0
aF1.0
aI0
aI0
aI0
aI0
aa(lp65
I7715
aI3071
aI41
aI68
aF0.0
aF0.03
aF0.995
aI15
aI5
aI3326
aI0
aa(lp66
I12057
aI11991
aI3
aI38
aF0.0
aF0.34517766497461927
aF0.9238578680203046
aI28
aI96
aI422
aI0
aa(lp67
I1460
aI2002
aI61
aI49
aF0.0
aF0.23
aF0.93
aI15
aI13
aI2212
aI0
aa(lp68
I26
aI45
aI14
aI0
aF0.0
aF0.4666666666666667
aF0.4666666666666667
aI2
aI0
aI269
aI0
aa(lp69
I3320
aI2404
aI3
aI11
aF0.0
aF0.875
aF0.425
aI6
aI28
aI123
aI0
aa(lp70
I2762
aI3258
aI12
aI22
aF0.0
aF0.75
aF0.6818181818181818
aI90
aI14
aI125
aI0
aa(lp71
I1294
aI38
aI28
aI424
aF0.0
aF0.345
aF0.99
aI906
aI28
aI936
aI0
aa(lp72
I2885
aI14
aI7
aI1
aF0.0
aF0.016
aF0.888
aI14
aI1
aI2095
aI0
aa(lp73
I2643
aI2100
aI12
aI50
aF0.0
aF0.495
aF0.67
aI154
aI23
aI434
aI0
aa(lp74
I1766
aI1945
aI3
aI8
aF0.0
aF0.6363636363636364
aF0.6590909090909091
aI1
aI5
aI96
aI0
aa(lp75
I70644
aI92
aI199
aI0
aF0.0
aF0.0
aF1.0
aI6
aI51
aI4
aI0
aa(lp76
I23394
aI24736
aI65
aI46
aF0.0
aF0.105
aF1.0
aI52
aI110
aI7
aI0
aa(lp77
I6058
aI6196
aI13
aI0
aF0.0
aF0.25
aF0.995
aI14
aI50
aI800
aI0
aa(lp78
I3334
aI2750
aI180
aI47
aF0.0
aF0.02
aF0.97
aI48
aI61
aI24
aI0
aa(lp79
I6
aI0
aI3
aI2
aF0.0
aF1.0
aF0.0
aI1
aI0
aI0
aI0
aa(lp80
I2822
aI2305
aI118
aI252
aF0.0
aF0.0
aF0.98
aI28
aI86
aI14
aI0
aa(lp81
I14056
aI4722
aI199
aI3008
aF0.0
aF0.655
aF0.895
aI125
aI304
aI86
aI0
aa(lp82
I561036
aI1
aI17
aI4381
aF0.0
aF0.565
aF0.15
aI4459
aI5096
aI795
aI1
aa(lp83
I1034095
aI915
aI73
aI1390
aF0.0
aF0.39
aF0.65
aI3766
aI5492
aI4997
aI1
aa(lp84
I387212
aI1797
aI199
aI8882
aF0.0
aF0.655
aF0.735
aI186861
aI1630
aI155505
aI1
aa(lp85
I361354
aI2197
aI199
aI3983
aF0.0
aF0.825
aF0.63
aI11821
aI4931
aI19691
aI1
aa(lp86
I92322
aI807
aI198
aI15923
aF0.0
aF0.6180904522613065
aF0.5879396984924623
aI2684
aI1828
aI5957
aI1
aa(lp87
I26871
aI7624
aI0
aI26299
aF0.0
aF0.49
aF0.48
aI156
aI466
aI76
aI0
aa(lp88
I79203
aI481
aI199
aI4006
aF0.0
aF0.52
aF0.595
aI2698
aI501
aI1050
aI1
aa(lp89
I1309259
aI2018
aI199
aI4704
aF0.0
aF0.65
aF0.655
aI4409
aI9550
aI3513
aI1
aa(lp90
I558578
aI482
aI199
aI3855
aF0.0
aF0.27
aF0.775
aI2443
aI4510
aI300
aI1
aa(lp91
I496571
aI60264
aI100
aI34213
aF0.0
aF0.355
aF0.635
aI28215
aI3763
aI5141
aI1
aa(lp92
I5335
aI837
aI199
aI2320
aF0.0
aF0.99
aF0.19
aI144
aI248
aI1146621
aI0
aa(lp93
I6027
aI4332
aI2
aI7
aF0.0
aF0.9016393442622951
aF0.13114754098360656
aI35
aI24
aI13863
aI0
aa(lp94
I7278
aI6503
aI2
aI33
aF0.0
aF0.395
aF0.605
aI357
aI22
aI96
aI0
aa(lp95
I5037
aI813
aI10
aI123
aF0.0
aF0.2914572864321608
aF0.7688442211055276
aI39
aI55
aI104
aI0
aa(lp96
I2829
aI2094
aI119
aI3
aF0.0
aF0.16
aF0.89
aI74
aI21
aI161
aI0
aa(lp97
I2701
aI2760
aI199
aI10
aF0.0
aF0.0
aF1.0
aI1
aI34
aI0
aI0
aa(lp98
I3093
aI2528
aI1
aI47
aF0.0
aF0.195
aF0.985
aI18
aI60
aI9
aI0
aa(lp99
I3167
aI2300
aI17
aI532
aF0.0
aF0.03
aF0.9
aI71
aI28
aI52
aI0
aa(lp100
I3644
aI3830
aI9
aI263
aF0.0
aF0.03
aF0.925
aI421
aI16
aI241
aI0
aa(lp101
I2108738
aI108985
aI199
aI45546
aF0.0
aF0.995
aF0.39
aI66
aI12613
aI9
aI1
aa(lp102
I163609
aI3240
aI199
aI1427
aF0.0
aF0.105
aF0.695
aI41
aI72
aI27
aI0
aa(lp103
I823078
aI103185
aI199
aI7373
aF0.0
aF0.975
aF0.325
aI230
aI8952
aI86
aI1
aa(lp104
I1470021
aI97309
aI199
aI4664
aF0.0
aF1.0
aF0.225
aI28
aI11595
aI6
aI1
aa(lp105
I19675
aI461
aI2
aI22
aF0.0
aF0.38
aF0.54
aI110
aI568
aI342
aI0
aa(lp106
I553385
aI7557
aI199
aI12359
aF0.0
aF0.91
aF0.095
aI715
aI1268
aI339
aI1
aa(lp107
I218
aI216
aI134
aI1000
aF0.0
aF0.625
aF0.665
aI24
aI28
aI1463
aI0
aa(lp108
I194562
aI9831
aI172
aI6268
aF0.0
aF0.665
aF0.385
aI4550
aI2878
aI1261
aI1
aa(lp109
I4
aI28
aI56
aI0
aF0.0
aF0.02040816326530612
aF0.5816326530612245
aI2
aI0
aI809
aI0
aa(lp110
I35082
aI5961
aI136
aI3546
aF0.0
aF0.4271356783919598
aF0.7889447236180904
aI16641
aI835
aI24475
aI1
aa(lp111
I24822
aI853
aI171
aI2843
aF0.0
aF0.775
aF0.485
aI623
aI190
aI441
aI1
aa(lp112
I7634
aI4160
aI40
aI366
aF0.0
aF0.295
aF0.95
aI119
aI292
aI103
aI0
aa(lp113
I10039
aI104
aI57
aI599
aF0.0
aF0.54
aF0.675
aI97
aI405
aI80
aI0
aa(lp114
I2557
aI2889
aI13
aI0
aF0.0
aF0.93
aF1.0
aI47
aI23
aI126
aI0
aa(lp115
I12331
aI3985
aI199
aI2430
aF0.0
aF0.825
aF0.905
aI372
aI448
aI76
aI0
aa(lp116
I898089
aI4678
aI199
aI17473
aF0.0
aF0.78
aF0.325
aI12630
aI3235
aI2457
aI1
aa(lp117
I2304
aI1849
aI24
aI11
aF0.0
aF0.12
aF0.705
aI62
aI76
aI205
aI0
aa(lp118
I597
aI0
aI0
aI0
aF0.0
aF1.0
aF0.0
aI14
aI9
aI16
aI0
aa(lp119
I590197
aI1687
aI199
aI4812
aF0.0
aF0.9
aF0.37
aI6195
aI2501
aI3504
aI1
aa(lp120
I209245
aI99
aI199
aI501
aF0.0
aF0.64
aF0.69
aI41718
aI2037
aI25901
aI1
aa(lp121
I239341
aI3371
aI133
aI5617
aF0.0
aF0.65
aF0.345
aI4640
aI1349
aI1791
aI1
aa(lp122
I68457
aI2023
aI9
aI3160
aF0.0
aF0.9644670050761421
aF0.5177664974619289
aI530
aI1029
aI1750
aI0
aa(lp123
I15194
aI256
aI29
aI306
aF0.0
aF0.835
aF0.99
aI33
aI413
aI1093
aI0
aa(lp124
I13889
aI13635
aI199
aI862
aF0.0
aF0.135
aF0.815
aI514
aI121
aI252
aI0
aa(lp125
I4033
aI2061
aI199
aI36
aF0.0
aF0.0
aF1.0
aI9
aI138
aI2
aI0
aa(lp126
I612824
aI42
aI199
aI11
aF0.0
aF0.0
aF1.0
aI196
aI8163
aI64
aI1
aa(lp127
I66926
aI66349
aI13
aI153
aF0.0
aF0.085
aF0.93
aI143
aI480
aI41
aI0
aa(lp128
I25385
aI195
aI42
aI106
aF0.0
aF0.155
aF0.785
aI71
aI407
aI225282
aI0
aa(lp129
I33681
aI1512
aI199
aI5764
aF0.0
aF0.52
aF0.415
aI2510
aI345
aI997
aI0
aa(lp130
I12707
aI2341
aI191
aI1321
aF0.0
aF0.06
aF0.775
aI76
aI164
aI58
aI1
aa(lp131
I5204
aI12
aI0
aI2
aF0.0
aF0.26506024096385544
aF0.9096385542168675
aI11
aI5
aI11
aI0
aa(lp132
I1330
aI518
aI28
aI9
aF0.0
aF0.02
aF0.945
aI22
aI3
aI6
aI0
aa(lp133
I7278
aI6503
aI2
aI33
aF0.0
aF0.395
aF0.605
aI357
aI22
aI96
aI0
aa(lp134
I361354
aI2197
aI199
aI3983
aF0.0
aF0.825
aF0.63
aI11821
aI4931
aI19691
aI1
aa(lp135
I28047
aI15022
aI199
aI1685
aF0.0
aF0.315
aF0.65
aI126
aI256
aI148
aI0
aa(lp136
I24076
aI8221
aI44
aI4786
aF0.0
aF0.945
aF0.2
aI268
aI659
aI141
aI0
aa(lp137
I4927
aI3502
aI120
aI0
aF0.0
aF0.88
aF0.8
aI106
aI151
aI89
aI0
aa(lp138
I9552
aI1539
aI12
aI391
aF0.0
aF0.41919191919191917
aF0.7171717171717171
aI316
aI373
aI347
aI0
aa(lp139
I7873
aI120
aI50
aI229
aF0.0
aF0.545
aF0.56
aI252
aI207
aI26661
aI0
aa(lp140
I1470
aI1792
aI9
aI8
aF0.0
aF0.54
aF0.795
aI160
aI46
aI88
aI0
aa(lp141
I2064
aI3007
aI134
aI762
aF0.0
aF0.5
aF0.635
aI339
aI32
aI29502
aI0
aa(lp142
I18555
aI17779
aI9
aI1398
aF0.0
aF0.78
aF0.915
aI106
aI392
aI385
aI0
aa(lp143
I1370
aI2355
aI6
aI0
aF0.0
aF0.0
aF0.995
aI5
aI4
aI101
aI0
aa(lp144
I526184
aI2684
aI199
aI13081
aF0.0
aF0.955
aF0.055
aI1125
aI2518
aI561
aI1
aa(lp145
I33338
aI1522
aI71
aI2205
aF0.0
aF0.51
aF0.77
aI1054
aI285
aI280
aI1
aa(lp146
I6702
aI3036
aI199
aI7235
aF0.0
aF0.29
aF0.915
aI243
aI181
aI45
aI0
aa(lp147
I13635
aI1667
aI199
aI461
aF0.0
aF0.73
aF0.295
aI269
aI246
aI110
aI1
aa(lp148
I1622
aI1826
aI126
aI463
aF0.0
aF0.01
aF0.1
aI27
aI7
aI3
aI0
aa(lp149
I909
aI1526
aI21
aI85
aF0.0
aF0.3787878787878788
aF0.6111111111111112
aI264
aI18
aI1630
aI0
aa(lp150
I598
aI4
aI7
aI0
aF0.0
aF0.0
aF1.0
aI1
aI0
aI0
aI0
aa(lp151
I374648
aI15301
aI199
aI1681
aF0.0
aF0.44
aF0.91
aI2087
aI13381
aI2596
aI1
aa(lp152
I71697
aI4833
aI146
aI69
aF0.0
aF0.325
aF0.67
aI245
aI6848
aI8353
aI0
aa(lp153
I22531
aI11306
aI64
aI220
aF0.0
aF0.91
aF0.43
aI49
aI624
aI3811
aI0
aa(lp154
I18601
aI20380
aI47
aI6
aF0.0
aF0.7939698492462312
aF0.9597989949748744
aI35
aI68
aI12
aI0
aa(lp155
I17136
aI17119
aI63
aI929
aF0.0
aF0.67
aF0.75
aI152
aI1076
aI84149
aI0
aa(lp156
I31526
aI6917
aI199
aI26513
aF0.0
aF0.825
aF0.925
aI48
aI1761
aI1635
aI0
aa(lp157
I14875
aI6347
aI199
aI348
aF0.0
aF0.005
aF0.8
aI54
aI81
aI19
aI0
aa(lp158
I11698
aI11068
aI35
aI4
aF0.0
aF0.075
aF0.99
aI48
aI171
aI168
aI0
aa(lp159
I14498
aI14753
aI60
aI21
aF0.0
aF0.26
aF0.945
aI40
aI915
aI55
aI0
aa(lp160
I23922
aI999
aI199
aI3071
aF0.0
aF0.34
aF0.95
aI45
aI1279
aI21
aI0
aa(lp161
I10309
aI10510
aI199
aI1540
aF0.0
aF0.34
aF0.81
aI105
aI515
aI14092
aI0
aa(lp162
I58980
aI1865
aI199
aI2360
aF0.0
aF0.785
aF0.71
aI1000
aI627
aI583
aI1
aa(lp163
I8058
aI2461
aI199
aI36
aF0.0
aF0.505
aF0.91
aI42
aI165
aI16
aI0
aa(lp164
I12489
aI10544
aI199
aI1770
aF0.0
aF0.0
aF1.0
aI62
aI312
aI0
aI0
aa(lp165
I18130
aI14853
aI199
aI28325
aF0.0
aF0.375
aF0.81
aI110
aI784
aI2958630
aI0
aa(lp166
I33016
aI92
aI27
aI0
aF0.0
aF0.0
aF0.99
aI17
aI8
aI2
aI0
aa(lp167
I20093
aI17883
aI199
aI2816
aF0.0
aF0.74
aF0.75
aI291
aI1914
aI348
aI0
aa(lp168
I7082
aI3500
aI1
aI481
aF0.0
aF0.555
aF0.225
aI156
aI486
aI477
aI0
aa(lp169
I16215
aI18209
aI4
aI11
aF0.0
aF0.51
aF0.555
aI74
aI505
aI151
aI0
aa(lp170
I41
aI3
aI62
aI0
aF0.0
aF0.0
aF0.995
aI4
aI1
aI1
aI0
aa(lp171
I38
aI1
aI2
aI0
aF0.0
aF1.0
aF0.6666666666666666
aI0
aI0
aI0
aI0
aa(lp172
I22767
aI17543
aI199
aI18807
aF0.0
aF0.735
aF0.79
aI64
aI1154
aI3018
aI0
aa(lp173
I0
aI7
aI0
aI0
aF0.0
aF0.0
aF0.0
aI0
aI0
aI0
aI0
aa(lp174
I1913569
aI2614
aI199
aI8172
aF0.0
aF0.98
aF0.04
aI2958
aI7743
aI3144
aI1
aa(lp175
I163609
aI3240
aI199
aI1427
aF0.0
aF0.105
aF0.695
aI41
aI72
aI27
aI0
aa(lp176
I28450
aI23505
aI15
aI512
aF0.0
aF0.10526315789473684
aF0.8421052631578947
aI328
aI239
aI7
aI0
aa(lp177
I63642
aI60191
aI1
aI53
aF0.0
aF0.7454545454545455
aF0.38181818181818183
aI38
aI331
aI14819
aI0
aa(lp178
I40616
aI36202
aI199
aI207
aF0.0
aF0.045
aF0.79
aI4
aI119
aI8
aI0
aa(lp179
I14875
aI6347
aI199
aI348
aF0.0
aF0.005
aF0.8
aI54
aI81
aI19
aI0
aa(lp180
I8541
aI9304
aI172
aI12140
aF0.0
aF0.305
aF0.985
aI146
aI218
aI663
aI0
aa(lp181
I20826
aI21486
aI9
aI970
aF0.0
aF0.325
aF0.875
aI88
aI75
aI46779
aI0
aa(lp182
I35408
aI12883
aI199
aI4371
aF0.0
aF0.365
aF0.865
aI193
aI1457
aI163
aI1
aa(lp183
I8435
aI10477
aI2
aI24
aF0.0
aF0.1
aF0.99
aI45
aI256
aI7
aI0
aa(lp184
I577735
aI2732
aI199
aI5377
aF0.0
aF0.845
aF0.775
aI2122
aI9935
aI2133
aI1
aa(lp185
I9925
aI9951
aI62
aI50
aF0.0
aF0.015873015873015872
aF1.0
aI53
aI87
aI28
aI0
aa(lp186
I8634
aI7644
aI2
aI0
aF0.0
aF0.05
aF0.955
aI37
aI120
aI9
aI0
aa(lp187
I10825
aI8661
aI196
aI46
aF0.0
aF0.0
aF0.72
aI84
aI109
aI26
aI0
aa(lp188
I1330
aI518
aI28
aI9
aF0.0
aF0.02
aF0.945
aI22
aI3
aI6
aI0
aa(lp189
I8729
aI714
aI199
aI3835
aF0.0
aF0.65
aF0.255
aI198
aI754
aI91566
aI0
aa(lp190
I1869
aI0
aI0
aI0
aF0.0
aF0.045454545454545456
aF0.5909090909090909
aI3
aI0
aI1441
aI0
aa(lp191
I3576
aI0
aI24
aI3
aF0.0
aF0.015
aF0.885
aI2
aI0
aI1
aI0
aa(lp192
I3073
aI2150
aI3
aI32
aF0.0
aF0.0
aF0.62
aI37
aI43
aI6
aI0
aa(lp193
I54869
aI2085
aI52
aI2453
aF0.0
aF0.85
aF0.42
aI2484
aI379
aI1196
aI1
aa(lp194
I953
aI622
aI7
aI22
aF0.0
aF0.36
aF0.935
aI12
aI9
aI69
aI0
aa(lp195
I5
aI0
aI0
aI0
aF0.0
aF1.0
aF0.0
aI1
aI0
aI0
aI0
aa(lp196
I989
aI618
aI14
aI0
aF0.0
aF0.038461538461538464
aF0.45384615384615384
aI4
aI19
aI23
aI0
aa(lp197
I35
aI11
aI133
aI0
aF0.0
aF0.0
aF1.0
aI0
aI0
aI0
aI0
aa(lp198
I3119
aI251
aI0
aI1
aF0.0
aF0.375
aF0.82
aI11
aI8
aI111
aI0
aa(lp199
I14180
aI13807
aI149
aI1747
aF0.0
aF0.615
aF0.51
aI302
aI278
aI676
aI0
aa(lp200
I3373
aI2241
aI14
aI135
aF0.0
aF0.46
aF0.645
aI105
aI127
aI166
aI0
aa(lp201
I1324
aI1750
aI199
aI0
aF0.0
aF0.07
aF0.995
aI2
aI3
aI0
aI0
aa(lp202
I5410
aI2893
aI25
aI2068
aF0.0
aF0.67
aF0.715
aI392
aI226
aI102
aI0
aa(lp203
I1126
aI48
aI0
aI13
aF0.0
aF0.2605633802816901
aF0.09859154929577464
aI32
aI85
aI18
aI0
aa(lp204
I2760
aI1628
aI30
aI653
aF0.0
aF0.54
aF0.665
aI278
aI154
aI47530
aI0
aa(lp205
I1472404
aI1369
aI199
aI9834
aF0.0
aF0.18
aF0.875
aI24111
aI21850
aI271289
aI1
aa(lp206
I140526
aI148839
aI199
aI203724
aF0.0
aF0.74
aF0.995
aI142
aI1169
aI73
aI0
aa(lp207
I116985
aI163
aI199
aI165
aF0.0
aF0.0
aF0.985
aI32
aI1545
aI5
aI0
aa(lp208
I181067
aI180132
aI18
aI74
aF0.0
aF0.4797979797979798
aF0.30303030303030304
aI318
aI3320
aI115719
aI0
aa(lp209
I91312
aI103009
aI0
aI227
aF0.0
aF0.865
aF0.265
aI286
aI2712
aI458
aI0
aa(lp210
I281934
aI2758
aI199
aI21162
aF0.0
aF0.705
aF0.73
aI1327
aI21409
aI79594
aI1
aa(lp211
I187461
aI103337
aI199
aI142974
aF0.0
aF0.815
aF0.43
aI7954
aI8623
aI406653
aI1
aa(lp212
I98175
aI108051
aI199
aI12542
aF0.0
aF0.42
aF0.65
aI373
aI1383
aI107682
aI0
aa(lp213
I44167
aI128
aI199
aI396
aF0.0
aF0.23
aF0.775
aI1349
aI3392
aI835
aI0
aa(lp214
I74863
aI33455
aI147
aI214
aF0.0
aF0.5228426395939086
aF0.6243654822335025
aI537
aI470
aI294391
aI0
aa(lp215
I204104
aI19449
aI0
aI164
aF0.0
aF0.935
aF0.185
aI119
aI2703
aI202
aI1
aa(lp216
I40481
aI33670
aI199
aI7810
aF0.0
aF0.855
aF0.435
aI30
aI3450
aI950878
aI0
aa(lp217
I40245
aI12483
aI30
aI458
aF0.0
aF0.42
aF0.035
aI151
aI16
aI1075
aI0
aa(lp218
I28450
aI23505
aI15
aI512
aF0.0
aF0.10526315789473684
aF0.8421052631578947
aI328
aI239
aI7
aI0
aa(lp219
I70390
aI42407
aI199
aI1851
aF0.0
aF0.22
aF0.94
aI77
aI2500
aI54
aI1
aa(lp220
I963083
aI12013
aI199
aI911
aF0.0
aF0.23
aF0.98
aI1615
aI26772
aI1220
aI1
aa(lp221
I40176
aI685
aI32
aI2420
aF0.0
aF0.49246231155778897
aF0.3969849246231156
aI608
aI1862
aI156358
aI1
aa(lp222
I6566
aI1111
aI0
aI0
aF0.0
aF0.0
aF1.0
aI7
aI32
aI2
aI0
aa(lp223
I1172188
aI57418
aI199
aI6847
aF0.0
aF0.985
aF0.0
aI333
aI5738
aI72
aI1
aa(lp224
I33295
aI15242
aI199
aI3675
aF0.0
aF0.94
aF0.24
aI97
aI1303
aI29274
aI0
aa(lp225
I2125
aI710
aI0
aI8
aF0.0
aF0.6683673469387755
aF0.336734693877551
aI99
aI75
aI4795
aI0
aa(lp226
I1448
aI0
aI3
aI14
aF0.0
aF0.78
aF0.115
aI9
aI41
aI185
aI0
aa(lp227
I983
aI560
aI3
aI1
aF0.0
aF0.2676767676767677
aF0.04040404040404041
aI1
aI3
aI80
aI0
aa(lp228
I1450
aI1693
aI6
aI32
aF0.0
aF0.6111111111111112
aF0.1717171717171717
aI27
aI55
aI3480458
aI0
aa(lp229
I604
aI289
aI45
aI8
aF0.0
aF0.005
aF0.94
aI8
aI24
aI3
aI0
aa(lp230
I521
aI802
aI38
aI0
aF0.0
aF0.42276422764227645
aF0.0
aI3
aI19
aI16
aI0
aa(lp231
I3839
aI2963
aI133
aI11
aF0.0
aF0.67
aF0.885
aI23
aI94
aI12
aI0
aa(lp232
I635
aI2675
aI5
aI0
aF0.0
aF0.24
aF1.0
aI16
aI2
aI3
aI0
aa(lp233
I921
aI1075
aI1
aI1
aF0.0
aF0.16
aF0.94
aI8
aI3
aI2
aI0
aa(lp234
I894
aI554
aI9
aI323
aF0.0
aF0.35
aF0.21
aI306
aI11
aI7719
aI0
aa(lp235
I192
aI205
aI141
aI2
aF0.0
aF0.005
aF0.955
aI0
aI4
aI1
aI0
aa(lp236
I319
aI342
aI13
aI119
aF0.0
aF0.625
aF0.215
aI57
aI16
aI277
aI0
aa(lp237
I393
aI642
aI0
aI12
aF0.0
aF0.41
aF0.66
aI18
aI31
aI42
aI0
aa(lp238
I564
aI462
aI142
aI167
aF0.0
aF0.5
aF0.29
aI64
aI13
aI461833
aI0
aa(lp239
I11943
aI301
aI23
aI258
aF0.0
aF0.3417085427135678
aF0.8442211055276382
aI432
aI100
aI252
aI0
aa(lp240
I18024
aI4087
aI39
aI8458
aF0.0
aF0.495
aF0.595
aI750
aI939
aI267
aI1
aa(lp241
I8751
aI3209
aI30
aI1212
aF0.0
aF0.325
aF0.47
aI356
aI249
aI93
aI0
aa(lp242
I1393
aI1634
aI1
aI0
aF0.0
aF0.05
aF0.965
aI14
aI24
aI7
aI0
aa(lp243
I2832
aI1332
aI3
aI179
aF0.0
aF0.8994974874371859
aF0.35175879396984927
aI272
aI75
aI1431
aI0
aa(lp244
I923
aI1259
aI16
aI159
aF0.0
aF0.0
aF0.935
aI54
aI4
aI6
aI0
aa(lp245
I2403
aI362
aI3
aI7
aF0.0
aF0.01
aF0.575
aI25
aI27
aI50
aI0
aa(lp246
I80
aI29
aI8
aI14
aF0.0
aF0.035
aF0.915
aI11
aI2
aI9
aI0
aa(lp247
I432
aI209
aI10
aI52
aF0.0
aF0.295
aF0.505
aI50
aI21
aI106
aI0
aa(lp248
I376
aI374
aI1
aI20
aF0.0
aF0.31
aF0.81
aI39
aI9
aI9638
aI0
aa(lp249
I51
aI6
aI19
aI0
aF0.0
aF0.005025125628140704
aF0.7135678391959799
aI3
aI1
aI1
aI0
aa(lp250
I526175
aI2684
aI199
aI13075
aF0.0
aF0.96
aF0.055
aI1125
aI2506
aI561
aI1
aa(lp251
I90423
aI21261
aI199
aI2642
aF0.0
aF0.785
aF0.265
aI1807
aI1232
aI481
aI1
aa(lp252
I88869
aI5804
aI199
aI10987
aF0.0
aF0.985
aF0.725
aI468
aI979
aI513
aI1
aa(lp253
I61301
aI4311
aI199
aI2260
aF0.0
aF0.825
aF0.38
aI676
aI689
aI167
aI1
aa(lp254
I24
aI115
aI10
aI20
aF0.0
aF0.09090909090909091
aF0.0
aI13
aI1
aI0
aI0
aa(lp255
I8953
aI4122
aI199
aI184
aF0.0
aF0.215
aF0.93
aI38
aI330
aI94
aI0
aa(lp256
I208686
aI14120
aI199
aI693
aF0.0
aF0.6
aF0.345
aI519
aI1527
aI147
aI1
aa(lp257
I3326
aI2074
aI7
aI0
aF0.0
aF0.605
aF0.0
aI48
aI233
aI11
aI0
aa(lp258
I5396
aI5919
aI199
aI2326
aF0.0
aF0.575
aF0.565
aI254
aI171
aI1650
aI0
aa(lp259
I18388
aI1921
aI199
aI19927
aF0.0
aF0.77
aF0.21
aI2345
aI243
aI706
aI1
aa(lp260
I8232
aI635
aI148
aI374
aF0.0
aF0.02
aF0.975
aI23
aI42
aI4
aI0
aa(lp261
I2854
aI687
aI3
aI5
aF0.0
aF0.185
aF0.095
aI10
aI176
aI233
aI0
aa(lp262
I2515
aI1406
aI37
aI284
aF0.0
aF0.48
aF0.78
aI145
aI135
aI1250
aI1
aa(lp263
I2451
aI1888
aI77
aI1460
aF0.0
aF0.3939393939393939
aF0.6464646464646465
aI99
aI43
aI109
aI0
aa(lp264
I1221
aI1190
aI8
aI27
aF0.0
aF0.5979899497487438
aF0.8944723618090452
aI58
aI71
aI1019
aI0
aa(lp265
I895
aI1779
aI0
aI0
aF0.0
aF0.095
aF0.0
aI16
aI25
aI0
aI0
aa(lp266
I2232
aI2295
aI0
aI315
aF0.0
aF0.4221105527638191
aF0.8592964824120602
aI58
aI124
aI63
aI0
aa(lp267
I470148
aI1015
aI199
aI18537
aF0.0
aF0.56
aF0.61
aI11844
aI2208
aI4320
aI1
aa(lp268
I217816
aI11
aI1
aI455
aF0.0
aF0.09
aF0.055
aI1906
aI2392
aI697
aI0
aa(lp269
I8772
aI11
aI190
aI0
aF0.0
aF0.0
aF1.0
aI8
aI57
aI26
aI0
aa(lp270
I6384
aI5698
aI12
aI15
aF0.0
aF0.035
aF0.99
aI65
aI244
aI5
aI0
aa(lp271
I4099
aI5211
aI60
aI3
aF0.0
aF0.265
aF0.38
aI7
aI74
aI30
aI0
aa(lp272
I8232
aI635
aI148
aI374
aF0.0
aF0.02
aF0.975
aI23
aI42
aI4
aI0
aa(lp273
I6000
aI7716
aI195
aI258
aF0.0
aF0.8775510204081632
aF0.673469387755102
aI83
aI77
aI798
aI0
aa(lp274
I1479
aI1846
aI31
aI0
aF0.0
aF0.265
aF0.87
aI10
aI34
aI23
aI0
aa(lp275
I1201
aI1785
aI4
aI1
aF0.0
aF0.125
aF0.0
aI6
aI1
aI2
aI0
aa(lp276
I1903
aI1829
aI199
aI15
aF0.0
aF0.0
aF0.95
aI2
aI121
aI1
aI0
aa(lp277
I804
aI612
aI10
aI0
aF0.0
aF0.13
aF0.745
aI12
aI26
aI24
aI0
aa(lp278
I604
aI289
aI45
aI8
aF0.0
aF0.005
aF0.94
aI8
aI24
aI3
aI0
aa(lp279
I283
aI409
aI1
aI0
aF0.0
aF0.5662650602409639
aF0.0
aI1
aI37
aI1
aI0
aa(lp280
I584
aI402
aI51
aI31
aF0.0
aF0.155
aF0.815
aI32
aI13
aI151
aI0
aa(lp281
I557
aI1106
aI35
aI932
aF0.0
aF0.41
aF0.645
aI40
aI14
aI456
aI0
aa(lp282
I6384
aI5698
aI12
aI15
aF0.0
aF0.035
aF0.99
aI65
aI244
aI5
aI0
aa(lp283
I12629
aI16141
aI198
aI13
aF0.0
aF0.36683417085427134
aF0.5175879396984925
aI23
aI120
aI488
aI0
aa(lp284
I914
aI371
aI39
aI96
aF0.0
aF0.015
aF0.445
aI34
aI23
aI12
aI0
aa(lp285
I222
aI986
aI82
aI1
aF0.0
aF0.20833333333333334
aF0.828125
aI6
aI1
aI124
aI0
aa(lp286
I257
aI429
aI32
aI0
aF0.0
aF0.0
aF0.86
aI9
aI2
aI2
aI0
aa(lp287
I240
aI142
aI70
aI680
aF0.0
aF0.38
aF0.625
aI131
aI7
aI1784
aI0
aa(lp288
I4387
aI3125
aI1
aI1642
aF0.0
aF0.08
aF0.85
aI74
aI39
aI28
aI0
aa(lp289
I72
aI161
aI0
aI2
aF0.0
aF0.21568627450980393
aF0.45098039215686275
aI2
aI5
aI346
aI0
aa(lp290
I611
aI1835
aI13
aI5
aF0.0
aF0.22395833333333334
aF0.4479166666666667
aI41
aI8
aI299
aI0
aa(lp291
I48
aI25
aI16
aI0
aF0.0
aF0.0
aF0.85
aI1
aI5
aI1
aI0
aa(lp292
I1137
aI1751
aI10
aI655
aF0.0
aF0.507537688442211
aF0.5477386934673367
aI91
aI19
aI334
aI0
aa(lp293
I1229
aI1433
aI99
aI74
aF0.0
aF0.16
aF0.84
aI106
aI22
aI22
aI0
aa(lp294
I686
aI774
aI63
aI204
aF0.0
aF0.195
aF0.605
aI236
aI14
aI30
aI0
aa(lp295
I22
aI21
aI0
aI0
aF0.0
aF0.1111111111111111
aF0.16666666666666666
aI0
aI2
aI2
aI0
aa(lp296
I629
aI702
aI11
aI3
aF0.0
aF0.175
aF0.98
aI8
aI0
aI160
aI0
aa(lp297
I380
aI112
aI0
aI22
aF0.0
aF0.635
aF0.385
aI100
aI40
aI55
aI0
aa(lp298
I526184
aI2684
aI199
aI13081
aF0.0
aF0.955
aF0.055
aI1125
aI2518
aI561
aI1
aa(lp299
I18785
aI370
aI28
aI5
aF0.0
aF0.125
aF0.95
aI473
aI506
aI2694
aI0
aa(lp300
I6401
aI373
aI33
aI291
aF0.0
aF0.58
aF0.5
aI339
aI554
aI266035
aI0
aa(lp301
I6367
aI3362
aI117
aI10318
aF0.0
aF0.33
aF0.53
aI302
aI255
aI134
aI0
aa(lp302
I688
aI64
aI0
aI0
aF0.0
aF0.37
aF0.69
aI27
aI82
aI41
aI0
aa(lp303
I630
aI484
aI15
aI295
aF0.0
aF0.8
aF0.495
aI173
aI45
aI55251
aI0
aa(lp304
I573
aI214
aI0
aI96
aF0.0
aF0.745
aF0.125
aI139
aI10
aI3449
aI0
aa(lp305
I745
aI104
aI4
aI62
aF0.0
aF0.55
aF0.675
aI128
aI23
aI74
aI0
aa(lp306
I209
aI693
aI0
aI7
aF0.0
aF0.34
aF0.81
aI11
aI0
aI15
aI0
aa(lp307
I1029
aI274
aI0
aI695
aF0.0
aF0.14213197969543148
aF0.4720812182741117
aI90
aI85
aI5
aI0
aa(lp308
I171
aI23
aI0
aI44
aF0.0
aF0.01
aF1.0
aI0
aI1
aI0
aI0
aa(lp309
I530
aI609
aI20
aI19
aF0.0
aF0.025
aF0.825
aI103
aI26
aI7
aI0
aa(lp310
I983
aI145
aI8
aI44
aF0.0
aF0.7788944723618091
aF0.542713567839196
aI93
aI27
aI25018
aI0
aa(lp311
I423
aI465
aI5
aI635
aF0.0
aF0.335
aF0.4
aI121
aI22
aI269282
aI0
aa(lp312
I334
aI1419
aI4
aI28
aF0.0
aF0.03333333333333333
aF0.3333333333333333
aI50
aI1
aI18
aI0
aa(lp313
I313
aI96
aI25
aI61
aF0.0
aF0.18518518518518517
aF0.05291005291005291
aI30
aI0
aI138287
aI0
aa(lp314
I284
aI387
aI2
aI4
aF0.0
aF0.1111111111111111
aF0.5
aI7
aI24
aI29
aI0
aa(lp315
I292
aI447
aI3
aI5
aF0.0
aF0.23863636363636365
aF0.4431818181818182
aI19
aI23
aI43
aI0
aa(lp316
I50706
aI1690
aI199
aI2620
aF0.0
aF0.585
aF0.885
aI869
aI1891
aI884
aI0
aa(lp317
I4021
aI5081
aI5
aI0
aF0.0
aF0.565
aF0.05
aI163
aI197
aI19
aI0
aa(lp318
I8
aI40
aI0
aI6
aF0.0
aF0.0
aF0.0
aI0
aI0
aI0
aI0
aa(lp319
I14172
aI934
aI28
aI60
aF0.0
aF0.245
aF0.815
aI180
aI382
aI166
aI0
aa(lp320
I3772
aI2799
aI98
aI4191
aF0.0
aF0.355
aF0.655
aI333
aI102
aI397
aI0
aa(lp321
I983
aI560
aI3
aI1
aF0.0
aF0.2676767676767677
aF0.04040404040404041
aI1
aI3
aI80
aI0
aa(lp322
I576
aI421
aI1
aI2
aF0.0
aF0.06666666666666667
aF0.8055555555555556
aI14
aI5
aI338
aI0
aa(lp323
I3408
aI1950
aI23
aI839
aF0.0
aF0.84
aF0.465
aI122
aI85
aI29510
aI0
aa(lp324
I563
aI1011
aI5
aI10
aF0.0
aF0.06
aF0.915
aI53
aI10
aI112
aI0
aa(lp325
I375
aI712
aI77
aI2257
aF0.0
aF0.05527638190954774
aF0.8090452261306532
aI711
aI64
aI32
aI0
aa(lp326
I5
aI20
aI0
aI0
aF0.0
aF0.0
aF0.0
aI0
aI0
aI0
aI0
aa(lp327
I74
aI822
aI80
aI0
aF0.0
aF0.0
aF0.0
aI5
aI0
aI1
aI0
aa(lp328
I215
aI805
aI198
aI4
aF0.0
aF0.4020100502512563
aF0.5527638190954773
aI68
aI29
aI36
aI0
aa(lp329
I72
aI48
aI33
aI5
aF0.0
aF0.225
aF0.775
aI6
aI1
aI227
aI0
aa(lp330
I77
aI76
aI44
aI0
aF0.0
aF0.008064516129032258
aF0.6048387096774194
aI1
aI0
aI3
aI0
aa(lp331
I303
aI452
aI0
aI4
aF0.0
aF0.13
aF0.825
aI11
aI12
aI104
aI0
aa(lp332
I140
aI309
aI19
aI0
aF0.0
aF0.0
aF1.0
aI1
aI5
aI0
aI0
aa(lp333
I1863
aI1707
aI35
aI327
aF0.0
aF0.07
aF0.76
aI77
aI24
aI40
aI0
aa(lp334
I2451
aI1888
aI77
aI1460
aF0.0
aF0.3939393939393939
aF0.6464646464646465
aI99
aI43
aI109
aI0
aa(lp335
I4237
aI3643
aI6
aI34
aF0.0
aF0.035
aF0.865
aI125
aI70
aI93
aI0
aa(lp336
I2826
aI1648
aI154
aI1526
aF0.0
aF0.085
aF0.975
aI37
aI128
aI561
aI0
aa(lp337
I710
aI1014
aI184
aI6
aF0.0
aF0.0
aF1.0
aI1
aI8
aI1
aI0
aa(lp338
I598
aI1125
aI71
aI14
aF0.0
aF0.015
aF0.93
aI21
aI16
aI17
aI0
aa(lp339
I1538
aI1857
aI0
aI62
aF0.0
aF0.583756345177665
aF0.41116751269035534
aI161
aI32
aI3045
aI0
aa(lp340
I1410
aI635
aI4
aI600
aF0.0
aF0.67
aF0.165
aI105
aI52
aI148
aI0
aa(lp341
I543
aI143
aI0
aI15
aF0.0
aF0.5
aF0.93
aI16
aI27
aI10
aI0
aa(lp342
I416
aI215
aI1
aI119
aF0.0
aF0.9025641025641026
aF0.28717948717948716
aI42
aI27
aI91522
aI0
aa(lp343
I763
aI1940
aI5
aI89
aF0.0
aF0.625
aF0.35
aI93
aI12
aI53258
aI0
aa(lp344
I1401
aI2002
aI5
aI47
aF0.0
aF0.615
aF0.81
aI86
aI25
aI225
aI0
aa(lp345
I41
aI105
aI28
aI419
aF0.0
aF0.9272727272727272
aF0.7272727272727273
aI99
aI3
aI140
aI0
aa(lp346
I192
aI627
aI7
aI0
aF0.0
aF0.11764705882352941
aF0.2647058823529412
aI12
aI10
aI3
aI0
aa(lp347
I240
aI269
aI6
aI2
aF0.0
aF0.16363636363636364
aF0.6545454545454545
aI6
aI16
aI9
aI0
aa(lp348
I626
aI966
aI4
aI0
aF0.0
aF0.315
aF0.37
aI0
aI5
aI27
aI0
aa(lp349
I150
aI236
aI15
aI17
aF0.0
aF0.25210084033613445
aF0.5966386554621849
aI21
aI9
aI54
aI0
aa(lp350
I45
aI74
aI1
aI21
aF0.0
aF0.23076923076923078
aF0.1346153846153846
aI18
aI1
aI12
aI0
aa(lp351
I159
aI112
aI199
aI2029
aF0.0
aF0.98
aF0.235
aI695
aI2
aI566
aI0
aa(lp352
I318
aI127
aI8
aI30
aF0.0
aF0.23
aF0.21
aI45
aI7
aI86
aI0
aa(lp353
I561037
aI1
aI17
aI4381
aF0.0
aF0.565
aF0.15
aI4459
aI5096
aI795
aI1
aa(lp354
I1034095
aI915
aI73
aI1390
aF0.0
aF0.39
aF0.65
aI3766
aI5492
aI4997
aI1
aa(lp355
I387214
aI1797
aI199
aI8882
aF0.0
aF0.655
aF0.735
aI186881
aI1636
aI155513
aI1
aa(lp356
I361354
aI2197
aI199
aI3983
aF0.0
aF0.825
aF0.63
aI11822
aI4931
aI19692
aI1
aa(lp357
I92322
aI807
aI198
aI15923
aF0.0
aF0.6180904522613065
aF0.5879396984924623
aI2684
aI1828
aI5957
aI1
aa(lp358
I446395
aI1256
aI199
aI6845
aF0.0
aF0.855
aF0.61
aI3562
aI3303
aI1413
aI1
aa(lp359
I3163
aI605
aI20
aI885
aF0.0
aF0.5527638190954773
aF0.45226130653266333
aI63
aI17
aI85
aI0
aa(lp360
I86128
aI9530
aI199
aI24824
aF0.0
aF0.395
aF0.685
aI161
aI1192
aI79
aI1
aa(lp361
I0
aI4
aI0
aI0
aF0.0
aF0.0
aF0.0
aI0
aI0
aI1
aI0
aa(lp362
I119150
aI12
aI199
aI203
aF0.0
aF0.965
aF0.25
aI145
aI395
aI40
aI1
aa(lp363
I6
aI130
aI3
aI1
aF0.0
aF0.0
aF1.0
aI4
aI0
aI0
aI0
aa(lp364
I4199
aI4335
aI20
aI5
aF0.0
aF0.01
aF1.0
aI45
aI71
aI33
aI0
aa(lp365
I26871
aI7624
aI0
aI26299
aF0.0
aF0.49
aF0.48
aI156
aI466
aI76
aI0
aa(lp366
I18130
aI14853
aI199
aI28325
aF0.0
aF0.375
aF0.81
aI110
aI784
aI2958632
aI0
aa(lp367
I21103
aI15166
aI0
aI1649
aF0.0
aF0.797979797979798
aF0.2777777777777778
aI177
aI100
aI248
aI0
aa(lp368
I13231
aI2618
aI183
aI1115
aF0.0
aF0.785
aF1.0
aI68
aI864
aI12
aI0
aa(lp369
I79203
aI481
aI199
aI4006
aF0.0
aF0.52
aF0.595
aI2698
aI501
aI1051
aI1
aa(lp370
I361354
aI2197
aI199
aI3983
aF0.0
aF0.825
aF0.63
aI11822
aI4931
aI19692
aI1
aa(lp371
I86128
aI9530
aI199
aI24824
aF0.0
aF0.395
aF0.685
aI161
aI1192
aI79
aI1
aa(lp372
I28047
aI15022
aI199
aI1685
aF0.0
aF0.315
aF0.65
aI126
aI256
aI148
aI0
aa(lp373
I24076
aI8221
aI44
aI4786
aF0.0
aF0.945
aF0.2
aI268
aI659
aI141
aI0
aa(lp374
I25329
aI1149
aI21
aI514
aF0.0
aF0.56
aF0.91
aI1445
aI647
aI543
aI0
aa(lp375
I5814
aI5983
aI0
aI8
aF0.0
aF0.12
aF0.875
aI35
aI12
aI16
aI0
aa(lp376
I10265
aI5200
aI113
aI1006
aF0.0
aF0.67
aF0.76
aI323
aI368
aI250534
aI0
aa(lp377
I4524
aI4206
aI11
aI194
aF0.0
aF0.15
aF0.89
aI118
aI119
aI3787
aI0
aa(lp378
I16302
aI1769
aI7
aI703
aF0.0
aF0.515
aF0.915
aI1143
aI363
aI347
aI0
aa(lp379
I4927
aI3502
aI120
aI0
aF0.0
aF0.88
aF0.8
aI106
aI151
aI89
aI0
aa(lp380
I9552
aI1539
aI12
aI391
aF0.0
aF0.41919191919191917
aF0.7171717171717171
aI316
aI373
aI347
aI0
aa(lp381
I2040
aI2232
aI98
aI0
aF0.0
aF0.51
aF0.45
aI14
aI36
aI23
aI0
aa(lp382
I10975
aI1581
aI10
aI3700
aF0.0
aF0.82
aF0.35
aI629
aI209
aI292
aI0
aa(lp383
I7922
aI929
aI77
aI1172
aF0.0
aF0.73
aF0.71
aI687
aI279
aI172
aI0
aa(lp384
I24718
aI675
aI85
aI1661
aF0.0
aF0.44
aF0.56
aI2295
aI214
aI753
aI1
aa(lp385
I4481
aI2919
aI10
aI43
aF0.0
aF0.55
aF0.445
aI185
aI45
aI202
aI0
aa(lp386
I7873
aI120
aI50
aI229
aF0.0
aF0.545
aF0.56
aI252
aI207
aI26661
aI0
aa(lp387
I1470
aI1792
aI9
aI8
aF0.0
aF0.54
aF0.795
aI160
aI46
aI88
aI0
aa(lp388
I7773
aI3796
aI199
aI3970
aF0.0
aF0.665
aF0.635
aI193
aI379
aI722
aI0
aa(lp389
I2064
aI3007
aI134
aI762
aF0.0
aF0.5
aF0.635
aI339
aI32
aI29502
aI0
aa(lp390
I612824
aI42
aI199
aI11
aF0.0
aF0.0
aF1.0
aI196
aI8163
aI64
aI1
aa(lp391
I88
aI0
aI0
aI0
aF0.0
aF1.0
aF0.0
aI0
aI6
aI0
aI0
aa(lp392
I66926
aI66349
aI13
aI153
aF0.0
aF0.085
aF0.93
aI143
aI480
aI41
aI0
aa(lp393
I35798
aI27609
aI1
aI52
aF0.0
aF0.17
aF0.845
aI47
aI571
aI224
aI0
aa(lp394
I25385
aI195
aI42
aI106
aF0.0
aF0.155
aF0.785
aI71
aI407
aI225281
aI0
aa(lp395
I60
aI13
aI2
aI0
aF0.0
aF0.0
aF1.0
aI5
aI0
aI1
aI0
aa(lp396
I22375
aI189
aI198
aI2051
aF0.0
aF0.46733668341708545
aF0.5778894472361809
aI3320
aI690
aI693
aI0
aa(lp397
I28047
aI15022
aI199
aI1685
aF0.0
aF0.315
aF0.65
aI126
aI256
aI148
aI0
aa(lp398
I10107
aI11544
aI6
aI0
aF0.0
aF0.22
aF0.8
aI14
aI107
aI8
aI0
aa(lp399
I33681
aI1512
aI199
aI5764
aF0.0
aF0.52
aF0.415
aI2510
aI345
aI997
aI0
aa(lp400
I11513
aI7015
aI87
aI1355
aF0.0
aF0.155
aF0.795
aI100
aI324
aI1479
aI0
aa(lp401
I12707
aI2341
aI191
aI1321
aF0.0
aF0.06
aF0.775
aI76
aI164
aI58
aI1
aa(lp402
I8417
aI2206
aI66
aI1248
aF0.0
aF0.68
aF0.49
aI140
aI12
aI434
aI0
aa(lp403
I5204
aI12
aI0
aI2
aF0.0
aF0.26506024096385544
aF0.9096385542168675
aI11
aI5
aI11
aI0
aa(lp404
I6027
aI4332
aI2
aI7
aF0.0
aF0.9016393442622951
aF0.13114754098360656
aI35
aI24
aI13863
aI0
aa(lp405
I9890
aI3575
aI0
aI58
aF0.0
aF0.115
aF0.75
aI184
aI55
aI185
aI0
aa(lp406
I7844
aI517
aI171
aI1455
aF0.0
aF0.295
aF0.765
aI55
aI136
aI57
aI0
aa(lp407
I1330
aI518
aI28
aI9
aF0.0
aF0.02
aF0.945
aI22
aI3
aI6
aI0
aa(lp408
I7278
aI6503
aI2
aI33
aF0.0
aF0.395
aF0.605
aI357
aI22
aI96
aI0
aa(lp409
I17892
aI3194
aI28
aI3603
aF0.0
aF0.15577889447236182
aF0.8592964824120602
aI65
aI20
aI18055
aI0
aa(lp410
I79
aI291
aI20
aI8
aF0.0
aF0.17142857142857143
aF0.9714285714285714
aI48
aI0
aI9838
aI0
aa(lp411
I98
aI229
aI0
aI20
aF0.0
aF0.4928571428571429
aF0.95
aI21
aI1
aI2886
aI0
aa(lp412
I3697
aI1948
aI199
aI1223
aF0.0
aF0.37
aF0.66
aI114
aI29
aI354
aI0
aa(lp413
I2367
aI2869
aI0
aI3
aF0.0
aF0.34
aF0.265
aI7
aI50
aI25
aI0
aa(lp414
I1470
aI1792
aI9
aI8
aF0.0
aF0.54
aF0.795
aI160
aI46
aI88
aI0
aa(lp415
I4570
aI310
aI199
aI1516
aF0.0
aF0.445
aF0.3
aI292
aI109
aI117
aI1
aa(lp416
I1827
aI165
aI1
aI8
aF0.0
aF0.195
aF0.755
aI11
aI42
aI58
aI0
aa(lp417
I1123
aI31
aI0
aI0
aF0.0
aF0.2857142857142857
aF0.0
aI7
aI26
aI4
aI0
aa(lp418
I869
aI1756
aI55
aI22
aF0.0
aF0.7857142857142857
aF0.5714285714285714
aI11
aI11
aI3440625
aI0
aa(lp419
I422
aI523
aI143
aI2
aF0.0
aF0.64
aF0.0
aI6
aI7
aI20
aI0
aa(lp420
I772
aI1318
aI17
aI3
aF0.0
aF0.515
aF0.795
aI26
aI5
aI3194
aI0
aa(lp421
I2252
aI1424
aI13
aI3
aF0.0
aF0.23529411764705882
aF0.47058823529411764
aI15
aI44
aI10
aI0
aa(lp422
I2017
aI1264
aI31
aI148
aF0.0
aF0.095
aF0.28
aI152
aI35
aI121
aI0
aa(lp423
I306
aI261
aI6
aI0
aF0.0
aF0.405
aF0.0
aI4
aI12
aI3
aI0
aa(lp424
I639
aI590
aI71
aI538
aF0.0
aF0.22
aF0.72
aI212
aI44
aI391
aI0
aa(lp425
I1920
aI956
aI1
aI87
aF0.0
aF0.415
aF0.82
aI21
aI26
aI5512
aI0
aa(lp426
I414
aI863
aI1
aI1
aF0.0
aF0.0
aF1.0
aI9
aI5
aI0
aI0
aa(lp427
I39187273
aI882
aI199
aI15363
aF0.0
aF0.29
aF0.79
aI64178
aI190527
aI51447
aI1
aa(lp428
I783587
aI343
aI53
aI292
aF0.0
aF0.61
aF0.65
aI611
aI3266
aI2198
aI1
aa(lp429
I564743
aI12999
aI199
aI1351
aF0.0
aF0.345
aF0.85
aI1328
aI6617
aI1002
aI1
aa(lp430
I2004559
aI127
aI199
aI358
aF0.0
aF0.05
aF0.615
aI2027
aI1599
aI6785
aI1
aa(lp431
I194215
aI10107
aI199
aI5050
aF0.0
aF0.575
aF0.755
aI1106
aI3084
aI2707
aI1
aa(lp432
I589364
aI49
aI199
aI1609
aF0.0
aF0.205
aF0.8
aI1094
aI1579
aI2852
aI1
aa(lp433
I21569
aI9829
aI199
aI8
aF0.0
aF0.58
aF0.705
aI124
aI554
aI347
aI0
aa(lp434
I126868
aI4512
aI4
aI111
aF0.0
aF0.035
aF0.975
aI285
aI1172
aI240
aI0
aa(lp435
I197688
aI1359
aI199
aI10957
aF0.0
aF0.08
aF0.79
aI148
aI1070
aI305
aI1
aa(lp436
I7615
aI7305
aI87
aI1
aF0.0
aF0.19
aF0.995
aI113
aI483
aI232
aI0
aa(lp437
I85064
aI919
aI199
aI3222
aF0.0
aF0.585
aF0.625
aI781
aI1259
aI373627
aI0
aa(lp438
I29489
aI50
aI199
aI92
aF0.0
aF0.0
aF1.0
aI242
aI502
aI80
aI0
aa(lp439
I2625
aI743
aI115
aI392
aF0.0
aF0.77
aF1.0
aI18
aI124
aI7
aI0
aa(lp440
I40832
aI2410
aI199
aI364
aF0.0
aF0.075
aF0.935
aI102
aI551
aI69
aI1
aa(lp441
I7920
aI839
aI76
aI201
aF0.0
aF0.89
aF0.18
aI200
aI61
aI326925
aI0
aa(lp442
I52203300
aI121
aI199
aI18
aF0.0
aF0.28
aF0.865
aI126649
aI180699
aI124545
aI1
aa(lp443
I4591154
aI2746
aI199
aI1691
aF0.0
aF0.5
aF0.91
aI5827
aI20641
aI1741
aI1
aa(lp444
I6588290
aI5847
aI199
aI5924
aF0.0
aF0.42
aF0.73
aI36935
aI24542
aI13626
aI1
aa(lp445
I1804
aI28
aI5
aI4
aF0.0
aF0.7063492063492064
aF0.15873015873015872
aI4
aI10
aI82849
aI0
aa(lp446
I1411
aI1
aI0
aI0
aF0.0
aF1.0
aF0.0
aI7
aI12
aI9
aI0
aa(lp447
I3478058
aI1399
aI199
aI630
aF0.0
aF0.015
aF1.0
aI4744
aI13851
aI2129
aI1
aa(lp448
I8031357
aI400
aI199
aI1516
aF0.0
aF0.165
aF0.96
aI26572
aI61909
aI13655
aI1
aa(lp449
I13231753
aI530
aI199
aI5873
aF0.0
aF0.24
aF0.99
aI21345
aI22242
aI6993
aI1
aa(lp450
I3451536
aI3028
aI199
aI10779
aF0.0
aF0.205
aF0.815
aI39705
aI11002
aI44355
aI1
aa(lp451
I6692300
aI1151
aI199
aI4813
aF0.0
aF0.125
aF0.9
aI10194
aI19228
aI37055
aI1
aa(lp452
I2482956
aI120480
aI93
aI168
aF0.0
aF0.525
aF0.955
aI6266
aI10076
aI5381
aI1
aa(lp453
I1226727
aI1153
aI199
aI2567
aF0.0
aF0.35
aF0.875
aI10371
aI11599
aI3438
aI1
aa(lp454
I4676836
aI1158
aI199
aI4132
aF0.0
aF0.15
aF0.96
aI16320
aI19155
aI5522
aI1
aa(lp455
I1484922
aI338
aI199
aI4309
aF0.0
aF0.51
aF1.0
aI4446
aI11623
aI1414
aI1
aa(lp456
I681772
aI437
aI199
aI2166
aF0.0
aF0.0
aF0.805
aI1473
aI8157
aI600
aI1
aa(lp457
I1596
aI3
aI0
aI0
aF0.0
aF1.0
aF0.0
aI7
aI45
aI18
aI0
aa(lp458
I1027
aI0
aI0
aI0
aF0.0
aF1.0
aF0.0
aI8
aI0
aI22
aI0
aa(lp459
I1367768
aI961
aI199
aI2994
aF0.0
aF0.07
aF0.84
aI7066
aI7478
aI7001
aI1
aa(lp460
I273401
aI3345
aI199
aI7410
aF0.0
aF0.23
aF0.875
aI12818
aI3888
aI31176
aI1
aa(lp461
I274480
aI74
aI199
aI920
aF0.0
aF0.125
aF0.995
aI3695
aI3608
aI1599
aI1
aa(lp462
I1394
aI1283
aI0
aI0
aF0.0
aF0.59
aF0.01
aI15
aI76
aI97
aI0
aa(lp463
I2856
aI29
aI4
aI0
aF0.0
aF0.7142857142857143
aF0.0
aI11
aI112
aI4
aI0
aa(lp464
I62582
aI4585
aI199
aI495
aF0.0
aF0.43
aF0.46
aI1023
aI763
aI8991
aI1
aa(lp465
I19633
aI571
aI2
aI591
aF0.0
aF0.8838383838383839
aF0.2676767676767677
aI128
aI214
aI604
aI0
aa(lp466
I129745
aI2172
aI199
aI533
aF0.0
aF0.225
aF0.98
aI3614
aI1929
aI1727
aI1
aa(lp467
I7191650
aI72648
aI199
aI2236
aF0.0
aF0.275
aF0.685
aI26438
aI64358
aI95741
aI1
aa(lp468
I1016056
aI153
aI199
aI3611
aF0.0
aF0.77
aF0.535
aI6326
aI8785
aI24445
aI1
aa(lp469
I5439
aI752
aI126
aI480
aF0.0
aF0.615
aF0.44
aI354
aI30
aI4411
aI0
aa(lp470
I52278
aI1137
aI198
aI4572
aF0.0
aF0.8090452261306532
aF0.6683417085427136
aI1301
aI1208
aI38890
aI1
aa(lp471
I3532
aI1
aI199
aI0
aF0.0
aF0.0
aF0.0
aI5
aI187
aI24
aI0
aa(lp472
I3203
aI1648
aI199
aI1454
aF0.0
aF0.115
aF0.97
aI62
aI89
aI110750
aI0
aa(lp473
I33433503
aI283
aI199
aI94
aF0.0
aF0.385
aF0.52
aI340985
aI57761
aI283772
aI1
aa(lp474
I29270
aI32862
aI0
aI0
aF0.0
aF0.01
aF0.98
aI36
aI149
aI242
aI0
aa(lp475
I12754
aI1466
aI199
aI364
aF0.0
aF0.0
aF1.0
aI240
aI533
aI57
aI1
aa(lp476
I11591
aI2937
aI5
aI6
aF0.0
aF0.39
aF0.68
aI135
aI24
aI18489
aI0
aa(lp477
I4009
aI4537
aI199
aI6
aF0.0
aF0.49
aF1.0
aI13
aI21
aI4
aI0
aa(lp478
I2183
aI440
aI90
aI7
aF0.0
aF0.0
aF0.965
aI16
aI7
aI7
aI0
aa(lp479
I6105
aI5581
aI198
aI210
aF0.0
aF0.43
aF0.995
aI68
aI138
aI237
aI0
aa(lp480
I1043
aI1393
aI0
aI24
aF0.0
aF0.4
aF0.795
aI31
aI6
aI61
aI0
aa(lp481
I1
aI0
aI12
aI0
aF0.0
aF0.0
aF0.0
aI0
aI0
aI0
aI0
aa(lp482
I6528
aI4590
aI95
aI601
aF0.0
aF0.43
aF0.855
aI229
aI104
aI124
aI0
aa(lp483
I3354
aI3146
aI3
aI204
aF0.0
aF0.69
aF0.715
aI82
aI91
aI71
aI0
aa(lp484
I1716
aI860
aI1
aI0
aF0.0
aF0.5555555555555556
aF0.20202020202020202
aI2
aI7
aI8410
aI0
aa(lp485
I984
aI1449
aI45
aI265
aF0.0
aF0.73
aF0.75
aI254
aI122
aI238
aI0
aa(lp486
I8224639
aI2683
aI199
aI0
aF0.0
aF0.715
aF0.425
aI408070
aI46807
aI781217
aI1
aa(lp487
I406278
aI2509
aI199
aI2383
aF0.0
aF0.925
aF0.29
aI1505
aI2041
aI50660
aI1
aa(lp488
I1894
aI764
aI1
aI1135
aF0.0
aF0.32160804020100503
aF0.36683417085427134
aI109
aI21
aI12975
aI0
aa(lp489
I606
aI629
aI70
aI232
aF0.0
aF0.72
aF0.85
aI30
aI36
aI490560
aI0
aa(lp490
I6199748
aI255
aI199
aI5
aF0.0
aF0.0
aF0.995
aI47595
aI37460
aI17138
aI1
aa(lp491
I818688
aI9856
aI199
aI2575
aF0.0
aF0.375
aF0.325
aI10408
aI4099
aI2487244
aI1
aa(lp492
I482157
aI1834
aI199
aI1237
aF0.0
aF0.97
aF0.695
aI10061
aI4394
aI83826
aI1
aa(lp493
I547315
aI159871
aI199
aI2797
aF0.0
aF0.955
aF0.94
aI28765
aI6728
aI8794
aI1
aa(lp494
I143023
aI1209
aI199
aI1427
aF0.0
aF0.275
aF0.93
aI1948
aI5237
aI1133
aI1
aa(lp495
I201622
aI120383
aI11
aI8546
aF0.0
aF0.8793969849246231
aF0.6381909547738693
aI1574
aI1252
aI27229
aI0
aa(lp496
I12385
aI618
aI199
aI4040
aF0.0
aF0.205
aF0.795
aI243
aI634
aI191759
aI0
aa(lp497
I538
aI512
aI0
aI2
aF0.0
aF0.23
aF0.795
aI25
aI4
aI8
aI0
aa(lp498
I462
aI1799
aI2
aI14
aF0.0
aF0.15577889447236182
aF0.864321608040201
aI20
aI2
aI4459
aI0
aa(lp499
I3759
aI1060
aI199
aI1159
aF0.0
aF0.58
aF0.925
aI206
aI165
aI6734
aI0
aa(lp500
I529
aI263
aI0
aI1
aF0.0
aF0.12562814070351758
aF0.44221105527638194
aI10
aI11
aI242
aI0
aa(lp501
I51075
aI34671
aI28
aI2160
aF0.0
aF0.7839195979899497
aF0.7839195979899497
aI1170
aI281
aI1765
aI0
aa(lp502
I5227
aI85
aI66
aI0
aF0.0
aF1.0
aF1.0
aI118
aI333
aI72
aI0
aa(lp503
I8486
aI929
aI50
aI81
aF0.0
aF0.25
aF0.95
aI140
aI358
aI37
aI0
aa(lp504
I11964
aI9041
aI13
aI83
aF0.0
aF0.22727272727272727
aF0.8535353535353535
aI134
aI24
aI2881
aI0
aa(lp505
I22997
aI4152
aI199
aI0
aF0.0
aF0.0
aF1.0
aI8
aI57
aI13
aI0
aa(lp506
I26909
aI1934
aI28
aI2312
aF0.0
aF0.895
aF0.54
aI29
aI375
aI14808
aI0
aa(lp507
I310
aI172
aI37
aI91
aF0.0
aF0.4292929292929293
aF0.46464646464646464
aI10
aI19
aI1258
aI0
aa(lp508
I856356
aI47263
aI199
aI2853
aF0.0
aF0.66
aF0.81
aI17699
aI5437
aI39989
aI1
aa(lp509
I9247629
aI2836
aI199
aI699
aF0.0
aF0.06
aF0.675
aI22357
aI129219
aI11932
aI1
aa(lp510
I46744
aI4605
aI177
aI2441
aF0.0
aF0.83
aF0.495
aI2757
aI2064
aI99275
aI1
aa(lp511
I52192
aI40467
aI6
aI0
aF0.0
aF0.0
aF1.0
aI50
aI1285
aI273
aI0
aa(lp512
I14432
aI1027
aI6
aI0
aF0.0
aF0.0
aF0.93
aI18
aI824
aI26
aI0
aa(lp513
I2825
aI67
aI0
aI49
aF0.0
aF0.43
aF0.705
aI20
aI93
aI296
aI0
aa(lp514
I11528313
aI120704
aI199
aI29059
aF0.0
aF0.04
aF0.835
aI128688
aI34759
aI42978
aI1
aa(lp515
I10693027
aI5705
aI199
aI972
aF0.0
aF0.16
aF0.88
aI51945
aI84232
aI46138
aI1
aa(lp516
I10477524
aI56
aI199
aI0
aF0.0
aF0.095
aF0.755
aI27115
aI10029
aI12579
aI1
aa(lp517
I9435691
aI118
aI199
aI129
aF0.0
aF0.0
aF1.0
aI12538
aI17352
aI3431
aI1
aa(lp518
I9537011
aI952
aI199
aI2291
aF0.0
aF0.425
aF0.965
aI11045
aI109580
aI6633
aI1
aa(lp519
I7546210
aI8
aI199
aI60
aF0.0
aF0.225
aF1.0
aI11425
aI13295
aI6795
aI1
aa(lp520
I6785545
aI25
aI199
aI99
aF0.0
aF0.135
aF0.99
aI934
aI10640
aI718
aI1
aa(lp521
I6609655
aI152
aI199
aI564
aF0.0
aF0.02
aF0.99
aI1014
aI16386
aI1835
aI1
aa(lp522
I5870652
aI3116
aI199
aI2980
aF0.0
aF0.135
aF0.84
aI129182
aI22221
aI40974
aI1
aa(lp523
I5265197
aI826
aI199
aI15990
aF0.0
aF0.41
aF0.66
aI5282
aI8506
aI1777
aI1
aa(lp524
I5007581
aI143
aI199
aI48
aF0.0
aF0.15
aF0.965
aI8347
aI17657
aI4128
aI1
aa(lp525
I4965365
aI153
aI199
aI14
aF0.0
aF0.185
aF0.92
aI10969
aI5574
aI3061
aI1
aa(lp526
I4978650
aI7548
aI199
aI43
aF0.0
aF0.575
aF0.765
aI196305
aI56286
aI294131
aI1
aa(lp527
I4685069
aI883
aI199
aI861
aF0.0
aF0.29
aF0.825
aI20959
aI20383
aI6566
aI1
aa(lp528
I4515412
aI226
aI199
aI90
aF0.0
aF0.14
aF0.98
aI4016
aI12431
aI1367
aI1
aa(lp529
I4856417
aI4
aI199
aI0
aF0.0
aF0.04
aF0.975
aI222213
aI2052
aI94033
aI1
aa(lp530
I4490753
aI10
aI199
aI36
aF0.0
aF0.195
aF0.85
aI2848
aI3140
aI3040
aI1
aa(lp531
I4274417
aI36
aI199
aI0
aF0.0
aF0.23
aF0.955
aI3710
aI3628
aI1372
aI1
aa(lp532
I3916123
aI47
aI199
aI80
aF0.0
aF0.45
aF1.0
aI781
aI5751
aI411
aI1
aa(lp533
I3608046
aI16854
aI199
aI3606
aF0.0
aF0.66
aF0.745
aI60853
aI1497
aI38165
aI1
aa(lp534
I3468306
aI183
aI199
aI2635
aF0.0
aF0.075
aF1.0
aI4833
aI22684
aI3266
aI1
aa(lp535
I3340423
aI1085
aI199
aI886
aF0.0
aF0.155
aF0.97
aI12164
aI4785
aI2016
aI1
aa(lp536
I3093302
aI379
aI199
aI8
aF0.0
aF0.055
aF0.955
aI5390
aI5811
aI2030
aI1
aa(lp537
I3084557
aI364
aI199
aI69
aF0.0
aF0.0
aF1.0
aI416
aI15699
aI340
aI1
aa(lp538
I2933658
aI552
aI199
aI30
aF0.0
aF0.51
aF0.955
aI2290
aI3720
aI1703
aI1
aa(lp539
I3025809
aI3157
aI199
aI185
aF0.0
aF0.06
aF0.755
aI2385
aI5358
aI6946
aI1
aa(lp540
I2733137
aI22739
aI199
aI177
aF0.0
aF0.005
aF0.995
aI2988
aI31076
aI2836
aI1
aa(lp541
I2761897
aI525
aI199
aI1908
aF0.0
aF0.405
aF0.925
aI2350
aI14326
aI3255
aI1
aa(lp542
I2777968
aI404
aI199
aI7167
aF0.0
aF0.39
aF0.81
aI2757
aI3501
aI1288
aI1
aa(lp543
I2674087
aI16899
aI199
aI12140
aF0.0
aF0.025
aF0.95
aI3951
aI10497
aI5046
aI1
aa(lp544
I2644238
aI15675
aI199
aI49
aF0.0
aF0.1
aF0.95
aI2971
aI31150
aI2784
aI1
aa(lp545
I2846959
aI286
aI199
aI5376
aF0.0
aF0.06
aF0.85
aI22128
aI11522
aI5715
aI1
aa(lp546
I2580084
aI202
aI199
aI256
aF0.0
aF0.125
aF0.955
aI3724
aI19235
aI2148
aI1
aa(lp547
I2628768
aI165
aI199
aI49
aF0.0
aF0.0
aF0.995
aI25840
aI35450
aI42969
aI1
aa(lp548
I2571097
aI13380
aI199
aI870
aF0.0
aF0.03
aF0.985
aI5145
aI8258
aI3650
aI0
aa(lp549
I2678960
aI840
aI199
aI26
aF0.0
aF0.0
aF1.0
aI45988
aI22553
aI27685
aI1
aa(lp550
I2615660
aI27
aI199
aI7
aF0.0
aF0.06
aF0.975
aI13161
aI38738
aI11299
aI1
aa(lp551
I2487545
aI60487
aI199
aI45
aF0.0
aF0.465
aF0.935
aI3237
aI6858
aI3293
aI1
aa(lp552
I2482956
aI120480
aI93
aI168
aF0.0
aF0.525
aF0.955
aI6266
aI10076
aI5381
aI1
aa(lp553
I2437415
aI30
aI199
aI8
aF0.0
aF0.25
aF0.9
aI2367
aI2605
aI1164
aI1
aa(lp554
I2489561
aI1371
aI199
aI410
aF0.0
aF0.145
aF0.92
aI3213
aI5087
aI2598
aI1
aa(lp555
I2440045
aI44
aI199
aI0
aF0.0
aF0.04
aF0.79
aI17425
aI2011
aI5345
aI1
aa(lp556
I2362062
aI7428
aI199
aI30
aF0.0
aF0.0
aF1.0
aI9495
aI4150
aI3747
aI1
aa(lp557
I2311711
aI21
aI199
aI0
aF0.0
aF0.0
aF1.0
aI1021
aI5649
aI771
aI1
aa(lp558
I2410285
aI583
aI199
aI614
aF0.0
aF0.015
aF0.99
aI4226
aI2155
aI4927
aI0
aa(lp559
I2343041
aI293
aI199
aI2885
aF0.0
aF0.335
aF0.84
aI3350
aI7162
aI3098
aI1
aa(lp560
I2332130
aI1109
aI199
aI16
aF0.0
aF0.1
aF0.975
aI6623
aI20515
aI6488
aI1
aa(lp561
I2341583
aI3755
aI199
aI25
aF0.0
aF0.17
aF0.995
aI1841
aI4421
aI1569
aI1
aa(lp562
I2255634
aI169
aI199
aI151
aF0.0
aF0.635
aF0.975
aI3174
aI7168
aI764
aI1
aa(lp563
I2216969
aI2
aI199
aI1
aF0.0
aF0.015
aF0.735
aI2237
aI7145
aI1100
aI1
aa(lp564
I2180706
aI195
aI199
aI2682
aF0.0
aF0.005
aF0.99
aI207
aI1991
aI136
aI1
aa(lp565
I2355281
aI325
aI199
aI9
aF0.0
aF0.06
aF0.985
aI24727
aI13302
aI14206
aI1
aa(lp566
I2142264
aI1212
aI199
aI161
aF0.0
aF0.075
aF0.955
aI1687
aI6278
aI1238
aI1
aa(lp567
I2075714
aI140
aI199
aI71
aF0.0
aF0.39
aF0.79
aI7784
aI24798
aI12147
aI1
aa(lp568
I2100095
aI188
aI199
aI492
aF0.0
aF0.165
aF0.77
aI7147
aI28352
aI4660
aI1
aa(lp569
I2061868
aI9899
aI199
aI268
aF0.0
aF0.145
aF1.0
aI3659
aI4920
aI2273
aI1
aa(lp570
I2067253
aI2408
aI199
aI711
aF0.0
aF0.28
aF0.875
aI12175
aI11866
aI11320
aI1
aa(lp571
I2023360
aI35
aI199
aI0
aF0.0
aF0.045
aF0.665
aI1141
aI1754
aI1715
aI1
aa(lp572
I1983683
aI0
aI199
aI944
aF0.0
aF0.15
aF0.895
aI52370
aI1551
aI13580
aI1
aa(lp573
I2004560
aI127
aI199
aI358
aF0.0
aF0.05
aF0.615
aI2028
aI1599
aI6786
aI1
aa(lp574
I1950338
aI76
aI199
aI234
aF0.0
aF0.56
aF0.825
aI1541
aI16459
aI7337
aI1
aa(lp575
I1972826
aI291
aI199
aI2379
aF0.0
aF0.05
aF0.965
aI3185
aI6919
aI2308
aI1
aa(lp576
I1945287
aI24315
aI199
aI382
aF0.0
aF0.73
aF0.895
aI21317
aI2540
aI58237
aI1
aa(lp577
I1944410
aI28
aI199
aI1451
aF0.0
aF0.165
aF0.94
aI4093
aI9406
aI2774
aI1
aa(lp578
I1892234
aI195
aI199
aI33
aF0.0
aF0.15
aF0.905
aI2130
aI16373
aI2769
aI1
aa(lp579
I1860634
aI794
aI199
aI11384
aF0.0
aF0.06
aF0.725
aI11199
aI8725
aI6698
aI1
aa(lp580
I1820350
aI3684
aI199
aI1160
aF0.0
aF0.04
aF0.995
aI8547
aI18982
aI6957
aI1
aa(lp581
I1835590
aI986
aI199
aI280
aF0.0
aF0.455
aF0.775
aI1720
aI3795
aI1265
aI1
aa(lp582
I1809727
aI11283
aI199
aI3101
aF0.0
aF0.305
aF0.905
aI22751
aI16538
aI17148
aI1
aa(lp583
I1785674
aI867
aI199
aI1143
aF0.0
aF0.49
aF0.97
aI8344
aI9023
aI3938
aI1
aa(lp584
I1763633
aI501109
aI199
aI303
aF0.0
aF0.0
aF1.0
aI1653
aI5408
aI1225
aI1
aa(lp585
I1720717
aI954
aI199
aI292
aF0.0
aF0.335
aF0.925
aI3559
aI19466
aI11113
aI1
aa(lp586
I1860404
aI989972
aI199
aI4874
aF0.0
aF0.3
aF0.845
aI4237
aI12042
aI13296
aI1
aa(lp587
I1758419
aI27
aI29
aI4
aF0.0
aF0.075
aF0.835
aI12089
aI6041
aI8422
aI1
aa(lp588
I1685821
aI2894
aI199
aI199
aF0.0
aF0.245
aF0.87
aI6093
aI3841
aI7104
aI1
aa(lp589
I1656886
aI48
aI199
aI952
aF0.0
aF0.21
aF0.435
aI52450
aI14289
aI24024
aI1
aa(lp590
I1680551
aI25
aI199
aI182
aF0.0
aF0.12
aF0.915
aI17110
aI2235
aI14444
aI1
aa(lp591
I1586989
aI570
aI199
aI707
aF0.0
aF0.0
aF0.97
aI46
aI1335
aI58
aI0
aa(lp592
I1581776
aI1032
aI199
aI662
aF0.0
aF0.94
aF0.85
aI5688
aI27701
aI11999
aI1
aa(lp593
I1598420
aI54810
aI199
aI32388
aF0.0
aF0.18
aF0.91
aI2285
aI4514
aI1177
aI1
aa(lp594
I1571899
aI1
aI199
aI0
aF0.0
aF0.17
aF0.04
aI13039
aI2770
aI7637
aI1
aa(lp595
I1489653
aI313
aI199
aI1318
aF0.0
aF0.13
aF0.97
aI4575
aI25862
aI2565
aI1
aa(lp596
I1466644
aI102
aI199
aI1225
aF0.0
aF0.2
aF0.99
aI1847
aI5778
aI1499
aI1
aa(lp597
I1546383
aI8769
aI199
aI4013
aF0.0
aF0.275
aF0.805
aI3558
aI3833
aI5351
aI1
aa(lp598
I133618
aI1126
aI199
aI7233
aF0.0
aF0.315
aF0.745
aI1456
aI825
aI3446
aI1
aa(lp599
I29159
aI2975
aI128
aI204
aF0.0
aF0.815
aF0.265
aI379
aI754
aI2574
aI0
aa(lp600
I1119
aI0
aI0
aI0
aF0.0
aF1.0
aF1.0
aI6
aI24
aI4
aI0
aa(lp601
I2356
aI786
aI166
aI628
aF0.0
aF0.665
aF0.665
aI282
aI133
aI626
aI0
aa(lp602
I2720
aI1282
aI167
aI626
aF0.0
aF0.605
aF0.63
aI177
aI152
aI1542
aI0
aa(lp603
I8384
aI71
aI145
aI1440
aF0.0
aF0.7638190954773869
aF0.37185929648241206
aI562
aI98
aI1614
aI0
aa(lp604
I3952
aI1392
aI41
aI1163
aF0.0
aF0.5628140703517588
aF0.457286432160804
aI4458
aI200
aI3508
aI0
aa(lp605
I993235
aI3870
aI199
aI467
aF0.0
aF0.565
aF0.76
aI25176
aI8219
aI46608
aI1
aa(lp606
I31077
aI2966
aI199
aI254
aF0.0
aF0.64
aF0.795
aI1177
aI1016
aI2382
aI1
aa(lp607
I6582
aI1416
aI199
aI20224
aF0.0
aF0.86
aF0.365
aI361
aI357
aI148259
aI0
aa(lp608
I800
aI295
aI8
aI84
aF0.0
aF0.845
aF0.52
aI100
aI48
aI648
aI0
aa(lp609
I217630
aI1691
aI23
aI446
aF0.0
aF0.53
aF0.385
aI503
aI3915
aI659
aI1
aa(lp610
I11216
aI827
aI199
aI189
aF0.0
aF0.705
aF0.715
aI343
aI178
aI709
aI1
aa(lp611
I514965
aI104887
aI155
aI2421
aF0.0
aF0.67
aF0.64
aI1277
aI6540
aI973
aI1
aa(lp612
I2032
aI1174
aI199
aI330
aF0.0
aF0.21
aF0.94
aI43
aI53
aI2306
aI0
aa(lp613
I2664
aI314
aI66
aI194
aF0.0
aF0.46
aF0.69
aI104
aI117
aI3014
aI0
aa(lp614
I26378
aI2179
aI199
aI2658
aF0.0
aF0.65
aF0.595
aI669
aI829
aI1111
aI1
aa(lp615
I4157
aI293
aI90
aI592
aF0.0
aF0.585
aF0.605
aI855
aI168
aI48661
aI1
aa(lp616
I90814
aI539
aI199
aI1837
aF0.0
aF0.84
aF0.445
aI3804
aI1014
aI272735
aI1
aa(lp617
I3205
aI1272
aI151
aI2093
aF0.0
aF0.805
aF0.69
aI660
aI191
aI484
aI0
aa(lp618
I1306985
aI1089
aI199
aI3124
aF0.0
aF0.745
aF0.6
aI12791
aI7217
aI11307
aI1
aa(lp619
I11878
aI3281
aI14
aI2316
aF0.0
aF0.75
aF0.065
aI2310
aI59
aI1190
aI1
aa(lp620
I921
aI1183
aI45
aI322
aF0.0
aF0.5628140703517588
aF0.4623115577889447
aI99
aI24
aI1224
aI0
aa(lp621
I11293
aI1161
aI199
aI848
aF0.0
aF0.455
aF0.765
aI442
aI390
aI3082
aI0
aa(lp622
I36701
aI143
aI58
aI84
aF0.0
aF0.6
aF0.66
aI1716
aI470
aI6534
aI0
aa(lp623
I46881
aI1589
aI199
aI2398
aF0.0
aF0.855
aF0.58
aI695
aI2610
aI1292
aI1
aa(lp624
I947
aI692
aI5
aI276
aF0.0
aF0.36683417085427134
aF0.4623115577889447
aI818
aI11
aI438
aI0
aa(lp625
I44549
aI3388
aI199
aI11107
aF0.0
aF0.69
aF0.65
aI733
aI1270
aI1733
aI1
aa(lp626
I605763
aI1824
aI199
aI2847
aF0.0
aF0.815
aF0.56
aI1848
aI10098
aI4225
aI1
aa(lp627
I6325
aI506
aI199
aI588
aF0.0
aF0.35
aF0.81
aI976
aI291
aI3026
aI1
aa(lp628
I5508
aI523
aI11
aI847
aF0.0
aF0.91
aF0.31
aI240
aI152
aI2242
aI0
aa(lp629
I264
aI47
aI96
aI4
aF0.0
aF0.005
aF0.93
aI36
aI2
aI18
aI0
aa(lp630
I8717
aI327
aI199
aI37
aF0.0
aF0.745
aF0.84
aI184
aI385
aI419
aI0
aa(lp631
I1059
aI512
aI10
aI824
aF0.0
aF0.76
aF0.615
aI159
aI104
aI249
aI0
aa(lp632
I1558
aI1245
aI50
aI654
aF0.0
aF0.43
aF0.665
aI81
aI77
aI438
aI0
aa(lp633
I210
aI117
aI5
aI12
aF0.0
aF0.22784810126582278
aF0.08860759493670886
aI72
aI3
aI62
aI0
aa(lp634
I1008
aI696
aI198
aI625
aF0.0
aF0.949748743718593
aF0.21105527638190955
aI61
aI66
aI10417
aI0
aa(lp635
I32869
aI2521
aI138
aI245
aF0.0
aF0.58
aF0.735
aI2239
aI684
aI2850
aI1
aa(lp636
I4133
aI1056
aI42
aI373
aF0.0
aF0.53
aF0.76
aI670
aI217
aI1078
aI0
aa(lp637
I39
aI107
aI2
aI12
aF0.0
aF0.14814814814814814
aF0.2962962962962963
aI2
aI0
aI5
aI0
aa(lp638
I7558
aI3565
aI199
aI3292
aF0.0
aF0.555
aF0.64
aI590
aI204
aI646
aI1
aa(lp639
I227
aI21
aI0
aI0
aF0.0
aF1.0
aF1.0
aI8
aI2
aI6
aI0
aa(lp640
I4073
aI491
aI198
aI2007
aF0.0
aF0.5628140703517588
aF0.5979899497487438
aI139
aI231
aI722
aI0
aa(lp641
I1800
aI835
aI27
aI29
aF0.0
aF0.12
aF0.795
aI125
aI171
aI168
aI0
aa(lp642
I13095
aI1832
aI21
aI411
aF0.0
aF0.735
aF0.63
aI138
aI829
aI4850
aI0
aa(lp643
I2314
aI570
aI192
aI526
aF0.0
aF0.745
aF0.665
aI274
aI79
aI7915
aI0
aa(lp644
I20301
aI1389
aI199
aI3177
aF0.0
aF0.58
aF0.61
aI2063
aI534
aI2763
aI1
aa(lp645
I3557
aI1103
aI159
aI1928
aF0.0
aF0.545
aF0.67
aI596
aI114
aI793
aI1
aa(lp646
I2176
aI766
aI144
aI1317
aF0.0
aF0.51
aF0.67
aI584
aI72
aI6630
aI0
aa(lp647
I12914
aI2319
aI166
aI2096
aF0.0
aF0.425
aF0.82
aI1006
aI737
aI9172
aI0
aa(lp648
I42155
aI1947
aI199
aI383
aF0.0
aF0.49
aF0.94
aI1808
aI1301
aI5942
aI1
aa(lp649
I334
aI299
aI8
aI72
aF0.0
aF0.42857142857142855
aF0.4
aI86
aI11
aI194
aI0
aa(lp650
I1692731
aI3776
aI199
aI6175
aF0.0
aF0.475
aF0.77
aI26470
aI18689
aI1726344
aI1
aa(lp651
I959355
aI5692
aI199
aI24484
aF0.0
aF0.64
aF0.565
aI25866
aI2895
aI22738
aI1
aa(lp652
I10002
aI445
aI199
aI1599
aF0.0
aF0.48
aF0.72
aI1216
aI272
aI10352
aI1
aa(lp653
I10945
aI204
aI28
aI675
aF0.0
aF0.84
aF0.21
aI378
aI389
aI1035
aI0
aa(lp654
I3897
aI851
aI60
aI1849
aF0.0
aF0.075
aF0.42
aI539
aI180
aI367
aI0
aa(lp655
I255116
aI11612
aI199
aI6506
aF0.0
aF0.575
aF0.43
aI898
aI3502
aI636
aI1
aa(lp656
I3459739
aI16848
aI199
aI992
aF0.0
aF0.85
aF0.405
aI2799
aI20659
aI121130
aI1
aa(lp657
I7062
aI3734
aI192
aI493
aF0.0
aF0.53
aF0.7
aI313
aI429
aI606
aI0
aa(lp658
I4512
aI1591
aI158
aI4532
aF0.0
aF0.605
aF0.38
aI735
aI104
aI691
aI1
aa(lp659
I27142
aI1550
aI199
aI1018
aF0.0
aF0.815
aF0.6
aI472
aI1055
aI2987
aI0
aa(lp660
I2719
aI352
aI24
aI928
aF0.0
aF0.045
aF0.81
aI34
aI36
aI29
aI0
aa(lp661
I11700
aI1752
aI199
aI5295
aF0.0
aF0.5
aF0.82
aI510
aI407
aI913
aI0
aa(lp662
I884
aI567
aI29
aI114
aF0.0
aF0.42
aF0.69
aI124
aI60
aI625
aI0
aa(lp663
I14507
aI943
aI199
aI1172
aF0.0
aF0.405
aF0.805
aI372
aI325
aI1335
aI0
aa(lp664
I8515
aI272
aI199
aI2
aF0.0
aF0.93
aF0.555
aI219
aI218
aI6408
aI0
aa(lp665
I127761
aI1591
aI199
aI4239
aF0.0
aF0.575
aF0.765
aI611
aI3614
aI2203
aI1
aa(lp666
I265
aI71
aI2
aI12
aF0.0
aF0.4117647058823529
aF0.6535947712418301
aI42
aI13
aI354
aI0
aa(lp667
I16629
aI3626
aI199
aI2826
aF0.0
aF0.57
aF0.645
aI376
aI630
aI407
aI0
aa(lp668
I29285
aI1538
aI199
aI2621
aF0.0
aF0.5
aF0.695
aI2974
aI396
aI2494
aI0
aa(lp669
I377242
aI2516
aI199
aI9482
aF0.0
aF0.42
aF0.805
aI4052
aI2875
aI3701
aI1
aa(lp670
I9058
aI1162
aI139
aI785
aF0.0
aF0.65
aF0.545
aI533
aI256
aI6497
aI0
aa(lp671
I1111092
aI940
aI199
aI24570
aF0.0
aF0.765
aF0.835
aI3791
aI15056
aI16140
aI1
aa(lp672
I369
aI555
aI15
aI388
aF0.0
aF0.20512820512820512
aF0.841025641025641
aI107
aI25
aI194
aI0
aa(lp673
I9715
aI1687
aI199
aI1125
aF0.0
aF0.655
aF0.92
aI957
aI422
aI1142
aI1
aa(lp674
I11790
aI183
aI33
aI55
aF0.0
aF0.415
aF0.565
aI30629
aI230
aI6459
aI1
aa(lp675
I2444
aI2078
aI199
aI27328
aF0.0
aF0.645
aF0.11
aI730
aI17
aI91536
aI0
aa(lp676
I14526
aI620
aI188
aI586
aF0.0
aF0.69
aF0.47
aI709
aI400
aI5089
aI0
aa(lp677
I98969
aI1210
aI199
aI5447
aF0.0
aF0.775
aF0.415
aI1375
aI1714
aI9136
aI1
aa(lp678
I10264
aI2335
aI125
aI689
aF0.0
aF0.76
aF0.535
aI501
aI770
aI4359
aI0
aa(lp679
I2595
aI482
aI199
aI1683
aF0.0
aF0.53
aF0.655
aI323
aI115
aI3974
aI0
aa(lp680
I240796
aI846
aI199
aI6839
aF0.0
aF0.395
aF0.81
aI914
aI1849
aI704
aI1
aa(lp681
I100364
aI164
aI5
aI237
aF0.0
aF0.4175257731958763
aF0.3247422680412371
aI20374
aI705
aI33933
aI1
aa(lp682
I18
aI1
aI0
aI0
aF0.0
aF1.0
aF1.0
aI0
aI1
aI0
aI0
aa(lp683
I59346
aI1076
aI38
aI14186
aF0.0
aF0.7085427135678392
aF0.5025125628140703
aI1554
aI707
aI1409
aI1
aa(lp684
I21838
aI1532
aI131
aI4302
aF0.0
aF0.405
aF0.815
aI1712
aI618
aI1395
aI0
aa(lp685
I457
aI565
aI7
aI136
aF0.0
aF0.7121212121212122
aF0.45454545454545453
aI394
aI3
aI4782
aI0
aa(lp686
I146599
aI3373
aI199
aI406
aF0.0
aF0.8
aF0.64
aI486
aI4824
aI260430
aI1
aa(lp687
I1460
aI905
aI199
aI122
aF0.0
aF0.89
aF0.4
aI21
aI90
aI8435
aI0
aa(lp688
I833179
aI1109
aI199
aI12772
aF0.0
aF0.375
aF0.77
aI4350
aI11257
aI9588
aI1
aa(lp689
I5437
aI905
aI199
aI3967
aF0.0
aF0.925
aF0.43
aI173
aI121
aI7052
aI0
aa(lp690
I287753
aI907
aI199
aI4877
aF0.0
aF0.215
aF0.92
aI3101
aI3984
aI1679
aI1
aa(lp691
I68520
aI9824
aI199
aI11451
aF0.0
aF0.35
aF0.785
aI4172
aI1243
aI4127
aI1
aa(lp692
I1157
aI1925
aI199
aI1899
aF0.0
aF0.47
aF0.78
aI201
aI66
aI4652
aI0
aa(lp693
I6199
aI480
aI199
aI591
aF0.0
aF0.82
aF0.545
aI488
aI208
aI1710792
aI0
aa(lp694
I167493
aI739
aI199
aI3151
aF0.0
aF0.87
aF0.26
aI516
aI258
aI907
aI0
aa(lp695
I3057
aI1016
aI40
aI254
aF0.0
aF0.7272727272727273
aF0.51010101010101
aI117
aI148
aI3677
aI0
aa(lp696
I188691
aI9552
aI199
aI3304
aF0.0
aF0.57
aF0.685
aI4039
aI3877
aI9147
aI1
aa(lp697
I7766
aI3626
aI18
aI359
aF0.0
aF0.46
aF0.885
aI399
aI231
aI446
aI0
aa(lp698
I117392
aI1387
aI199
aI1405
aF0.0
aF0.605
aF0.745
aI1651
aI3069
aI4536
aI1
aa(lp699
I27967
aI1097
aI198
aI292
aF0.0
aF0.6130653266331658
aF0.6934673366834171
aI1396
aI739
aI6493
aI1
aa(lp700
I19065
aI870
aI57
aI1023
aF0.0
aF0.4321608040201005
aF0.2914572864321608
aI931
aI477
aI850
aI0
aa(lp701
I55
aI189
aI22
aI55
aF0.0
aF0.3783783783783784
aF0.7702702702702703
aI33
aI1
aI79
aI0
aa(lp702
I638246
aI3288
aI199
aI1770
aF0.0
aF0.705
aF0.725
aI1338
aI5847
aI3919
aI1
aa(lp703
I21013
aI1978
aI191
aI2567
aF0.0
aF0.57
aF0.82
aI604
aI764
aI405
aI0
aa(lp704
I9009
aI2317
aI199
aI3974
aF0.0
aF0.67
aF0.85
aI311
aI338
aI1092
aI0
aa(lp705
I54963
aI655
aI112
aI672
aF0.0
aF0.165
aF0.76
aI165
aI60
aI100
aI0
aa(lp706
I26790
aI357
aI108
aI676
aF0.0
aF0.365
aF0.75
aI2124
aI487
aI5703
aI1
aa(lp707
I15447
aI3747
aI199
aI1599
aF0.0
aF0.44
aF0.775
aI440
aI496
aI682
aI0
aa(lp708
I6016
aI1963
aI199
aI2322
aF0.0
aF0.49
aF0.69
aI444
aI208
aI440
aI1
aa(lp709
I11564
aI914
aI199
aI3009
aF0.0
aF0.415
aF0.76
aI876
aI358
aI1413
aI1
aa(lp710
I150452
aI1449
aI199
aI26198
aF0.0
aF0.635
aF0.715
aI1352
aI3468
aI948
aI1
aa(lp711
I10403272
aI524
aI199
aI3804
aF0.0
aF0.375
aF0.94
aI68208
aI55022
aI40243
aI1
aa(lp712
I9213
aI962
aI177
aI1711
aF0.0
aF0.455
aF0.625
aI54
aI222
aI6047
aI0
aa(lp713
I6620
aI2277
aI94
aI962
aF0.0
aF0.7889447236180904
aF0.5125628140703518
aI246
aI357
aI355
aI1
aa(lp714
I167184
aI1265
aI199
aI3004
aF0.0
aF0.395
aF0.73
aI8057
aI3440
aI19753
aI1
aa(lp715
I5740
aI1741
aI199
aI4970
aF0.0
aF0.45
aF0.82
aI304
aI127
aI1019
aI0
aa(lp716
I79297
aI534
aI199
aI1292
aF0.0
aF0.655
aF0.565
aI580
aI3135
aI1126
aI1
aa(lp717
I63563
aI114
aI65
aI12
aF0.0
aF0.045
aF0.8
aI147
aI198
aI140
aI0
aa(lp718
I46298
aI1328
aI150
aI5511
aF0.0
aF0.525
aF0.78
aI1635
aI1271
aI3171
aI1
aa(lp719
I43728
aI604
aI148
aI729
aF0.0
aF0.655
aF0.745
aI4306
aI1124
aI5119
aI1
aa(lp720
I396080
aI3858
aI199
aI4830
aF0.0
aF0.3
aF0.92
aI1218
aI3409
aI1249
aI1
aa(lp721
I1209969
aI40426
aI199
aI2999
aF0.0
aF0.545
aF0.62
aI3042
aI5076
aI2130
aI1
aa(lp722
I3729727
aI6
aI199
aI1174
aF0.0
aF0.555
aF0.655
aI59225
aI16262
aI54582
aI1
aa(lp723
I6061
aI525
aI92
aI65
aF0.0
aF0.53
aF0.44
aI122
aI98
aI503
aI1
aa(lp724
I4204
aI1015
aI164
aI3067
aF0.0
aF0.2727272727272727
aF0.4696969696969697
aI1159
aI139
aI1707
aI1
aa(lp725
I921
aI1183
aI45
aI322
aF0.0
aF0.5628140703517588
aF0.4623115577889447
aI99
aI24
aI1224
aI0
aa(lp726
I0
aI0
aI0
aI0
aF0.0
aF0.0
aF0.0
aI0
aI0
aI0
aI0
aa(lp727
I2382
aI2154
aI199
aI1282
aF0.0
aF0.66
aF0.685
aI345
aI106
aI2020
aI1
aa(lp728
I29159
aI2975
aI128
aI204
aF0.0
aF0.815
aF0.265
aI379
aI754
aI2574
aI0
aa(lp729
I479128
aI383
aI199
aI3223
aF0.0
aF0.77
aF0.655
aI722
aI5105
aI1414
aI1
aa(lp730
I2356
aI786
aI166
aI628
aF0.0
aF0.665
aF0.665
aI282
aI133
aI626
aI0
aa(lp731
I2720
aI1282
aI167
aI626
aF0.0
aF0.605
aF0.63
aI177
aI152
aI1542
aI0
aa(lp732
I8384
aI71
aI145
aI1440
aF0.0
aF0.7638190954773869
aF0.37185929648241206
aI562
aI98
aI1614
aI0
aa(lp733
I876
aI2349
aI26
aI269
aF0.0
aF0.88
aF0.95
aI149
aI9
aI94
aI0
aa(lp734
I18
aI6
aI199
aI11
aF0.0
aF0.105
aF0.845
aI22
aI0
aI11
aI0
aa(lp735
I51
aI25
aI70
aI35
aF0.0
aF0.6619718309859155
aF0.5070422535211268
aI341
aI0
aI577
aI0
aa(lp736
I993237
aI3870
aI199
aI467
aF0.0
aF0.565
aF0.76
aI25176
aI8219
aI46608
aI1
aa(lp737
I3823200
aI6497
aI199
aI3129
aF0.0
aF0.625
aF0.65
aI25030
aI18263
aI46274
aI1
aa(lp738
I19278
aI1761
aI145
aI327
aF0.0
aF0.79
aF0.31
aI2158
aI226
aI2181
aI1
aa(lp739
I6801
aI3647
aI109
aI3027
aF0.0
aF0.78
aF0.45
aI167
aI225
aI4762
aI0
aa(lp740
I2864
aI477
aI199
aI1814
aF0.0
aF0.78
aF0.415
aI210
aI123
aI11311
aI0
aa(lp741
I31077
aI2966
aI199
aI254
aF0.0
aF0.64
aF0.795
aI1177
aI1016
aI2382
aI1
aa(lp742
I217630
aI1691
aI23
aI446
aF0.0
aF0.53
aF0.385
aI503
aI3915
aI659
aI1
aa(lp743
I514965
aI104887
aI155
aI2421
aF0.0
aF0.67
aF0.64
aI1277
aI6540
aI973
aI1
aa(lp744
I2664
aI314
aI66
aI194
aF0.0
aF0.46
aF0.69
aI104
aI117
aI3014
aI0
aa(lp745
I3530
aI934
aI157
aI530
aF0.0
aF0.425
aF0.755
aI197
aI123
aI373
aI0
aa(lp746
I4157
aI293
aI90
aI592
aF0.0
aF0.585
aF0.605
aI855
aI168
aI48661
aI1
aa(lp747
I0
aI6
aI0
aI1
aF0.0
aF1.0
aF1.0
aI0
aI0
aI421
aI0
aa(lp748
I3205
aI1272
aI151
aI2093
aF0.0
aF0.805
aF0.69
aI660
aI191
aI484
aI0
aa(lp749
I1306985
aI1089
aI199
aI3124
aF0.0
aF0.745
aF0.6
aI12791
aI7217
aI11307
aI1
aa(lp750
I393
aI122
aI42
aI1045
aF0.0
aF0.865
aF0.47
aI140
aI14
aI73910
aI0
aa(lp751
I36389
aI8150
aI199
aI1941
aF0.0
aF0.285
aF0.855
aI973
aI1649
aI1623
aI1
aa(lp752
I921
aI1183
aI45
aI322
aF0.0
aF0.5628140703517588
aF0.4623115577889447
aI99
aI24
aI1224
aI0
aa(lp753
I11293
aI1161
aI199
aI848
aF0.0
aF0.455
aF0.765
aI442
aI390
aI3082
aI0
aa(lp754
I36701
aI143
aI58
aI84
aF0.0
aF0.6
aF0.66
aI1716
aI470
aI6534
aI0
aa(lp755
I46881
aI1589
aI199
aI2398
aF0.0
aF0.855
aF0.58
aI695
aI2610
aI1292
aI1
aa(lp756
I44549
aI3388
aI199
aI11107
aF0.0
aF0.69
aF0.65
aI733
aI1270
aI1733
aI1
aa(lp757
I6440
aI3639
aI132
aI1578
aF0.0
aF0.68
aF0.565
aI134
aI339
aI1440
aI0
aa(lp758
I605763
aI1824
aI199
aI2847
aF0.0
aF0.815
aF0.56
aI1849
aI10098
aI4226
aI1
aa(lp759
I6325
aI506
aI199
aI588
aF0.0
aF0.35
aF0.81
aI976
aI291
aI3026
aI1
aa(lp760
I43919
aI1924
aI199
aI3359
aF0.0
aF0.58
aF0.595
aI2351
aI827
aI5337
aI1
aa(lp761
I416
aI787
aI42
aI132
aF0.0
aF0.76
aF0.475
aI87
aI14
aI4950
aI0
aa(lp762
I264
aI47
aI96
aI4
aF0.0
aF0.005
aF0.93
aI36
aI2
aI18
aI0
aa(lp763
I8717
aI327
aI199
aI37
aF0.0
aF0.745
aF0.84
aI184
aI385
aI419
aI0
aa(lp764
I1059
aI512
aI10
aI824
aF0.0
aF0.76
aF0.615
aI159
aI104
aI249
aI0
aa(lp765
I22314
aI2300
aI199
aI8409
aF0.0
aF0.685
aF0.635
aI384
aI491
aI22474
aI1
aa(lp766
I1172
aI1005
aI43
aI476
aF0.0
aF0.89
aF0.26
aI168
aI23
aI2275
aI0
aa(lp767
I708
aI267
aI10
aI342
aF0.0
aF0.5376884422110553
aF0.628140703517588
aI613
aI21
aI559
aI0
aa(lp768
I1032
aI1287
aI61
aI23
aF0.0
aF0.835
aF0.355
aI188
aI30
aI864
aI0
aa(lp769
I210
aI117
aI5
aI12
aF0.0
aF0.22784810126582278
aF0.08860759493670886
aI72
aI3
aI62
aI0
aa(lp770
I1893
aI1633
aI138
aI1957
aF0.0
aF0.7537688442211056
aF0.5577889447236181
aI816
aI38
aI2525
aI0
aa(lp771
I1223
aI446
aI22
aI108
aF0.0
aF0.54
aF0.46
aI173
aI51
aI519
aI0
aa(lp772
I476
aI160
aI8
aI16
aF0.0
aF0.785
aF0.13
aI53
aI14
aI32915
aI0
aa(lp773
I390
aI557
aI65
aI470
aF0.0
aF0.9547738693467337
aF0.2613065326633166
aI109
aI9
aI3873
aI0
aa(lp774
I1008
aI696
aI198
aI625
aF0.0
aF0.949748743718593
aF0.21105527638190955
aI61
aI66
aI10417
aI0
aa(lp775
I32869
aI2521
aI138
aI245
aF0.0
aF0.58
aF0.735
aI2239
aI684
aI2850
aI1
aa(lp776
I4133
aI1056
aI42
aI373
aF0.0
aF0.53
aF0.76
aI670
aI217
aI1078
aI0
aa(lp777
I1118
aI1025
aI112
aI264
aF0.0
aF0.61
aF0.395
aI206
aI10
aI3047
aI0
aa(lp778
I444
aI299
aI31
aI315
aF0.0
aF0.806282722513089
aF0.14136125654450263
aI34
aI7
aI3749
aI0
aa(lp779
I980
aI1033
aI129
aI6354
aF0.0
aF0.75
aF0.3
aI176
aI35
aI16389
aI0
aa(lp780
I504
aI423
aI0
aI339
aF0.0
aF0.5
aF0.415
aI111
aI7
aI59
aI0
aa(lp781
I297
aI462
aI20
aI307
aF0.0
aF0.9278350515463918
aF0.4639175257731959
aI42
aI14
aI3525
aI0
aa(lp782
I6727
aI541
aI1
aI1111
aF0.0
aF0.665
aF0.57
aI129
aI55
aI3232
aI0
aa(lp783
I27981
aI2927
aI30
aI1
aF0.0
aF0.34
aF0.7
aI5888
aI267
aI4287
aI1
aa(lp784
I4073
aI491
aI198
aI2007
aF0.0
aF0.5628140703517588
aF0.5979899497487438
aI139
aI231
aI722
aI0
aa(lp785
I1392
aI473
aI18
aI499
aF0.0
aF0.445
aF0.845
aI627
aI56
aI10118
aI0
aa(lp786
I20301
aI1389
aI199
aI3177
aF0.0
aF0.58
aF0.61
aI2063
aI534
aI2763
aI1
aa(lp787
I293
aI255
aI15
aI26
aF0.0
aF0.05
aF0.965
aI9
aI11
aI847
aI0
aa(lp788
I12914
aI2319
aI166
aI2096
aF0.0
aF0.425
aF0.82
aI1006
aI737
aI9172
aI0
aa(lp789
I42155
aI1947
aI199
aI383
aF0.0
aF0.49
aF0.94
aI1808
aI1301
aI5942
aI1
aa(lp790
I2339
aI364
aI55
aI8
aF0.0
aF0.755
aF0.595
aI253
aI64
aI5319
aI0
aa(lp791
I334
aI299
aI8
aI72
aF0.0
aF0.42857142857142855
aF0.4
aI86
aI11
aI194
aI0
aa(lp792
I22
aI20
aI5
aI3
aF0.0
aF0.5
aF0.65
aI5
aI0
aI79
aI0
aa(lp793
I1692732
aI3776
aI199
aI6175
aF0.0
aF0.475
aF0.77
aI26473
aI18689
aI1726347
aI1
aa(lp794
I54070
aI4532
aI199
aI1993
aF0.0
aF0.385
aF0.625
aI2229
aI1147
aI1908
aI1
aa(lp795
I32700
aI7404
aI199
aI24258
aF0.0
aF0.825
aF0.695
aI1120
aI1012
aI38394
aI1
aa(lp796
I959355
aI5692
aI199
aI24484
aF0.0
aF0.64
aF0.565
aI25866
aI2895
aI22738
aI1
aa(lp797
I3968
aI1217
aI199
aI2396
aF0.0
aF0.575
aF0.59
aI1303
aI74
aI33737
aI1
aa(lp798
I2015
aI977
aI7
aI42
aF0.0
aF0.375
aF0.555
aI128
aI90
aI285
aI0
aa(lp799
I7581
aI5613
aI199
aI2172
aF0.0
aF0.585
aF0.72
aI831
aI188
aI9230
aI1
aa(lp800
I25042
aI3929
aI135
aI7066
aF0.0
aF0.725
aF0.33
aI6936
aI412
aI9735
aI1
aa(lp801
I255116
aI11612
aI199
aI6506
aF0.0
aF0.575
aF0.43
aI898
aI3502
aI636
aI1
aa(lp802
I3459742
aI16848
aI199
aI992
aF0.0
aF0.85
aF0.405
aI2799
aI20659
aI121144
aI1
aa(lp803
I4512
aI1591
aI158
aI4532
aF0.0
aF0.605
aF0.38
aI735
aI104
aI691
aI1
aa(lp804
I27142
aI1550
aI199
aI1018
aF0.0
aF0.815
aF0.6
aI472
aI1055
aI2987
aI0
aa(lp805
I11700
aI1752
aI199
aI5295
aF0.0
aF0.5
aF0.82
aI510
aI407
aI913
aI0
aa(lp806
I884
aI567
aI29
aI114
aF0.0
aF0.42
aF0.69
aI124
aI60
aI625
aI0
aa(lp807
I449
aI606
aI141
aI52
aF0.0
aF0.78
aF0.555
aI36
aI13
aI2669
aI0
aa(lp808
I127761
aI1591
aI199
aI4239
aF0.0
aF0.575
aF0.765
aI611
aI3614
aI2203
aI1
aa(lp809
I16629
aI3626
aI199
aI2826
aF0.0
aF0.57
aF0.645
aI376
aI630
aI407
aI0
aa(lp810
I29285
aI1538
aI199
aI2621
aF0.0
aF0.5
aF0.695
aI2974
aI396
aI2494
aI0
aa(lp811
I377242
aI2516
aI199
aI9482
aF0.0
aF0.42
aF0.805
aI4052
aI2875
aI3701
aI1
aa(lp812
I9058
aI1162
aI139
aI785
aF0.0
aF0.65
aF0.545
aI533
aI256
aI6497
aI0
aa(lp813
I29
aI56
aI2
aI60
aF0.0
aF0.5217391304347826
aF0.30434782608695654
aI30
aI0
aI0
aI0
aa(lp814
I9715
aI1687
aI199
aI1125
aF0.0
aF0.655
aF0.92
aI957
aI422
aI1142
aI1
aa(lp815
I98970
aI1210
aI199
aI5447
aF0.0
aF0.775
aF0.415
aI1375
aI1714
aI9136
aI1
aa(lp816
I10264
aI2335
aI125
aI689
aF0.0
aF0.76
aF0.535
aI501
aI770
aI4359
aI0
aa(lp817
I59346
aI1076
aI38
aI14186
aF0.0
aF0.7085427135678392
aF0.5025125628140703
aI1554
aI707
aI1409
aI1
aa(lp818
I21838
aI1532
aI131
aI4302
aF0.0
aF0.405
aF0.815
aI1712
aI618
aI1395
aI0
aa(lp819
I457
aI565
aI7
aI136
aF0.0
aF0.7121212121212122
aF0.45454545454545453
aI394
aI3
aI4782
aI0
aa(lp820
I146599
aI3373
aI199
aI406
aF0.0
aF0.8
aF0.64
aI486
aI4824
aI260446
aI1
aa(lp821
I1460
aI905
aI199
aI122
aF0.0
aF0.89
aF0.4
aI21
aI90
aI8435
aI0
aa(lp822
I833179
aI1109
aI199
aI12772
aF0.0
aF0.375
aF0.77
aI4350
aI11257
aI9588
aI1
aa(lp823
I287753
aI907
aI199
aI4877
aF0.0
aF0.215
aF0.92
aI3101
aI3984
aI1679
aI1
aa(lp824
I43982
aI1283
aI199
aI3822
aF0.0
aF0.675
aF0.585
aI634
aI1283
aI1771
aI1
aa(lp825
I68521
aI9824
aI199
aI11451
aF0.0
aF0.35
aF0.785
aI4172
aI1243
aI4127
aI1
aa(lp826
I1157
aI1925
aI199
aI1899
aF0.0
aF0.47
aF0.78
aI201
aI66
aI4652
aI0
aa(lp827
I167493
aI739
aI199
aI3151
aF0.0
aF0.87
aF0.26
aI516
aI258
aI907
aI0
aa(lp828
I188690
aI9552
aI199
aI3304
aF0.0
aF0.57
aF0.685
aI4039
aI3877
aI9147
aI1
aa(lp829
I117392
aI1387
aI199
aI1405
aF0.0
aF0.605
aF0.745
aI1651
aI3069
aI4536
aI1
aa(lp830
I27967
aI1097
aI198
aI292
aF0.0
aF0.6130653266331658
aF0.6934673366834171
aI1396
aI739
aI6493
aI1
aa(lp831
I19065
aI870
aI57
aI1023
aF0.0
aF0.4321608040201005
aF0.2914572864321608
aI931
aI477
aI850
aI0
aa(lp832
I55
aI189
aI22
aI55
aF0.0
aF0.3783783783783784
aF0.7702702702702703
aI33
aI1
aI79
aI0
aa(lp833
I9009
aI2317
aI199
aI3974
aF0.0
aF0.67
aF0.85
aI311
aI338
aI1092
aI0
aa(lp834
I26790
aI357
aI108
aI676
aF0.0
aF0.365
aF0.75
aI2124
aI487
aI5703
aI1
aa(lp835
I901
aI305
aI11
aI248
aF0.0
aF0.6180904522613065
aF0.41708542713567837
aI45
aI15
aI1074
aI0
aa(lp836
I11564
aI914
aI199
aI3009
aF0.0
aF0.415
aF0.76
aI876
aI358
aI1413
aI1
aa(lp837
I150452
aI1449
aI199
aI26198
aF0.0
aF0.635
aF0.715
aI1352
aI3468
aI948
aI1
aa(lp838
I41819
aI831
aI199
aI7837
aF0.0
aF0.54
aF0.74
aI928
aI644
aI1079
aI1
aa(lp839
I6620
aI2277
aI94
aI962
aF0.0
aF0.7889447236180904
aF0.5125628140703518
aI246
aI357
aI355
aI1
aa(lp840
I8759
aI983
aI166
aI522
aF0.0
aF0.71
aF0.69
aI793
aI270
aI3133
aI1
aa(lp841
I5740
aI1741
aI199
aI4970
aF0.0
aF0.45
aF0.82
aI304
aI127
aI1019
aI0
aa(lp842
I79298
aI534
aI199
aI1292
aF0.0
aF0.655
aF0.565
aI580
aI3135
aI1126
aI1
aa(lp843
I63563
aI114
aI65
aI12
aF0.0
aF0.045
aF0.8
aI147
aI198
aI140
aI0
aa(lp844
I46298
aI1328
aI150
aI5511
aF0.0
aF0.525
aF0.78
aI1635
aI1271
aI3171
aI1
aa(lp845
I43728
aI604
aI148
aI729
aF0.0
aF0.655
aF0.745
aI4306
aI1124
aI5118
aI1
aa(lp846
I396080
aI3858
aI199
aI4830
aF0.0
aF0.3
aF0.92
aI1218
aI3408
aI1249
aI1
aa(lp847
I1209970
aI40426
aI199
aI2999
aF0.0
aF0.545
aF0.62
aI3042
aI5076
aI2130
aI1
aa(lp848
I80935
aI210
aI9
aI459
aF0.0
aF0.335
aF0.69
aI641
aI231
aI1960
aI0
aa(lp849
I6061
aI525
aI92
aI65
aF0.0
aF0.53
aF0.44
aI122
aI98
aI503
aI1
aa(lp850
I1285878
aI5514
aI199
aI13956
aF0.0
aF0.68
aF0.495
aI678416
aI13225
aI515328
aI1
aa(lp851
I11194
aI2541
aI199
aI1528
aF0.0
aF0.37
aF0.52
aI724
aI270
aI23325
aI0
aa(lp852
I3864736
aI1345
aI199
aI5386
aF0.0
aF0.705
aF0.385
aI22767
aI23172
aI46877
aI1
aa(lp853
I6319571
aI24832
aI199
aI2827
aF0.0
aF0.52
aF0.58
aI68666
aI26361
aI80885
aI1
aa(lp854
I14042
aI839
aI199
aI711
aF0.0
aF0.86
aF0.35
aI325
aI284
aI9749
aI1
aa(lp855
I10443
aI552
aI117
aI1339
aF0.0
aF0.795
aF0.575
aI1692
aI291
aI8609
aI1
aa(lp856
I4632
aI1639
aI199
aI855
aF0.0
aF0.505
aF0.685
aI240
aI189
aI2855
aI0
aa(lp857
I5999
aI1062
aI48
aI712
aF0.0
aF0.695
aF0.7
aI1046
aI178
aI13484
aI0
aa(lp858
I2286
aI1190
aI99
aI125
aF0.0
aF0.31
aF0.77
aI293
aI87
aI612
aI0
aa(lp859
I102921503
aI205
aI197
aI5765
aF0.0
aF0.6363636363636364
aF0.5404040404040404
aI1723872
aI141566
aI553692
aI1
aa(lp860
I99816978
aI305909
aI55
aI3438
aF0.0
aF0.505
aF0.52
aI21144138
aI615845
aI10880289
aI1
aa(lp861
I94169329
aI628389
aI9
aI10
aF0.0
aF0.245
aF0.655
aI24716756
aI224561
aI6492901
aI1
aa(lp862
I85456942
aI0
aI6
aI8
aF0.0
aF0.14285714285714285
aF0.2857142857142857
aI1389755
aI121852
aI553260
aI1
aa(lp863
I76822910
aI1126
aI24
aI999
aF0.0
aF0.5326633165829145
aF0.4472361809045226
aI6463068
aI100382
aI2618446
aI1
aa(lp864
I72446238
aI36041
aI199
aI469
aF0.0
aF0.39
aF0.355
aI4186157
aI106295
aI1139316
aI1
aa(lp865
I69275848
aI129055
aI116
aI1447
aF0.0
aF0.53
aF0.5
aI3673120
aI226231
aI1420454
aI1
aa(lp866
I61865244
aI242
aI30
aI41
aF0.0
aF0.595
aF0.525
aI2198741
aI75492
aI723980
aI1
aa(lp867
I57766024
aI96
aI86
aI0
aF0.0
aF0.215
aF0.285
aI12274823
aI86838
aI2702396
aI1
aa(lp868
I55289064
aI390704
aI45
aI2369
aF0.0
aF0.195
aF0.16
aI2689643
aI122412
aI561292
aI1
aa(lp869
I55083430
aI114
aI199
aI5
aF0.0
aF0.6
aF0.485
aI1282474
aI79656
aI410793
aI1
aa(lp870
I51552015
aI1262
aI99
aI166
aF0.0
aF0.43
aF0.605
aI9754201
aI133149
aI3726290
aI1
aa(lp871
I51273385
aI65495
aI164
aI32466
aF0.0
aF0.195
aF0.75
aI16672817
aI53381
aI4764835
aI1
aa(lp872
I48870828
aI7709
aI184
aI39
aF0.0
aF0.65
aF0.435
aI659322
aI68046
aI182745
aI1
aa(lp873
I47128288
aI205
aI199
aI1208
aF0.0
aF0.65
aF0.48
aI680835
aI101536
aI132139
aI1
aa(lp874
I47726347
aI550
aI199
aI1636
aF0.0
aF0.66
aF0.495
aI4248526
aI101080
aI1406471
aI1
aa(lp875
I42631686
aI1733
aI199
aI6479
aF0.0
aF0.54
aF0.22
aI356564
aI53437
aI61571
aI1
aa(lp876
I38314980
aI284
aI100
aI148
aF0.0
aF0.685
aF0.18
aI300506
aI89700
aI66076
aI1
aa(lp877
I37875885
aI174
aI123
aI80
aF0.0
aF0.46
aF0.54
aI4792897
aI42120
aI4243907
aI1
aa(lp878
I37933855
aI183
aI79
aI21
aF0.0
aF0.37
aF0.88
aI1229863
aI121226
aI362035
aI1
aa(lp879
I34725181
aI550
aI199
aI77
aF0.0
aF0.37
aF0.58
aI758905
aI23311
aI278679
aI1
aa(lp880
I36949079
aI45
aI199
aI13
aF0.0
aF0.315
aF0.265
aI13003870
aI75069
aI3494177
aI1
aa(lp881
I35605009
aI371
aI196
aI106
aF0.0
aF0.72
aF0.465
aI4144499
aI58408
aI1001719
aI1
aa(lp882
I33323109
aI1780
aI199
aI0
aF0.0
aF0.415
aF0.365
aI2238839
aI21234
aI540659
aI1
aa(lp883
I33428348
aI109
aI142
aI123
aF0.0
aF0.135678391959799
aF0.7487437185929648
aI2517632
aI37013
aI615035
aI1
aa(lp884
I32944397
aI5957
aI199
aI253
aF0.0
aF0.7
aF0.195
aI9506954
aI118769
aI3582223
aI1
aa(lp885
I31071591
aI2046
aI22
aI64
aF0.0
aF0.24
aF0.355
aI51873818
aI166641
aI31056932
aI1
aa(lp886
I31245073
aI47
aI40
aI12
aF0.0
aF0.25
aF0.18
aI1306933
aI37195
aI555044
aI1
aa(lp887
I31472603
aI823
aI198
aI51
aF0.0
aF0.542713567839196
aF0.37185929648241206
aI2164852
aI28578
aI920605
aI1
aa(lp888
I31879971
aI748
aI66
aI796
aF0.0
aF0.6
aF0.285
aI4888728
aI49200
aI1086184
aI1
aa(lp889
I28635079
aI157
aI5
aI0
aF0.0
aF0.25
aF0.38
aI3901670
aI32786
aI1601730
aI1
aa(lp890
I30031242
aI439
aI199
aI360
aF0.0
aF0.48
aF0.6
aI533955
aI64924
aI1577626
aI1
aa(lp891
I28829716
aI1158
aI199
aI58
aF0.0
aF0.65
aF0.27
aI414098
aI30393
aI38597
aI1
aa(lp892
I27938684
aI354
aI53
aI71
aF0.0
aF0.425
aF0.425
aI458681
aI69764
aI236969
aI1
aa(lp893
I27405281
aI130
aI105
aI1
aF0.0
aF0.29
aF0.44
aI315962
aI38616
aI71647
aI1
aa(lp894
I27345527
aI111
aI46
aI177
aF0.0
aF0.505
aF0.67
aI1141042
aI60092
aI185149
aI1
aa(lp895
I27786757
aI689
aI60
aI219
aF0.0
aF0.54
aF0.49
aI612120
aI51617
aI217993
aI1
aa(lp896
I27395324
aI81
aI199
aI17
aF0.0
aF0.175
aF0.795
aI2086415
aI29373
aI454468
aI1
aa(lp897
I27131275
aI3798
aI150
aI158
aF0.0
aF0.63
aF0.075
aI17039096
aI101633
aI7707733
aI1
aa(lp898
I26808426
aI16540
aI181
aI519
aF0.0
aF0.75
aF0.3
aI7917884
aI102807
aI3570619
aI1
aa(lp899
I26121102
aI366
aI6
aI1005
aF0.0
aF0.78
aF0.405
aI3446111
aI45820
aI1390896
aI1
aa(lp900
I25611629
aI2682
aI107
aI1101
aF0.0
aF0.425
aF0.445
aI572742
aI23639
aI175597
aI1
aa(lp901
I25277840
aI1
aI104
aI0
aF0.0
aF0.09
aF0.12
aI2136961
aI87858
aI383190
aI1
aa(lp902
I24765089
aI311
aI199
aI128
aF0.0
aF0.55
aF0.49
aI588004
aI35613
aI55811
aI1
aa(lp903
I24976689
aI23
aI46
aI0
aF0.0
aF0.41
aF0.38
aI5216020
aI28801
aI947315
aI1
aa(lp904
I23886263
aI123
aI58
aI3984
aF0.0
aF0.515
aF0.455
aI3668930
aI17893
aI1178832
aI1
aa(lp905
I22852216
aI69
aI176
aI2080
aF0.0
aF0.3
aF0.695
aI383270
aI29908
aI111833
aI1
aa(lp906
I23241984
aI2271
aI13
aI310
aF0.0
aF0.35858585858585856
aF0.3939393939393939
aI11934354
aI125862
aI5435707
aI1
aa(lp907
I22571432
aI1167
aI198
aI207
aF0.0
aF0.6432160804020101
aF0.2964824120603015
aI1414209
aI13108
aI266185
aI1
aa(lp908
I21877580
aI266
aI191
aI1787
aF0.0
aF0.955
aF0.41
aI218866
aI29050
aI741458
aI1
aa(lp909
I21734275
aI9
aI13
aI15
aF0.0
aF0.085
aF0.255
aI1967043
aI20292
aI481796
aI1
aa(lp910
I22301956
aI1
aI192
aI627
aF0.0
aF0.3768844221105528
aF0.6733668341708543
aI1125850
aI45270
aI405383
aI1
aa(lp911
I21094921
aI4872
aI199
aI59656
aF0.0
aF0.415
aF0.51
aI1041650
aI63233
aI439214
aI1
aa(lp912
I21117775
aI0
aI11
aI0
aF0.0
aF0.7587939698492462
aF0.6482412060301508
aI1378198
aI59630
aI689919
aI1
aa(lp913
I21104349
aI149
aI12
aI47
aF0.0
aF0.4723618090452261
aF0.7035175879396985
aI1041513
aI46813
aI403556
aI1
aa(lp914
I19912387
aI714
aI89
aI39
aF0.0
aF0.495
aF0.41
aI699502
aI18143
aI126104
aI1
aa(lp915
I20002270
aI74
aI72
aI6
aF0.0
aF0.51
aF0.735
aI646914
aI21658
aI133262
aI1
aa(lp916
I19692855
aI25
aI199
aI309
aF0.0
aF0.325
aF0.79
aI1629598
aI14723
aI255873
aI1
aa(lp917
I18710185
aI774
aI158
aI409
aF0.0
aF0.615
aF0.435
aI252958
aI74377
aI119333
aI1
aa(lp918
I18763481
aI95
aI90
aI834
aF0.0
aF0.5
aF0.53
aI385195
aI44592
aI127664
aI1
aa(lp919
I18808971
aI525
aI199
aI1093
aF0.0
aF0.89
aF0.83
aI407083
aI29481
aI121204
aI1
aa(lp920
I18657944
aI402
aI36
aI636
aF0.0
aF0.46
aF0.45
aI845937
aI41321
aI258739
aI1
aa(lp921
I18736002
aI5
aI199
aI30
aF0.0
aF0.37
aF0.49
aI213268
aI31594
aI300228
aI1
aa(lp922
I18233750
aI144
aI101
aI40
aF0.0
aF0.85
aF0.68
aI638670
aI36870
aI438487
aI1
aa(lp923
I18480617
aI88
aI33
aI78
aF0.0
aF0.38
aF0.675
aI860318
aI17071
aI118603
aI1
aa(lp924
I17585134
aI141
aI28
aI0
aF0.0
aF0.775
aF0.14
aI209340
aI15919
aI150327
aI1
aa(lp925
I18393436
aI78
aI86
aI39
aF0.0
aF0.7
aF0.64
aI2546677
aI22917
aI319178
aI1
aa(lp926
I17333141
aI2744
aI199
aI2210
aF0.0
aF0.25
aF0.965
aI207594
aI43958
aI52669
aI1
aa(lp927
I17775884
aI762
aI44
aI1169
aF0.0
aF0.33
aF0.545
aI15692870
aI38458
aI5216925
aI1
aa(lp928
I17913293
aI78
aI67
aI10
aF0.0
aF0.285
aF0.295
aI1865647
aI34690
aI409746
aI1
aa(lp929
I17312647
aI1226
aI157
aI7696
aF0.0
aF0.38
aF0.425
aI738467
aI31997
aI463455
aI1
aa(lp930
I16800278
aI1067
aI4
aI1456
aF0.0
aF0.44
aF0.44
aI132929
aI10810
aI107783
aI1
aa(lp931
I17509694
aI46
aI67
aI67
aF0.0
aF0.555
aF0.34
aI5220963
aI6607
aI643166
aI1
aa(lp932
I16658580
aI36
aI199
aI0
aF0.0
aF0.0
aF0.0
aI18777
aI15393
aI16602
aI1
aa(lp933
I16593431
aI562
aI199
aI737
aF0.0
aF0.7
aF0.405
aI167352
aI39621
aI56640
aI1
aa(lp934
I16456259
aI24
aI10
aI10
aF0.0
aF0.475
aF0.61
aI722819
aI20504
aI397614
aI1
aa(lp935
I16748034
aI1447
aI199
aI83
aF0.0
aF0.845
aF0.17
aI1171570
aI24033
aI356318
aI1
aa(lp936
I16785453
aI207
aI199
aI345
aF0.0
aF0.16
aF0.205
aI357558
aI18717
aI553584
aI1
aa(lp937
I17300738
aI77
aI67
aI21
aF0.0
aF0.615
aF0.335
aI2459635
aI15111
aI809104
aI1
aa(lp938
I16177987
aI1
aI20
aI9
aF0.0
aF0.36683417085427134
aF0.19095477386934673
aI1271655
aI57878
aI405720
aI1
aa(lp939
I15920227
aI718
aI199
aI394
aF0.0
aF0.16
aF0.865
aI69608
aI49345
aI12317
aI1
aa(lp940
I15797724
aI755
aI199
aI50
aF0.0
aF0.2
aF0.27
aI135360
aI11389
aI36329
aI1
aa(lp941
I15676744
aI191
aI199
aI344
aF0.0
aF0.665
aF0.385
aI72442
aI22670
aI78563
aI1
aa(lp942
I16086877
aI550
aI54
aI84
aF0.0
aF0.45
aF0.475
aI2146860
aI28899
aI1451087
aI1
aa(lp943
I15948980
aI6443
aI199
aI12603
aF0.0
aF0.38
aF0.345
aI1619881
aI52578
aI650307
aI1
aa(lp944
I15681953
aI71
aI197
aI439
aF0.0
aF0.425
aF0.555
aI721484
aI28744
aI205172
aI1
aa(lp945
I15875685
aI1
aI87
aI47
aF0.0
aF0.36
aF0.63
aI796774
aI11260
aI163875
aI1
aa(lp946
I15987280
aI436
aI75
aI719
aF0.0
aF0.685
aF0.34
aI2176423
aI30388
aI967661
aI1
aa(lp947
I15120658
aI9
aI0
aI0
aF0.0
aF0.1
aF0.7
aI435057
aI33683
aI316743
aI1
aa(lp948
I14640578
aI688
aI126
aI66
aF0.0
aF0.65
aF0.545
aI461489
aI48599
aI262017
aI1
aa(lp949
I14985260
aI38
aI197
aI7
aF0.0
aF0.7676767676767676
aF0.10606060606060606
aI2184808
aI69830
aI706980
aI1
aa(lp950
I14368778
aI1199
aI199
aI7132
aF0.0
aF0.52
aF0.295
aI202987
aI36919
aI361916
aI1
aa(lp951
I14251424
aI901
aI198
aI10935
aF0.0
aF0.4321608040201005
aF0.47738693467336685
aI40556
aI34237
aI14854
aI1
aa(lp952
I14187076
aI101
aI36
aI1015
aF0.0
aF0.55
aF0.425
aI2559591
aI9096
aI469433
aI1
aa(lp953
I14446103
aI0
aI25
aI0
aF0.0
aF0.0
aF0.16
aI3723231
aI81767
aI2166098
aI1
aa(lp954
I14143158
aI590
aI91
aI63
aF0.0
aF0.525
aF0.67
aI959008
aI13873
aI227634
aI1
aa(lp955
I13967468
aI24
aI25
aI0
aF0.0
aF0.07
aF0.36
aI1509507
aI46745
aI285884
aI1
aa(lp956
I13761878
aI206
aI191
aI4332
aF0.0
aF0.27835051546391754
aF0.38144329896907214
aI390232
aI42417
aI1850247
aI1
aa(lp957
I13395811
aI569
aI199
aI6893
aF0.0
aF0.475
aF0.45
aI14444
aI22774
aI1978
aI1
aa(lp958
I13844792
aI8
aI68
aI0
aF0.0
aF0.015
aF0.015
aI5835887
aI14787
aI2588829
aI1
aa(lp959
I13761878
aI206
aI191
aI4332
aF0.0
aF0.27835051546391754
aF0.38144329896907214
aI390233
aI42417
aI1850247
aI1
aa(lp960
I13752950
aI398
aI199
aI1980
aF0.0
aF0.285
aF0.41
aI309260
aI15419
aI309649
aI1
aa(lp961
I13683386
aI78
aI56
aI17
aF0.0
aF0.47
aF0.33
aI1512399
aI23011
aI401265
aI1
aa(lp962
I13649992
aI1430
aI84
aI126
aF0.0
aF0.601010101010101
aF0.5656565656565656
aI72021
aI23482
aI264098
aI1
aa(lp963
I13367335
aI419
aI157
aI0
aF0.0
aF0.785
aF0.265
aI373308
aI32838
aI886552
aI1
aa(lp964
I13328016
aI286
aI25
aI48
aF0.0
aF0.175
aF0.205
aI3306000
aI12239
aI892634
aI1
aa(lp965
I13016917
aI136
aI35
aI0
aF0.0
aF0.315
aF0.42
aI1613488
aI6519
aI227314
aI1
aa(lp966
I13007507
aI1048
aI199
aI789
aF0.0
aF0.46
aF0.42
aI77237
aI9023
aI91649
aI1
aa(lp967
I12832873
aI397
aI170
aI96
aF0.0
aF0.105
aF0.975
aI34317
aI27341
aI3438
aI1
aa(lp968
I12804953
aI50568
aI138
aI224
aF0.0
aF0.6
aF0.54
aI462912
aI57334
aI793470
aI1
aa(lp969
I12804336
aI2825
aI43
aI500
aF0.0
aF0.445
aF0.465
aI524964
aI16965
aI129038
aI1
aa(lp970
I12715440
aI2780
aI14
aI26
aF0.0
aF0.215
aF0.105
aI1506831
aI12236
aI825407
aI1
aa(lp971
I12711379
aI1196
aI199
aI28415
aF0.0
aF0.83
aF0.325
aI138032
aI29182
aI101839
aI1
aa(lp972
I12686534
aI55
aI60
aI50
aF0.0
aF0.325
aF0.635
aI254222
aI19118
aI42669
aI1
aa(lp973
I12678302
aI264
aI199
aI26203
aF0.0
aF0.51
aF0.23
aI431962
aI44754
aI212782
aI1
aa(lp974
I12679439
aI8
aI69
aI0
aF0.0
aF0.015
aF0.015
aI7927576
aI25929
aI2498401
aI1
aa(lp975
I12622666
aI12426
aI173
aI33904
aF0.0
aF0.215
aF0.12
aI6014301
aI16775
aI1278338
aI1
aa(lp976
I12566450
aI1839
aI199
aI4159
aF0.0
aF0.545
aF0.48
aI826837
aI33794
aI528185
aI1
aa(lp977
I12426706
aI328
aI77
aI7
aF0.0
aF0.5728643216080402
aF0.5326633165829145
aI2276919
aI15986
aI3977522
aI1
aa(lp978
I12407653
aI572
aI52
aI1116
aF0.0
aF0.47
aF0.425
aI178132
aI28908
aI546541
aI1
aa(lp979
I12394413
aI2228
aI101
aI14344
aF0.0
aF0.515
aF0.39
aI1279052
aI11301
aI2425492
aI1
aa(lp980
I12351117
aI60206
aI181
aI6310
aF0.0
aF0.49246231155778897
aF0.2864321608040201
aI12835372
aI16493
aI4209193
aI1
aa(lp981
I12294356
aI294
aI199
aI7882
aF0.0
aF0.875
aF0.25
aI16798
aI7775
aI38175
aI1
aa(lp982
I12231055
aI346
aI199
aI160
aF0.0
aF0.6
aF0.48
aI42408
aI51900
aI13028
aI1
aa(lp983
I12154160
aI3656
aI48
aI586
aF0.0
aF0.45
aF0.305
aI423280
aI22804
aI4000765
aI1
aa(lp984
I12145543
aI425
aI199
aI128
aF0.0
aF0.52
aF0.545
aI701244
aI12445
aI79761
aI1
aa(lp985
I12126125
aI172
aI41
aI679
aF0.0
aF0.365
aF0.36
aI516357
aI39450
aI209820
aI1
aa(lp986
I12090184
aI186
aI199
aI209
aF0.0
aF0.81
aF0.275
aI180592
aI5415
aI171096
aI1
aa(lp987
I12075580
aI503
aI199
aI16242
aF0.0
aF0.79
aF0.365
aI2586086
aI35974
aI2395445
aI1
aa(lp988
I11974876
aI47
aI199
aI605
aF0.0
aF0.735
aF0.385
aI1805667
aI37378
aI464665
aI1
aa(lp989
I11886647
aI116
aI33
aI0
aF0.0
aF0.32160804020100503
aF0.1708542713567839
aI661357
aI19360
aI185442
aI1
aa(lp990
I11871199
aI133
aI199
aI2537
aF0.0
aF0.56
aF0.375
aI1934574
aI8756
aI332313
aI1
aa(lp991
I11821627
aI711
aI113
aI33
aF0.0
aF0.465
aF0.36
aI2086560
aI25185
aI612973
aI1
aa(lp992
I11814632
aI134
aI87
aI346
aF0.0
aF0.58
aF0.555
aI932316
aI6106
aI149334
aI1
aa(lp993
I11783562
aI65
aI89
aI16
aF0.0
aF0.42
aF0.43
aI376246
aI34027
aI50356
aI1
aa(lp994
I11769199
aI149
aI199
aI118
aF0.0
aF0.6
aF0.74
aI495286
aI30585
aI84847
aI1
aa(lp995
I11749983
aI114
aI199
aI4396
aF0.0
aF0.785
aF0.35
aI54296
aI7114
aI26344
aI1
aa(lp996
I11738734
aI392
aI199
aI346
aF0.0
aF0.86
aF0.145
aI129127
aI14660
aI13035
aI1
aa(lp997
I11593041
aI690
aI114
aI4880
aF0.0
aF0.49
aF0.58
aI977753
aI54658
aI282045
aI1
aa(lp998
I11532759
aI3910
aI199
aI4800
aF0.0
aF0.42
aF0.53
aI466691
aI14804
aI448017
aI1
aa(lp999
I11524075
aI390
aI199
aI2779
aF0.0
aF0.515
aF0.315
aI115595
aI27474
aI48858
aI1
aa(lp1000
I11483662
aI514
aI12
aI441
aF0.0
aF0.5939086294416244
aF0.3553299492385787
aI1586002
aI23706
aI1316070
aI1
aa(lp1001
I11435973
aI1132
aI57
aI1906
aF0.0
aF0.45
aF0.55
aI27900
aI22610
aI47584
aI1
aa(lp1002
I11341415
aI3842
aI199
aI4
aF0.0
aF0.35
aF0.92
aI64332
aI48069
aI19704
aI1
aa(lp1003
I11249686
aI1527
aI199
aI83
aF0.0
aF0.9
aF0.06
aI935
aI28039
aI432
aI1
aa(lp1004
I11152100
aI0
aI4
aI423
aF0.0
aF0.355
aF0.66
aI453249
aI31028
aI154825
aI1
aa(lp1005
I10990495
aI86957
aI24
aI2194
aF0.0
aF0.27638190954773867
aF0.271356783919598
aI425943
aI11056
aI111712
aI1
aa(lp1006
I10979544
aI185
aI3
aI21
aF0.0
aF0.125
aF0.375
aI6781
aI9349
aI5428
aI1
aa(lp1007
I10885719
aI2
aI136
aI4
aF0.0
aF0.23
aF0.315
aI3193397
aI10952
aI1034139
aI1
aa(lp1008
I10855249
aI54
aI71
aI0
aF0.0
aF0.385
aF0.435
aI1956000
aI14442
aI438650
aI1
aa(lp1009
I96
aI364
aI21
aI49
aF0.0
aF0.705
aF0.78
aI73
aI16
aI9975
aI0
aa(lp1010
I304
aI241
aI29
aI1551
aF0.0
aF0.83
aF0.275
aI69
aI0
aI4300575
aI0
aa(lp1011
I14
aI129
aI0
aI6
aF0.0
aF0.8333333333333334
aF0.8333333333333334
aI1
aI0
aI64391
aI0
aa(lp1012
I575
aI293
aI103
aI1332
aF0.0
aF0.585
aF0.225
aI107
aI9
aI99855
aI0
aa(lp1013
I22
aI115
aI2
aI3
aF0.0
aF1.0
aF0.3333333333333333
aI0
aI0
aI16018
aI0
aa(lp1014
I166
aI327
aI0
aI67
aF0.0
aF0.6263736263736264
aF0.6153846153846154
aI27
aI0
aI14029
aI0
aa(lp1015
I7
aI233
aI2
aI86
aF0.0
aF0.36
aF0.32
aI10
aI0
aI0
aI0
aa(lp1016
I123
aI27
aI12
aI65
aF0.0
aF0.8461538461538461
aF0.3076923076923077
aI1
aI0
aI4488
aI0
aa(lp1017
I158
aI255
aI18
aI224
aF0.0
aF0.8247422680412371
aF0.19072164948453607
aI43
aI2
aI12491
aI0
aa(lp1018
I15
aI129
aI0
aI0
aF0.0
aF0.25
aF0.5
aI0
aI0
aI0
aI0
aa(lp1019
I22
aI519
aI7
aI5
aF0.0
aF0.125
aF0.0
aI4
aI0
aI1
aI0
aa(lp1020
I68
aI59
aI0
aI0
aF0.0
aF0.688
aF0.072
aI3
aI0
aI11880
aI0
aa(lp1021
I142
aI886
aI0
aI5
aF0.0
aF0.10526315789473684
aF0.15789473684210525
aI6
aI0
aI181
aI0
aa(lp1022
I89
aI260
aI3
aI46
aF0.0
aF0.4672897196261682
aF0.037383177570093455
aI10
aI0
aI7903
aI0
aa(lp1023
I83
aI221
aI0
aI38
aF0.0
aF0.21
aF0.125
aI3
aI0
aI55167
aI0
aa(lp1024
I326
aI319
aI33
aI1601
aF0.0
aF0.61
aF0.81
aI21
aI10
aI2389
aI0
aa(lp1025
I371
aI250
aI7
aI345
aF0.0
aF0.4720812182741117
aF0.4416243654822335
aI28
aI19
aI235780
aI0
aa(lp1026
I144
aI213
aI4
aI177
aF0.0
aF0.7674418604651163
aF0.09302325581395349
aI29
aI0
aI144130
aI0
aa(lp1027
I587
aI1088
aI2
aI33
aF0.0
aF0.31
aF0.6
aI48
aI3
aI7790
aI0
aa(lp1028
I4
aI97
aI2
aI4
aF0.0
aF0.3333333333333333
aF0.3333333333333333
aI1
aI0
aI0
aI0
aa(lp1029
I15
aI105
aI0
aI16
aF0.0
aF0.0
aF1.0
aI0
aI0
aI0
aI0
aa(lp1030
I47
aI133
aI6
aI44
aF0.0
aF0.7777777777777778
aF0.0
aI2
aI0
aI0
aI0
aa(lp1031
I24
aI95
aI4
aI0
aF0.0
aF0.4
aF0.6
aI6
aI0
aI74
aI0
aa(lp1032
I12
aI38
aI1
aI0
aF0.0
aF0.25
aF0.0
aI1
aI0
aI1
aI0
aa(lp1033
I25
aI79
aI0
aI14
aF0.0
aF0.0
aF0.0
aI0
aI0
aI0
aI0
aa(lp1034
I21
aI195
aI0
aI2
aF0.0
aF0.5
aF1.0
aI9
aI0
aI0
aI0
aa(lp1035
I53
aI149
aI2
aI537
aF0.0
aF0.8947368421052632
aF0.05263157894736842
aI4
aI0
aI13568
aI0
aa(lp1036
I3
aI66
aI4
aI4
aF0.0
aF0.8
aF0.2
aI3
aI0
aI0
aI0
aa(lp1037
I8
aI131
aI2
aI5
aF0.0
aF0.6666666666666666
aF0.0
aI4
aI0
aI0
aI0
aa(lp1038
I22
aI169
aI0
aI14
aF0.0
aF0.0
aF0.0
aI0
aI0
aI0
aI0
aa(lp1039
I29
aI98
aI13
aI8
aF0.0
aF0.9285714285714286
aF0.2857142857142857
aI0
aI0
aI761
aI0
aa(lp1040
I5
aI24
aI1
aI3
aF0.0
aF0.0
aF0.0
aI0
aI0
aI0
aI0
aa(lp1041
I6
aI86
aI0
aI0
aF0.0
aF0.5
aF0.0
aI0
aI0
aI0
aI0
aa(lp1042
I380
aI900
aI0
aI291
aF0.0
aF0.385
aF0.555
aI115
aI3
aI373875
aI0
aa(lp1043
I22
aI128
aI0
aI29
aF0.0
aF0.6666666666666666
aF0.0
aI0
aI0
aI245
aI0
aa(lp1044
I11
aI93
aI3
aI2
aF0.0
aF0.75
aF0.25
aI0
aI0
aI0
aI0
aa(lp1045
I7
aI23
aI0
aI2
aF0.0
aF0.0
aF0.0
aI0
aI0
aI0
aI0
aa(lp1046
I68
aI360
aI0
aI5
aF0.0
aF0.375
aF0.5972222222222222
aI1320
aI0
aI462
aI0
aa(lp1047
I30
aI335
aI1
aI13
aF0.0
aF0.6666666666666666
aF0.0
aI10
aI0
aI2
aI0
aa(lp1048
I431
aI1518
aI1
aI142
aF0.0
aF0.4020100502512563
aF0.5527638190954773
aI15
aI2
aI7181271
aI0
aa(lp1049
I49
aI268
aI4
aI36
aF0.0
aF0.8333333333333334
aF0.3333333333333333
aI14
aI0
aI38087
aI0
aa(lp1050
I133
aI487
aI2
aI277
aF0.0
aF0.7989949748743719
aF0.2814070351758794
aI88
aI1
aI20281
aI0
aa(lp1051
I10
aI79
aI0
aI110
aF0.0
aF0.5
aF0.029411764705882353
aI0
aI0
aI841
aI0
aa(lp1052
I145
aI526
aI105
aI35
aF0.0
aF0.005
aF0.94
aI0
aI0
aI0
aI0
aa(lp1053
I142
aI1027
aI3
aI4
aF0.0
aF0.935
aF0.995
aI9
aI3
aI1
aI0
aa(lp1054
I48
aI198
aI61
aI10
aF0.0
aF0.816793893129771
aF0.03816793893129771
aI47
aI0
aI11
aI0
aa(lp1055
I13
aI62
aI0
aI7
aF0.0
aF0.0
aF0.0
aI0
aI0
aI0
aI0
aa(lp1056
I20
aI72
aI0
aI31
aF0.0
aF0.7272727272727273
aF0.0
aI16
aI0
aI338202
aI0
aa(lp1057
I19
aI97
aI17
aI21
aF0.0
aF0.1111111111111111
aF0.16666666666666666
aI5
aI0
aI320
aI0
aa(lp1058
I364
aI991
aI4
aI180
aF0.0
aF0.3103448275862069
aF0.034482758620689655
aI30
aI0
aI21
aI0
aa(lp1059
I91
aI351
aI19
aI82
aF0.0
aF0.6
aF0.15
aI8
aI0
aI1
aI0
aa(lp1060
I201
aI582
aI9
aI307
aF0.0
aF0.7956989247311828
aF0.1935483870967742
aI18
aI3
aI492010
aI0
aa(lp1061
I45
aI529
aI3
aI0
aF0.0
aF0.25
aF0.25
aI12
aI0
aI383
aI0
aa(lp1062
I15
aI126
aI8
aI23
aF0.0
aF0.86
aF0.0
aI0
aI0
aI142
aI0
aa(lp1063
I19
aI211
aI3
aI1
aF0.0
aF0.5
aF0.0
aI2
aI0
aI2
aI0
aa(lp1064
I58
aI336
aI1
aI6
aF0.0
aF0.0
aF0.0
aI3
aI0
aI0
aI0
aa(lp1065
I35
aI19
aI0
aI8
aF0.0
aF1.0
aF0.0
aI0
aI0
aI14717
aI0
aa(lp1066
I25
aI183
aI3
aI3
aF0.0
aF1.0
aF0.0
aI0
aI0
aI12
aI0
aa(lp1067
I38
aI526
aI1
aI11
aF0.0
aF0.6363636363636364
aF0.13636363636363635
aI1
aI0
aI174
aI0
aa(lp1068
I168
aI1050
aI7
aI1031
aF0.0
aF0.5833333333333334
aF0.6666666666666666
aI39
aI0
aI3
aI0
aa(lp1069
I153
aI198
aI6
aI192
aF0.0
aF0.8442211055276382
aF0.44221105527638194
aI8
aI1
aI890720
aI0
aa(lp1070
I26
aI222
aI0
aI78
aF0.0
aF0.4
aF0.2
aI3
aI0
aI2369
aI0
aa(lp1071
I32
aI168
aI6
aI4
aF0.0
aF0.5714285714285714
aF0.0
aI0
aI1
aI1185
aI0
aa(lp1072
I34
aI109
aI0
aI4
aF0.0
aF1.0
aF0.0
aI2
aI0
aI18
aI0
aa(lp1073
I25
aI323
aI52
aI8
aF0.0
aF0.8791208791208791
aF0.17582417582417584
aI2
aI0
aI88561
aI0
aa(lp1074
I376
aI320
aI124
aI1071
aF0.0
aF0.8826530612244898
aF0.1836734693877551
aI42
aI11
aI74489
aI0
aa(lp1075
I19
aI52
aI4
aI4
aF0.0
aF0.75
aF0.05
aI15
aI0
aI0
aI0
aa(lp1076
I649
aI676
aI22
aI156
aF0.0
aF0.4965034965034965
aF0.16083916083916083
aI39
aI1
aI16668
aI0
aa(lp1077
I41000
aI4852
aI199
aI847
aF0.0
aF0.27
aF0.37
aI2350
aI167
aI1815
aI0
aa(lp1078
I61
aI581
aI0
aI40
aF0.0
aF0.9387755102040817
aF0.2857142857142857
aI0
aI0
aI9140
aI0
aa(lp1079
I755
aI1142
aI133
aI83
aF0.0
aF0.385
aF0.9
aI2
aI4
aI550
aI0
aa(lp1080
I22
aI126
aI2
aI2
aF0.0
aF1.0
aF0.0
aI0
aI0
aI2706
aI0
aa(lp1081
I7
aI56
aI2
aI4
aF0.0
aF0.6444444444444445
aF0.0
aI9
aI0
aI29
aI0
aa(lp1082
I55
aI460
aI48
aI62
aF0.0
aF0.6938775510204082
aF0.14285714285714285
aI23
aI0
aI5230
aI0
aa(lp1083
I129
aI760
aI2
aI280
aF0.0
aF0.6967213114754098
aF0.1557377049180328
aI31
aI0
aI11956
aI0
aa(lp1084
I11293
aI10235
aI199
aI2286
aF0.0
aF0.77
aF0.28
aI508
aI1
aI834
aI0
aa(lp1085
I3
aI35
aI0
aI0
aF0.0
aF0.0
aF0.0
aI1
aI0
aI0
aI0
aa(lp1086
I348
aI1946
aI1
aI3
aF0.0
aF0.3333333333333333
aF0.0
aI12
aI0
aI2
aI0
aa(lp1087
I5
aI55
aI4
aI0
aF0.0
aF0.0
aF1.0
aI0
aI0
aI0
aI0
aa(lp1088
I8
aI143
aI2
aI0
aF0.0
aF0.0
aF0.0
aI5
aI0
aI0
aI0
aa(lp1089
I165
aI849
aI1
aI145
aF0.0
aF0.8518518518518519
aF0.19753086419753085
aI113
aI1
aI13287
aI0
aa(lp1090
I53
aI336
aI42
aI33
aF0.0
aF0.976
aF0.064
aI6
aI0
aI4272
aI0
aa(lp1091
I81
aI86
aI2
aI126
aF0.0
aF0.3333333333333333
aF1.0
aI0
aI0
aI0
aI0
aa(lp1092
I47
aI166
aI2
aI91
aF0.0
aF0.7333333333333333
aF0.16666666666666666
aI2
aI0
aI342764
aI0
aa(lp1093
I24
aI229
aI9
aI0
aF0.0
aF0.6
aF0.3
aI0
aI0
aI2998
aI0
aa(lp1094
I18
aI162
aI0
aI0
aF0.0
aF0.5555555555555556
aF0.5555555555555556
aI1
aI0
aI313
aI0
aa(lp1095
I79
aI219
aI1
aI285
aF0.0
aF0.9899497487437185
aF0.08040201005025126
aI7
aI0
aI16722
aI0
aa(lp1096
I11
aI27
aI0
aI0
aF0.0
aF0.0
aF1.0
aI1
aI0
aI0
aI0
aa(lp1097
I90
aI309
aI3
aI23
aF0.0
aF0.7346938775510204
aF0.08163265306122448
aI16
aI0
aI74201
aI0
aa(lp1098
I104
aI112
aI0
aI27
aF0.0
aF0.8421052631578947
aF0.15789473684210525
aI11
aI0
aI7135
aI0
aa(lp1099
I55
aI257
aI0
aI33
aF0.0
aF1.0
aF0.3333333333333333
aI0
aI0
aI4587
aI0
aa(lp1100
I2
aI6
aI0
aI1
aF0.0
aF1.0
aF0.0
aI1
aI0
aI0
aI0
aa(lp1101
I9
aI62
aI1
aI0
aF0.0
aF0.5
aF0.0
aI2
aI0
aI48
aI0
aa(lp1102
I15
aI31
aI0
aI4
aF0.0
aF0.5
aF0.0
aI1
aI0
aI0
aI0
aa(lp1103
I513
aI1034
aI0
aI36
aF0.0
aF0.7272727272727273
aF0.8484848484848485
aI25
aI13
aI4066
aI0
aa(lp1104
I587
aI1088
aI2
aI33
aF0.0
aF0.31
aF0.6
aI48
aI3
aI7790
aI0
aa(lp1105
I10
aI54
aI2
aI0
aF0.0
aF0.6666666666666666
aF0.0
aI1
aI0
aI0
aI0
aa(lp1106
I88
aI345
aI0
aI17
aF0.0
aF0.6896551724137931
aF0.0603448275862069
aI6
aI0
aI7825
aI0
aa(lp1107
I154
aI116
aI1
aI588
aF0.0
aF0.8260869565217391
aF0.13768115942028986
aI45
aI1
aI418631
aI0
aa(lp1108
I74
aI389
aI15
aI32
aF0.0
aF0.76
aF0.12
aI34
aI0
aI18542
aI0
aa(lp1109
I237
aI107
aI3
aI81
aF0.0
aF0.4120603015075377
aF0.44221105527638194
aI47
aI1
aI7983
aI0
aa(lp1110
I31
aI331
aI0
aI21
aF0.0
aF0.5
aF0.5
aI1
aI0
aI0
aI0
aa(lp1111
I3
aI8
aI0
aI0
aF0.0
aF0.0
aF0.0
aI0
aI0
aI0
aI0
aa(lp1112
I4
aI36
aI0
aI0
aF0.0
aF1.0
aF1.0
aI0
aI0
aI0
aI0
aa(lp1113
I33
aI172
aI9
aI13
aF0.0
aF0.8571428571428571
aF0.42857142857142855
aI4
aI0
aI166
aI0
aa(lp1114
I11
aI86
aI0
aI0
aF0.0
aF0.0
aF0.0
aI0
aI0
aI2
aI0
aa(lp1115
I63
aI249
aI0
aI80
aF0.0
aF0.7704918032786885
aF0.03278688524590164
aI7
aI0
aI442354
aI0
aa(lp1116
I144
aI213
aI4
aI177
aF0.0
aF0.7674418604651163
aF0.09302325581395349
aI29
aI0
aI144130
aI0
aa(lp1117
I404
aI771
aI41
aI453
aF0.0
aF0.545
aF0.475
aI97
aI7
aI438094
aI0
aa(lp1118
I89
aI215
aI1
aI8
aF0.0
aF0.65
aF0.75
aI1
aI0
aI4807
aI0
aa(lp1119
I567
aI1029
aI199
aI338
aF0.0
aF0.035
aF0.69
aI36
aI4
aI2
aI0
aa(lp1120
I94
aI586
aI121
aI3
aF0.0
aF0.8636363636363636
aF0.36363636363636365
aI54
aI0
aI510263
aI0
aa(lp1121
I325
aI594
aI3
aI43
aF0.0
aF0.77
aF0.26
aI259
aI8
aI267
aI0
aa(lp1122
I588
aI2092
aI69
aI110
aF0.0
aF0.7839195979899497
aF0.6633165829145728
aI56
aI1
aI1322
aI0
aa(lp1123
I6
aI61
aI0
aI8
aF0.0
aF0.0
aF0.0
aI1
aI0
aI0
aI0
aa(lp1124
I382
aI4929
aI7
aI1129
aF0.0
aF0.35964912280701755
aF0.47368421052631576
aI81
aI0
aI15
aI0
aa(lp1125
I279
aI258
aI4
aI895
aF0.0
aF0.47
aF0.185
aI65
aI3
aI63028
aI0
aa(lp1126
I200
aI376
aI0
aI170
aF0.0
aF0.7587939698492462
aF0.1507537688442211
aI41
aI2
aI3018
aI0
aa(lp1127
I105
aI338
aI2
aI9
aF0.0
aF0.3375
aF0.0625
aI16
aI3
aI17
aI0
aa(lp1128
I170
aI635
aI188
aI172
aF0.0
aF0.7382198952879581
aF0.12041884816753927
aI12
aI3
aI115308
aI0
aa(lp1129
I15
aI263
aI0
aI0
aF0.0
aF0.0
aF0.0
aI1
aI0
aI0
aI0
aa(lp1130
I11
aI41
aI7
aI19
aF0.0
aF0.6363636363636364
aF0.05454545454545454
aI13
aI0
aI3397
aI0
aa(lp1131
I190
aI1745
aI3
aI5
aF0.0
aF0.5
aF0.05555555555555555
aI53
aI0
aI6
aI0
aa(lp1132
I115
aI473
aI0
aI194
aF0.0
aF0.9144736842105263
aF0.4868421052631579
aI39
aI1
aI2422
aI0
aa(lp1133
I0
aI11
aI2
aI2
aF0.0
aF0.6666666666666666
aF0.0
aI1
aI0
aI1
aI0
aa(lp1134
I541
aI1181
aI0
aI517
aF0.0
aF0.98989898989899
aF0.6717171717171717
aI5
aI19
aI14624
aI0
aa(lp1135
I1319
aI1754
aI11
aI3634
aF0.0
aF0.71
aF0.16
aI5
aI22
aI23349
aI0
aa(lp1136
I355
aI1075
aI199
aI1
aF0.0
aF0.0
aF0.22
aI61
aI4
aI55
aI0
aa(lp1137
I72
aI150
aI9
aI0
aF0.0
aF0.0
aF0.09090909090909091
aI1
aI0
aI0
aI0
aa(lp1138
I480
aI560
aI101
aI105
aF0.0
aF0.165
aF0.92
aI44
aI20
aI13
aI0
aa(lp1139
I112
aI374
aI10
aI35
aF0.0
aF0.9428571428571428
aF0.49142857142857144
aI36
aI2
aI80749
aI0
aa(lp1140
I113
aI769
aI0
aI19
aF0.0
aF0.6331658291457286
aF0.35678391959798994
aI15
aI4
aI76950
aI0
aa(lp1141
I22
aI35
aI0
aI6
aF0.0
aF0.5614035087719298
aF0.9649122807017544
aI8
aI0
aI6
aI0
aa(lp1142
I41
aI112
aI0
aI1
aF0.0
aF0.4444444444444444
aF0.3111111111111111
aI8
aI1
aI4
aI0
aa(lp1143
I231
aI281
aI11
aI4
aF0.0
aF0.3893129770992366
aF0.35877862595419846
aI6
aI8
aI96
aI0
aa(lp1144
I9
aI14
aI3
aI1
aF0.0
aF0.25
aF1.0
aI0
aI0
aI6760
aI0
aa(lp1145
I360
aI354
aI3
aI399
aF0.0
aF0.8704663212435233
aF0.015544041450777202
aI47
aI1
aI1646
aI0
aa(lp1146
I19
aI76
aI3
aI0
aF0.0
aF0.7
aF0.0
aI1
aI0
aI0
aI0
aa(lp1147
I98
aI93
aI3
aI30
aF0.0
aF0.6166666666666667
aF0.4166666666666667
aI3
aI0
aI51560
aI0
aa(lp1148
I346
aI647
aI39
aI125
aF0.0
aF0.734375
aF0.14583333333333334
aI43
aI4
aI135874
aI0
aa(lp1149
I1621
aI981
aI185
aI1871
aF0.0
aF0.705
aF0.32
aI182
aI7
aI441300
aI0
aa(lp1150
I270
aI115
aI8
aI85
aF0.0
aF0.39195979899497485
aF0.05025125628140704
aI39
aI10
aI2370
aI0
aa(lp1151
I196
aI750
aI9
aI121
aF0.0
aF0.6582914572864321
aF0.20100502512562815
aI25
aI0
aI4011
aI0
aa(lp1152
I138
aI391
aI3
aI50
aF0.0
aF0.34536082474226804
aF0.020618556701030927
aI45
aI0
aI51443
aI0
aa(lp1153
I71
aI360
aI0
aI2
aF0.0
aF0.5151515151515151
aF0.7575757575757576
aI6
aI0
aI0
aI0
aa(lp1154
I365
aI975
aI6
aI18
aF0.0
aF0.36
aF0.2
aI9
aI4
aI6324
aI0
aa(lp1155
I252
aI119
aI3
aI115
aF0.0
aF0.5
aF0.045
aI11
aI1
aI6788
aI0
aa(lp1156
I206
aI380
aI199
aI11
aF0.0
aF0.0
aF0.97
aI0
aI2
aI0
aI0
aa(lp1157
I144
aI129
aI3
aI3
aF0.0
aF0.14285714285714285
aF0.0
aI2
aI0
aI0
aI0
aa(lp1158
I275
aI144
aI121
aI576
aF0.0
aF0.6
aF0.15
aI87
aI1
aI280883
aI0
aa(lp1159
I222
aI470
aI26
aI30
aF0.0
aF0.88
aF0.035
aI8
aI5
aI76052
aI0
aa(lp1160
I289
aI167
aI0
aI60
aF0.0
aF0.3553299492385787
aF0.17766497461928935
aI36
aI0
aI4358
aI0
aa(lp1161
I38
aI113
aI53
aI147
aF0.0
aF0.38
aF0.635
aI16
aI0
aI795
aI0
aa(lp1162
I407
aI361
aI40
aI273
aF0.0
aF0.705
aF0.245
aI50
aI0
aI318313
aI0
aa(lp1163
I505
aI317
aI65
aI166
aF0.0
aF0.27
aF0.625
aI12
aI12
aI14872
aI0
aa(lp1164
I20
aI227
aI10
aI5
aF0.0
aF0.9090909090909091
aF0.0
aI11
aI0
aI1
aI0
aa(lp1165
I41
aI682
aI13
aI1
aF0.0
aF0.35175879396984927
aF0.271356783919598
aI6
aI0
aI1151
aI0
aa(lp1166
I193
aI76
aI4
aI23
aF0.0
aF0.155
aF0.01
aI22
aI3
aI48084
aI0
aa(lp1167
I28
aI41
aI0
aI0
aF0.0
aF0.25
aF0.0
aI0
aI0
aI2
aI0
aa(lp1168
I80
aI324
aI4
aI122
aF0.0
aF0.45
aF0.0
aI11
aI0
aI33570
aI0
aa(lp1169
I184
aI1000
aI147
aI0
aF0.0
aF0.005
aF0.045
aI10
aI0
aI13
aI0
aa(lp1170
I19
aI22
aI9
aI4
aF0.0
aF0.456
aF0.312
aI0
aI0
aI2195
aI0
aa(lp1171
I140
aI257
aI0
aI13
aF0.0
aF0.17647058823529413
aF0.5
aI14
aI1
aI0
aI0
aa(lp1172
I4
aI56
aI6
aI0
aF0.0
aF0.0
aF0.0
aI0
aI0
aI0
aI0
aa(lp1173
I161
aI811
aI5
aI0
aF0.0
aF0.16666666666666666
aF0.0
aI2
aI2
aI1
aI0
aa(lp1174
I234
aI807
aI6
aI0
aF0.0
aF0.14285714285714285
aF0.0
aI4
aI2
aI4
aI0
aa(lp1175
I579
aI432
aI46
aI57
aF0.0
aF0.19
aF0.67
aI32
aI3
aI15851
aI0
aasS'label'
p1176
(lp1177
I0
aI0
aI0
aI0
aI0
aI0
aI0
aI0
aI0
aI0
aI0
aI0
aI0
aI0
aI0
aI0
aI0
aI0
aI0
aI0
aI0
aI0
aI0
aI0
aI0
aI0
aI0
aI0
aI0
aI0
aI0
aI0
aI0
aI0
aI0
aI0
aI0
aI0
aI0
aI0
aI0
aI0
aI0
aI0
aI0
aI0
aI0
aI0
aI0
aI0
aI0
aI0
aI0
aI0
aI0
aI0
aI0
aI0
aI0
aI0
aI0
aI0
aI0
aI0
aI0
aI0
aI0
aI0
aI0
aI0
aI0
aI0
aI0
aI0
aI0
aI0
aI0
aI0
aI0
aI0
aI0
aI0
aI0
aI0
aI0
aI0
aI0
aI0
aI0
aI0
aI0
aI0
aI0
aI0
aI0
aI0
aI0
aI0
aI0
aI0
aI0
aI0
aI0
aI0
aI0
aI0
aI0
aI0
aI0
aI0
aI0
aI0
aI0
aI0
aI0
aI0
aI0
aI0
aI0
aI0
aI0
aI0
aI0
aI0
aI0
aI0
aI0
aI0
aI0
aI0
aI0
aI0
aI0
aI0
aI0
aI0
aI0
aI0
aI0
aI0
aI0
aI0
aI0
aI0
aI0
aI0
aI0
aI0
aI0
aI0
aI0
aI0
aI0
aI0
aI0
aI0
aI0
aI0
aI0
aI0
aI0
aI0
aI0
aI0
aI0
aI0
aI0
aI0
aI0
aI0
aI0
aI0
aI0
aI0
aI0
aI0
aI0
aI0
aI0
aI0
aI0
aI0
aI0
aI0
aI0
aI0
aI0
aI0
aI0
aI0
aI0
aI0
aI0
aI0
aI0
aI0
aI0
aI0
aI0
aI0
aI0
aI0
aI0
aI0
aI0
aI0
aI0
aI0
aI0
aI0
aI0
aI0
aI0
aI0
aI0
aI0
aI0
aI0
aI0
aI0
aI0
aI0
aI0
aI0
aI0
aI0
aI0
aI0
aI0
aI0
aI0
aI0
aI0
aI0
aI0
aI0
aI0
aI0
aI0
aI0
aI0
aI0
aI0
aI0
aI0
aI0
aI0
aI0
aI0
aI0
aI0
aI0
aI0
aI0
aI0
aI0
aI0
aI0
aI0
aI0
aI0
aI0
aI0
aI0
aI0
aI0
aI0
aI0
aI0
aI0
aI0
aI0
aI0
aI0
aI0
aI0
aI0
aI0
aI0
aI0
aI0
aI0
aI0
aI0
aI0
aI0
aI0
aI0
aI0
aI0
aI0
aI0
aI0
aI0
aI0
aI0
aI0
aI0
aI0
aI0
aI0
aI0
aI0
aI0
aI0
aI0
aI0
aI0
aI0
aI0
aI0
aI0
aI0
aI0
aI0
aI0
aI0
aI0
aI0
aI0
aI0
aI0
aI0
aI0
aI0
aI0
aI0
aI0
aI0
aI0
aI0
aI0
aI0
aI0
aI0
aI0
aI0
aI0
aI0
aI0
aI0
aI0
aI0
aI0
aI0
aI0
aI0
aI0
aI0
aI0
aI0
aI0
aI0
aI0
aI0
aI0
aI0
aI0
aI0
aI0
aI0
aI0
aI0
aI0
aI0
aI0
aI0
aI0
aI0
aI0
aI0
aI0
aI0
aI0
aI0
aI0
aI0
aI0
aI0
aI0
aI0
aI0
aI0
aI0
aI0
aI0
aI0
aI0
aI0
aI0
aI0
aI0
aI0
aI0
aI0
aI0
aI0
aI0
aI0
aI0
aI0
aI0
aI0
aI0
aI0
aI0
aI0
aI0
aI0
aI0
aI0
aI0
aI0
aI0
aI0
aI0
aI0
aI0
aI0
aI0
aI0
aI0
aI0
aI0
aI1
aI1
aI1
aI1
aI1
aI1
aI1
aI1
aI1
aI1
aI1
aI1
aI1
aI1
aI1
aI1
aI1
aI1
aI1
aI1
aI1
aI1
aI1
aI1
aI1
aI1
aI1
aI1
aI1
aI1
aI1
aI1
aI1
aI1
aI1
aI1
aI1
aI1
aI1
aI1
aI1
aI1
aI1
aI1
aI1
aI1
aI1
aI1
aI1
aI1
aI1
aI1
aI1
aI1
aI1
aI1
aI1
aI1
aI1
aI1
aI1
aI1
aI1
aI1
aI1
aI1
aI1
aI1
aI1
aI1
aI1
aI1
aI1
aI1
aI1
aI1
aI1
aI1
aI1
aI1
aI1
aI1
aI1
aI1
aI1
aI1
aI1
aI1
aI1
aI1
aI1
aI1
aI1
aI1
aI1
aI1
aI1
aI1
aI1
aI1
aI1
aI1
aI1
aI1
aI1
aI1
aI1
aI1
aI1
aI1
aI1
aI1
aI1
aI1
aI1
aI1
aI1
aI1
aI1
aI1
aI1
aI1
aI1
aI1
aI1
aI1
aI1
aI1
aI1
aI1
aI1
aI1
aI1
aI1
aI1
aI1
aI1
aI1
aI1
aI1
aI1
aI1
aI1
aI1
aI1
aI1
aI1
aI1
aI1
aI1
aI1
aI1
aI1
aI1
aI1
aI1
aI1
aI1
aI1
aI1
aI1
aI1
aI1
aI1
aI1
aI1
aI1
aI1
aI1
aI1
aI1
aI2
aI2
aI2
aI2
aI2
aI2
aI2
aI2
aI2
aI2
aI2
aI2
aI2
aI2
aI2
aI2
aI2
aI2
aI2
aI2
aI2
aI2
aI2
aI2
aI2
aI2
aI2
aI2
aI2
aI2
aI2
aI2
aI2
aI2
aI2
aI2
aI2
aI2
aI2
aI2
aI2
aI2
aI2
aI2
aI2
aI2
aI2
aI2
aI2
aI2
aI2
aI2
aI2
aI2
aI2
aI2
aI2
aI2
aI2
aI2
aI2
aI2
aI2
aI2
aI2
aI2
aI2
aI2
aI2
aI2
aI2
aI2
aI2
aI2
aI2
aI2
aI2
aI2
aI2
aI2
aI2
aI2
aI2
aI2
aI2
aI2
aI2
aI2
aI2
aI2
aI2
aI2
aI2
aI2
aI2
aI2
aI2
aI2
aI2
aI2
aI2
aI2
aI2
aI2
aI2
aI2
aI2
aI2
aI2
aI2
aI2
aI2
aI2
aI2
aI2
aI2
aI2
aI2
aI2
aI2
aI2
aI2
aI2
aI2
aI2
aI2
aI2
aI2
aI2
aI2
aI2
aI2
aI2
aI2
aI2
aI2
aI2
aI2
aI2
aI2
aI2
aI2
aI2
aI2
aI2
aI2
aI2
aI2
aI2
aI2
aI2
aI2
aI2
aI2
aI2
aI2
aI2
aI2
aI2
aI2
aI2
aI2
aI2
aI2
aI2
aI2
aI2
aI2
aI2
aI2
aI2
aI2
aI2
aI2
aI2
aI2
aI2
aI2
aI2
aI2
aI2
aI2
aI2
aI2
aI2
aI2
aI2
aI2
aI2
aI2
aI2
aI2
aI2
aI2
aI2
aI2
aI2
aI2
aI2
aI2
aI2
aI2
aI2
aI2
aI2
aI2
aI2
aI2
aI2
aI2
aI2
aI2
aI2
aI2
aI2
aI2
aI2
aI2
aI2
aI2
aI2
aI2
aI2
aI2
aI2
aI2
aI2
aI2
aI2
aI2
aI2
aI2
aI2
aI2
aI2
aI2
aI2
aI2
aI2
aI2
aI2
aI2
aI2
aI2
aI2
aI2
aI2
aI2
aI2
aI2
aI2
aI2
aI2
aI2
aI2
aI2
aI2
aI2
aI2
aI2
aI2
aI3
aI3
aI3
aI3
aI3
aI3
aI3
aI3
aI3
aI3
aI3
aI3
aI3
aI3
aI3
aI3
aI3
aI3
aI3
aI3
aI3
aI3
aI3
aI3
aI3
aI3
aI3
aI3
aI3
aI3
aI3
aI3
aI3
aI3
aI3
aI3
aI3
aI3
aI3
aI3
aI3
aI3
aI3
aI3
aI3
aI3
aI3
aI3
aI3
aI3
aI3
aI3
aI3
aI3
aI3
aI3
aI3
aI3
aI3
aI3
aI3
aI3
aI3
aI3
aI3
aI3
aI3
aI3
aI3
aI3
aI3
aI3
aI3
aI3
aI3
aI3
aI3
aI3
aI3
aI3
aI3
aI3
aI3
aI3
aI3
aI3
aI3
aI3
aI3
aI3
aI3
aI3
aI3
aI3
aI3
aI3
aI3
aI3
aI3
aI3
aI3
aI3
aI3
aI3
aI3
aI3
aI3
aI3
aI3
aI3
aI3
aI3
aI3
aI3
aI3
aI3
aI3
aI3
aI3
aI3
aI3
aI3
aI3
aI3
aI3
aI3
aI3
aI3
aI3
aI3
aI3
aI3
aI3
aI3
aI3
aI3
aI3
aI3
aI3
aI3
aI3
aI3
aI3
aI3
aI3
aI3
aI3
aI3
aI3
aI3
aI4
aI4
aI4
aI4
aI4
aI4
aI4
aI4
aI4
aI4
aI4
aI4
aI4
aI4
aI4
aI4
aI4
aI4
aI4
aI4
aI4
aI4
aI4
aI4
aI4
aI4
aI4
aI4
aI4
aI4
aI4
aI4
aI4
aI4
aI4
aI4
aI4
aI4
aI4
aI4
aI4
aI4
aI4
aI4
aI4
aI4
aI4
aI4
aI4
aI4
aI4
aI4
aI4
aI4
aI4
aI4
aI4
aI4
aI4
aI4
aI4
aI4
aI4
aI4
aI4
aI4
aI4
aI4
aI4
aI4
aI4
aI4
aI4
aI4
aI4
aI4
aI4
aI4
aI4
aI4
aI4
aI4
aI4
aI4
aI4
aI4
aI4
aI4
aI4
aI4
aI4
aI4
aI4
aI4
aI4
aI4
aI4
aI4
aI4
aI4
aI4
aI4
aI4
aI4
aI4
aI4
aI4
aI4
aI4
aI4
aI4
aI4
aI4
aI4
aI4
aI4
aI4
aI4
aI4
aI4
aI4
aI4
aI4
aI4
aI4
aI4
aI4
aI4
aI4
aI4
aI4
aI4
aI4
aI4
aI4
aI4
aI4
aI4
aI4
aI4
aI4
aI4
aI4
aI4
aI4
aI4
aI4
aI4
aI4
aI4
aI4
aI4
aI4
aI4
aI4
aI4
aI4
aI4
aI4
aI4
aI4
aI4
aI4
aI4
aI4
aI4
aI4
as.