(dp0
S'features'
p1
(lp2
(lp3
I374648
aI15301
aI199
aI1681
aF0.0
aF0.44
aF0.91
aI2087
aI13380
aI2596
aI1
aa(lp4
I23227
aI247
aI8
aI1
aF0.0
aF0.18
aF0.89
aI4
aI4
aI922
aI0
aa(lp5
I21266
aI22719
aI13
aI4381
aF0.0
aF0.0
aF0.895
aI45
aI46
aI66
aI0
aa(lp6
I56759
aI22973
aI199
aI3
aF0.0
aF0.83
aF0.5
aI540
aI1710
aI222
aI0
aa(lp7
I10607
aI47
aI0
aI15
aF0.0
aF0.11
aF0.115
aI60
aI316
aI46
aI0
aa(lp8
I13143
aI12362
aI30
aI38
aF0.0
aF0.05
aF0.63
aI24
aI274
aI339
aI0
aa(lp9
I12406
aI583
aI28
aI981
aF0.0
aF0.25
aF0.855
aI63
aI14
aI170
aI0
aa(lp10
I18477
aI2981
aI199
aI186
aF0.0
aF0.17
aF1.0
aI23
aI391
aI11
aI0
aa(lp11
I87465
aI6873
aI199
aI2212
aF0.0
aF0.995
aF0.115
aI127
aI977
aI32
aI1
aa(lp12
I8799
aI222
aI55
aI93
aF0.0
aF0.84
aF0.96
aI57
aI24
aI3253
aI0
aa(lp13
I87318
aI24173
aI138
aI1002
aF0.0
aF0.825
aF0.45
aI1075
aI1169
aI392
aI1
aa(lp14
I60882
aI2582
aI162
aI439
aF0.0
aF0.415
aF0.915
aI1060
aI923
aI2394
aI1
aa(lp15
I34631
aI3798
aI199
aI607
aF0.0
aF0.515
aF0.83
aI404
aI646
aI505
aI1
aa(lp16
I4917
aI5209
aI142
aI544
aF0.0
aF0.755
aF0.5
aI166
aI89
aI2369
aI0
aa(lp17
I26329
aI1779
aI108
aI770
aF0.0
aF0.86
aF0.26
aI254
aI504
aI109
aI0
aa(lp18
I1270
aI707
aI8
aI6
aF0.0
aF0.015
aF1.0
aI33
aI5
aI12
aI0
aa(lp19
I3467
aI100
aI28
aI67
aF0.0
aF0.255
aF0.77
aI46
aI161
aI40
aI0
aa(lp20
I56220
aI2271
aI199
aI2600
aF0.0
aF0.855
aF0.68
aI322
aI591
aI89
aI1
aa(lp21
I22854
aI9926
aI199
aI557
aF0.0
aF0.945
aF0.15
aI72
aI454
aI27
aI1
aa(lp22
I7741
aI3457
aI70
aI335
aF0.0
aF0.715
aF0.625
aI407
aI204
aI182
aI1
aa(lp23
I4635084
aI21
aI175
aI20
aF0.0
aF0.08
aF0.955
aI36138
aI24960
aI34998
aI1
aa(lp24
I6143133
aI1736
aI199
aI840
aF0.0
aF0.995
aF0.195
aI1058
aI19268
aI645
aI1
aa(lp25
I172404
aI292
aI199
aI2425
aF0.0
aF0.125
aF0.94
aI291
aI8759
aI259
aI0
aa(lp26
I912409
aI1836
aI199
aI4
aF0.0
aF0.695
aF0.655
aI1480
aI15764
aI17938
aI1
aa(lp27
I4738971
aI1264
aI199
aI2603
aF0.0
aF0.83
aF0.715
aI7938
aI12922
aI3535
aI1
aa(lp28
I994
aI56
aI4
aI0
aF0.0
aF0.045
aF1.0
aI41
aI7
aI4
aI0
aa(lp29
I1818
aI1775
aI65
aI1
aF0.0
aF0.845
aF1.0
aI32
aI51
aI8
aI0
aa(lp30
I1397
aI1814
aI39
aI25
aF0.0
aF0.0
aF1.0
aI10
aI16
aI0
aI0
aa(lp31
I1904
aI1044
aI4
aI69
aF0.0
aF0.105
aF0.915
aI26
aI35
aI189
aI0
aa(lp32
I1172187
aI57418
aI199
aI6847
aF0.0
aF0.985
aF0.0
aI333
aI5738
aI72
aI1
aa(lp33
I33295
aI15242
aI199
aI3675
aF0.0
aF0.94
aF0.24
aI97
aI1303
aI29275
aI0
aa(lp34
I2125
aI710
aI0
aI8
aF0.0
aF0.6683673469387755
aF0.336734693877551
aI99
aI75
aI4795
aI0
aa(lp35
I1448
aI0
aI3
aI14
aF0.0
aF0.78
aF0.115
aI9
aI41
aI185
aI0
aa(lp36
I983
aI560
aI3
aI1
aF0.0
aF0.2676767676767677
aF0.04040404040404041
aI1
aI3
aI80
aI0
aa(lp37
I604
aI289
aI45
aI8
aF0.0
aF0.005
aF0.94
aI8
aI24
aI3
aI0
aa(lp38
I521
aI802
aI38
aI0
aF0.0
aF0.42276422764227645
aF0.0
aI3
aI19
aI16
aI0
aa(lp39
I319
aI342
aI13
aI119
aF0.0
aF0.625
aF0.215
aI57
aI16
aI277
aI0
aa(lp40
I393
aI642
aI0
aI12
aF0.0
aF0.41
aF0.66
aI18
aI31
aI42
aI0
aa(lp41
I564
aI462
aI142
aI167
aF0.0
aF0.5
aF0.29
aI64
aI13
aI461833
aI0
aa(lp42
I2451
aI1888
aI77
aI1460
aF0.0
aF0.3939393939393939
aF0.6464646464646465
aI99
aI43
aI109
aI0
aa(lp43
I2826
aI1648
aI154
aI1526
aF0.0
aF0.085
aF0.975
aI37
aI128
aI561
aI0
aa(lp44
I710
aI1014
aI184
aI6
aF0.0
aF0.0
aF1.0
aI1
aI8
aI1
aI0
aa(lp45
I598
aI1125
aI71
aI14
aF0.0
aF0.015
aF0.93
aI21
aI16
aI17
aI0
aa(lp46
I1538
aI1857
aI0
aI62
aF0.0
aF0.583756345177665
aF0.41116751269035534
aI161
aI32
aI3045
aI0
aa(lp47
I1410
aI635
aI4
aI600
aF0.0
aF0.67
aF0.165
aI105
aI52
aI148
aI0
aa(lp48
I543
aI143
aI0
aI15
aF0.0
aF0.5
aF0.93
aI16
aI27
aI10
aI0
aa(lp49
I416
aI215
aI1
aI119
aF0.0
aF0.9025641025641026
aF0.28717948717948716
aI42
aI27
aI91522
aI0
aa(lp50
I763
aI1940
aI5
aI89
aF0.0
aF0.625
aF0.35
aI93
aI12
aI53258
aI0
aa(lp51
I192
aI627
aI7
aI0
aF0.0
aF0.11764705882352941
aF0.2647058823529412
aI12
aI10
aI3
aI0
aa(lp52
I240
aI269
aI6
aI2
aF0.0
aF0.16363636363636364
aF0.6545454545454545
aI6
aI16
aI9
aI0
aa(lp53
I626
aI966
aI4
aI0
aF0.0
aF0.315
aF0.37
aI0
aI5
aI27
aI0
aa(lp54
I150
aI236
aI15
aI17
aF0.0
aF0.25210084033613445
aF0.5966386554621849
aI21
aI9
aI54
aI0
aa(lp55
I45
aI74
aI1
aI21
aF0.0
aF0.23076923076923078
aF0.1346153846153846
aI18
aI1
aI12
aI0
aa(lp56
I318
aI127
aI8
aI30
aF0.0
aF0.23
aF0.21
aI45
aI7
aI86
aI0
aa(lp57
I1551
aI98
aI3
aI0
aF0.0
aF0.005
aF0.74
aI5
aI4
aI1
aI0
aa(lp58
I113968
aI28737
aI110
aI1788
aF0.0
aF0.445
aF0.81
aI18806
aI1540
aI9345
aI1
aa(lp59
I94880
aI9494
aI199
aI12368
aF0.0
aF0.885
aF0.245
aI4359
aI1211
aI1525
aI1
aa(lp60
I26687
aI112
aI82
aI302
aF0.0
aF0.095
aF0.52
aI11753
aI295
aI5659
aI1
aa(lp61
I635
aI19
aI199
aI280
aF0.0
aF0.0
aF0.02
aI0
aI1
aI0
aI0
aa(lp62
I16
aI9
aI4
aI0
aF0.0
aF0.5555555555555556
aF0.7777777777777778
aI0
aI0
aI1
aI0
aa(lp63
I59514
aI1802
aI199
aI3397
aF0.0
aF0.75
aF0.335
aI1619
aI789
aI3564
aI1
aa(lp64
I89
aI0
aI0
aI0
aF0.0
aF1.0
aF1.0
aI0
aI0
aI0
aI0
aa(lp65
I7715
aI3071
aI41
aI68
aF0.0
aF0.03
aF0.995
aI15
aI5
aI3326
aI0
aa(lp66
I12057
aI11991
aI3
aI38
aF0.0
aF0.34517766497461927
aF0.9238578680203046
aI28
aI96
aI422
aI0
aa(lp67
I1460
aI2002
aI61
aI49
aF0.0
aF0.23
aF0.93
aI15
aI13
aI2212
aI0
aa(lp68
I26
aI45
aI14
aI0
aF0.0
aF0.4666666666666667
aF0.4666666666666667
aI2
aI0
aI269
aI0
aa(lp69
I3320
aI2404
aI3
aI11
aF0.0
aF0.875
aF0.425
aI6
aI28
aI123
aI0
aa(lp70
I2762
aI3258
aI12
aI22
aF0.0
aF0.75
aF0.6818181818181818
aI90
aI14
aI125
aI0
aa(lp71
I1294
aI38
aI28
aI424
aF0.0
aF0.345
aF0.99
aI906
aI28
aI936
aI0
aa(lp72
I2885
aI14
aI7
aI1
aF0.0
aF0.016
aF0.888
aI14
aI1
aI2095
aI0
aa(lp73
I2643
aI2100
aI12
aI50
aF0.0
aF0.495
aF0.67
aI154
aI23
aI434
aI0
aa(lp74
I1766
aI1945
aI3
aI8
aF0.0
aF0.6363636363636364
aF0.6590909090909091
aI1
aI5
aI96
aI0
aa(lp75
I70644
aI92
aI199
aI0
aF0.0
aF0.0
aF1.0
aI6
aI51
aI4
aI0
aa(lp76
I23394
aI24736
aI65
aI46
aF0.0
aF0.105
aF1.0
aI52
aI110
aI7
aI0
aa(lp77
I6058
aI6196
aI13
aI0
aF0.0
aF0.25
aF0.995
aI14
aI50
aI800
aI0
aa(lp78
I3334
aI2750
aI180
aI47
aF0.0
aF0.02
aF0.97
aI48
aI61
aI24
aI0
aa(lp79
I6
aI0
aI3
aI2
aF0.0
aF1.0
aF0.0
aI1
aI0
aI0
aI0
aa(lp80
I2822
aI2305
aI118
aI252
aF0.0
aF0.0
aF0.98
aI28
aI86
aI14
aI0
aa(lp81
I14056
aI4722
aI199
aI3008
aF0.0
aF0.655
aF0.895
aI125
aI304
aI86
aI0
aa(lp82
I561036
aI1
aI17
aI4381
aF0.0
aF0.565
aF0.15
aI4459
aI5096
aI795
aI1
aa(lp83
I1034095
aI915
aI73
aI1390
aF0.0
aF0.39
aF0.65
aI3766
aI5492
aI4997
aI1
aa(lp84
I387212
aI1797
aI199
aI8882
aF0.0
aF0.655
aF0.735
aI186861
aI1630
aI155505
aI1
aa(lp85
I361354
aI2197
aI199
aI3983
aF0.0
aF0.825
aF0.63
aI11821
aI4931
aI19691
aI1
aa(lp86
I92322
aI807
aI198
aI15923
aF0.0
aF0.6180904522613065
aF0.5879396984924623
aI2684
aI1828
aI5957
aI1
aa(lp87
I26871
aI7624
aI0
aI26299
aF0.0
aF0.49
aF0.48
aI156
aI466
aI76
aI0
aa(lp88
I79203
aI481
aI199
aI4006
aF0.0
aF0.52
aF0.595
aI2698
aI501
aI1050
aI1
aa(lp89
I1309259
aI2018
aI199
aI4704
aF0.0
aF0.65
aF0.655
aI4409
aI9550
aI3513
aI1
aa(lp90
I558578
aI482
aI199
aI3855
aF0.0
aF0.27
aF0.775
aI2443
aI4510
aI300
aI1
aa(lp91
I496571
aI60264
aI100
aI34213
aF0.0
aF0.355
aF0.635
aI28215
aI3763
aI5141
aI1
aa(lp92
I5335
aI837
aI199
aI2320
aF0.0
aF0.99
aF0.19
aI144
aI248
aI1146621
aI0
aa(lp93
I6027
aI4332
aI2
aI7
aF0.0
aF0.9016393442622951
aF0.13114754098360656
aI35
aI24
aI13863
aI0
aa(lp94
I7278
aI6503
aI2
aI33
aF0.0
aF0.395
aF0.605
aI357
aI22
aI96
aI0
aa(lp95
I5037
aI813
aI10
aI123
aF0.0
aF0.2914572864321608
aF0.7688442211055276
aI39
aI55
aI104
aI0
aa(lp96
I2829
aI2094
aI119
aI3
aF0.0
aF0.16
aF0.89
aI74
aI21
aI161
aI0
aa(lp97
I2701
aI2760
aI199
aI10
aF0.0
aF0.0
aF1.0
aI1
aI34
aI0
aI0
aa(lp98
I3093
aI2528
aI1
aI47
aF0.0
aF0.195
aF0.985
aI18
aI60
aI9
aI0
aa(lp99
I3167
aI2300
aI17
aI532
aF0.0
aF0.03
aF0.9
aI71
aI28
aI52
aI0
aa(lp100
I3644
aI3830
aI9
aI263
aF0.0
aF0.03
aF0.925
aI421
aI16
aI241
aI0
aa(lp101
I2108738
aI108985
aI199
aI45546
aF0.0
aF0.995
aF0.39
aI66
aI12613
aI9
aI1
aa(lp102
I163609
aI3240
aI199
aI1427
aF0.0
aF0.105
aF0.695
aI41
aI72
aI27
aI0
aa(lp103
I823078
aI103185
aI199
aI7373
aF0.0
aF0.975
aF0.325
aI230
aI8952
aI86
aI1
aa(lp104
I1470021
aI97309
aI199
aI4664
aF0.0
aF1.0
aF0.225
aI28
aI11595
aI6
aI1
aa(lp105
I19675
aI461
aI2
aI22
aF0.0
aF0.38
aF0.54
aI110
aI568
aI342
aI0
aa(lp106
I553385
aI7557
aI199
aI12359
aF0.0
aF0.91
aF0.095
aI715
aI1268
aI339
aI1
aa(lp107
I218
aI216
aI134
aI1000
aF0.0
aF0.625
aF0.665
aI24
aI28
aI1463
aI0
aa(lp108
I194562
aI9831
aI172
aI6268
aF0.0
aF0.665
aF0.385
aI4550
aI2878
aI1261
aI1
aa(lp109
I4
aI28
aI56
aI0
aF0.0
aF0.02040816326530612
aF0.5816326530612245
aI2
aI0
aI809
aI0
aa(lp110
I35082
aI5961
aI136
aI3546
aF0.0
aF0.4271356783919598
aF0.7889447236180904
aI16641
aI835
aI24475
aI1
aa(lp111
I24822
aI853
aI171
aI2843
aF0.0
aF0.775
aF0.485
aI623
aI190
aI441
aI1
aa(lp112
I7634
aI4160
aI40
aI366
aF0.0
aF0.295
aF0.95
aI119
aI292
aI103
aI0
aa(lp113
I10039
aI104
aI57
aI599
aF0.0
aF0.54
aF0.675
aI97
aI405
aI80
aI0
aa(lp114
I2557
aI2889
aI13
aI0
aF0.0
aF0.93
aF1.0
aI47
aI23
aI126
aI0
aa(lp115
I12331
aI3985
aI199
aI2430
aF0.0
aF0.825
aF0.905
aI372
aI448
aI76
aI0
aa(lp116
I898089
aI4678
aI199
aI17473
aF0.0
aF0.78
aF0.325
aI12630
aI3235
aI2457
aI1
aa(lp117
I2304
aI1849
aI24
aI11
aF0.0
aF0.12
aF0.705
aI62
aI76
aI205
aI0
aa(lp118
I597
aI0
aI0
aI0
aF0.0
aF1.0
aF0.0
aI14
aI9
aI16
aI0
aa(lp119
I590197
aI1687
aI199
aI4812
aF0.0
aF0.9
aF0.37
aI6195
aI2501
aI3504
aI1
aa(lp120
I209245
aI99
aI199
aI501
aF0.0
aF0.64
aF0.69
aI41718
aI2037
aI25901
aI1
aa(lp121
I239341
aI3371
aI133
aI5617
aF0.0
aF0.65
aF0.345
aI4640
aI1349
aI1791
aI1
aa(lp122
I68457
aI2023
aI9
aI3160
aF0.0
aF0.9644670050761421
aF0.5177664974619289
aI530
aI1029
aI1750
aI0
aa(lp123
I15194
aI256
aI29
aI306
aF0.0
aF0.835
aF0.99
aI33
aI413
aI1093
aI0
aa(lp124
I13889
aI13635
aI199
aI862
aF0.0
aF0.135
aF0.815
aI514
aI121
aI252
aI0
aa(lp125
I4033
aI2061
aI199
aI36
aF0.0
aF0.0
aF1.0
aI9
aI138
aI2
aI0
aa(lp126
I612824
aI42
aI199
aI11
aF0.0
aF0.0
aF1.0
aI196
aI8163
aI64
aI1
aa(lp127
I66926
aI66349
aI13
aI153
aF0.0
aF0.085
aF0.93
aI143
aI480
aI41
aI0
aa(lp128
I25385
aI195
aI42
aI106
aF0.0
aF0.155
aF0.785
aI71
aI407
aI225282
aI0
aa(lp129
I33681
aI1512
aI199
aI5764
aF0.0
aF0.52
aF0.415
aI2510
aI345
aI997
aI0
aa(lp130
I12707
aI2341
aI191
aI1321
aF0.0
aF0.06
aF0.775
aI76
aI164
aI58
aI1
aa(lp131
I5204
aI12
aI0
aI2
aF0.0
aF0.26506024096385544
aF0.9096385542168675
aI11
aI5
aI11
aI0
aa(lp132
I1330
aI518
aI28
aI9
aF0.0
aF0.02
aF0.945
aI22
aI3
aI6
aI0
aa(lp133
I7278
aI6503
aI2
aI33
aF0.0
aF0.395
aF0.605
aI357
aI22
aI96
aI0
aa(lp134
I361354
aI2197
aI199
aI3983
aF0.0
aF0.825
aF0.63
aI11821
aI4931
aI19691
aI1
aa(lp135
I28047
aI15022
aI199
aI1685
aF0.0
aF0.315
aF0.65
aI126
aI256
aI148
aI0
aa(lp136
I24076
aI8221
aI44
aI4786
aF0.0
aF0.945
aF0.2
aI268
aI659
aI141
aI0
aa(lp137
I4927
aI3502
aI120
aI0
aF0.0
aF0.88
aF0.8
aI106
aI151
aI89
aI0
aa(lp138
I9552
aI1539
aI12
aI391
aF0.0
aF0.41919191919191917
aF0.7171717171717171
aI316
aI373
aI347
aI0
aa(lp139
I7873
aI120
aI50
aI229
aF0.0
aF0.545
aF0.56
aI252
aI207
aI26661
aI0
aa(lp140
I1470
aI1792
aI9
aI8
aF0.0
aF0.54
aF0.795
aI160
aI46
aI88
aI0
aa(lp141
I2064
aI3007
aI134
aI762
aF0.0
aF0.5
aF0.635
aI339
aI32
aI29502
aI0
aa(lp142
I18555
aI17779
aI9
aI1398
aF0.0
aF0.78
aF0.915
aI106
aI392
aI385
aI0
aa(lp143
I1370
aI2355
aI6
aI0
aF0.0
aF0.0
aF0.995
aI5
aI4
aI101
aI0
aa(lp144
I526184
aI2684
aI199
aI13081
aF0.0
aF0.955
aF0.055
aI1125
aI2518
aI561
aI1
aa(lp145
I33338
aI1522
aI71
aI2205
aF0.0
aF0.51
aF0.77
aI1054
aI285
aI280
aI1
aa(lp146
I6702
aI3036
aI199
aI7235
aF0.0
aF0.29
aF0.915
aI243
aI181
aI45
aI0
aa(lp147
I13635
aI1667
aI199
aI461
aF0.0
aF0.73
aF0.295
aI269
aI246
aI110
aI1
aa(lp148
I1622
aI1826
aI126
aI463
aF0.0
aF0.01
aF0.1
aI27
aI7
aI3
aI0
aa(lp149
I909
aI1526
aI21
aI85
aF0.0
aF0.3787878787878788
aF0.6111111111111112
aI264
aI18
aI1630
aI0
aa(lp150
I598
aI4
aI7
aI0
aF0.0
aF0.0
aF1.0
aI1
aI0
aI0
aI0
aa(lp151
I374648
aI15301
aI199
aI1681
aF0.0
aF0.44
aF0.91
aI2087
aI13381
aI2596
aI1
aa(lp152
I71697
aI4833
aI146
aI69
aF0.0
aF0.325
aF0.67
aI245
aI6848
aI8353
aI0
aa(lp153
I22531
aI11306
aI64
aI220
aF0.0
aF0.91
aF0.43
aI49
aI624
aI3811
aI0
aa(lp154
I18601
aI20380
aI47
aI6
aF0.0
aF0.7939698492462312
aF0.9597989949748744
aI35
aI68
aI12
aI0
aa(lp155
I17136
aI17119
aI63
aI929
aF0.0
aF0.67
aF0.75
aI152
aI1076
aI84149
aI0
aa(lp156
I31526
aI6917
aI199
aI26513
aF0.0
aF0.825
aF0.925
aI48
aI1761
aI1635
aI0
aa(lp157
I14875
aI6347
aI199
aI348
aF0.0
aF0.005
aF0.8
aI54
aI81
aI19
aI0
aa(lp158
I11698
aI11068
aI35
aI4
aF0.0
aF0.075
aF0.99
aI48
aI171
aI168
aI0
aa(lp159
I14498
aI14753
aI60
aI21
aF0.0
aF0.26
aF0.945
aI40
aI915
aI55
aI0
aa(lp160
I23922
aI999
aI199
aI3071
aF0.0
aF0.34
aF0.95
aI45
aI1279
aI21
aI0
aa(lp161
I10309
aI10510
aI199
aI1540
aF0.0
aF0.34
aF0.81
aI105
aI515
aI14092
aI0
aa(lp162
I58980
aI1865
aI199
aI2360
aF0.0
aF0.785
aF0.71
aI1000
aI627
aI583
aI1
aa(lp163
I8058
aI2461
aI199
aI36
aF0.0
aF0.505
aF0.91
aI42
aI165
aI16
aI0
aa(lp164
I12489
aI10544
aI199
aI1770
aF0.0
aF0.0
aF1.0
aI62
aI312
aI0
aI0
aa(lp165
I18130
aI14853
aI199
aI28325
aF0.0
aF0.375
aF0.81
aI110
aI784
aI2958630
aI0
aa(lp166
I33016
aI92
aI27
aI0
aF0.0
aF0.0
aF0.99
aI17
aI8
aI2
aI0
aa(lp167
I20093
aI17883
aI199
aI2816
aF0.0
aF0.74
aF0.75
aI291
aI1914
aI348
aI0
aa(lp168
I7082
aI3500
aI1
aI481
aF0.0
aF0.555
aF0.225
aI156
aI486
aI477
aI0
aa(lp169
I16215
aI18209
aI4
aI11
aF0.0
aF0.51
aF0.555
aI74
aI505
aI151
aI0
aa(lp170
I41
aI3
aI62
aI0
aF0.0
aF0.0
aF0.995
aI4
aI1
aI1
aI0
aa(lp171
I38
aI1
aI2
aI0
aF0.0
aF1.0
aF0.6666666666666666
aI0
aI0
aI0
aI0
aa(lp172
I22767
aI17543
aI199
aI18807
aF0.0
aF0.735
aF0.79
aI64
aI1154
aI3018
aI0
aa(lp173
I0
aI7
aI0
aI0
aF0.0
aF0.0
aF0.0
aI0
aI0
aI0
aI0
aa(lp174
I1913569
aI2614
aI199
aI8172
aF0.0
aF0.98
aF0.04
aI2958
aI7743
aI3144
aI1
aa(lp175
I163609
aI3240
aI199
aI1427
aF0.0
aF0.105
aF0.695
aI41
aI72
aI27
aI0
aa(lp176
I28450
aI23505
aI15
aI512
aF0.0
aF0.10526315789473684
aF0.8421052631578947
aI328
aI239
aI7
aI0
aa(lp177
I63642
aI60191
aI1
aI53
aF0.0
aF0.7454545454545455
aF0.38181818181818183
aI38
aI331
aI14819
aI0
aa(lp178
I40616
aI36202
aI199
aI207
aF0.0
aF0.045
aF0.79
aI4
aI119
aI8
aI0
aa(lp179
I14875
aI6347
aI199
aI348
aF0.0
aF0.005
aF0.8
aI54
aI81
aI19
aI0
aa(lp180
I8541
aI9304
aI172
aI12140
aF0.0
aF0.305
aF0.985
aI146
aI218
aI663
aI0
aa(lp181
I20826
aI21486
aI9
aI970
aF0.0
aF0.325
aF0.875
aI88
aI75
aI46779
aI0
aa(lp182
I35408
aI12883
aI199
aI4371
aF0.0
aF0.365
aF0.865
aI193
aI1457
aI163
aI1
aa(lp183
I8435
aI10477
aI2
aI24
aF0.0
aF0.1
aF0.99
aI45
aI256
aI7
aI0
aa(lp184
I577735
aI2732
aI199
aI5377
aF0.0
aF0.845
aF0.775
aI2122
aI9935
aI2133
aI1
aa(lp185
I9925
aI9951
aI62
aI50
aF0.0
aF0.015873015873015872
aF1.0
aI53
aI87
aI28
aI0
aa(lp186
I8634
aI7644
aI2
aI0
aF0.0
aF0.05
aF0.955
aI37
aI120
aI9
aI0
aa(lp187
I10825
aI8661
aI196
aI46
aF0.0
aF0.0
aF0.72
aI84
aI109
aI26
aI0
aa(lp188
I1330
aI518
aI28
aI9
aF0.0
aF0.02
aF0.945
aI22
aI3
aI6
aI0
aa(lp189
I8729
aI714
aI199
aI3835
aF0.0
aF0.65
aF0.255
aI198
aI754
aI91566
aI0
aa(lp190
I1869
aI0
aI0
aI0
aF0.0
aF0.045454545454545456
aF0.5909090909090909
aI3
aI0
aI1441
aI0
aa(lp191
I3576
aI0
aI24
aI3
aF0.0
aF0.015
aF0.885
aI2
aI0
aI1
aI0
aa(lp192
I3073
aI2150
aI3
aI32
aF0.0
aF0.0
aF0.62
aI37
aI43
aI6
aI0
aa(lp193
I54869
aI2085
aI52
aI2453
aF0.0
aF0.85
aF0.42
aI2484
aI379
aI1196
aI1
aa(lp194
I953
aI622
aI7
aI22
aF0.0
aF0.36
aF0.935
aI12
aI9
aI69
aI0
aa(lp195
I5
aI0
aI0
aI0
aF0.0
aF1.0
aF0.0
aI1
aI0
aI0
aI0
aa(lp196
I989
aI618
aI14
aI0
aF0.0
aF0.038461538461538464
aF0.45384615384615384
aI4
aI19
aI23
aI0
aa(lp197
I35
aI11
aI133
aI0
aF0.0
aF0.0
aF1.0
aI0
aI0
aI0
aI0
aa(lp198
I3119
aI251
aI0
aI1
aF0.0
aF0.375
aF0.82
aI11
aI8
aI111
aI0
aa(lp199
I14180
aI13807
aI149
aI1747
aF0.0
aF0.615
aF0.51
aI302
aI278
aI676
aI0
aa(lp200
I3373
aI2241
aI14
aI135
aF0.0
aF0.46
aF0.645
aI105
aI127
aI166
aI0
aa(lp201
I1324
aI1750
aI199
aI0
aF0.0
aF0.07
aF0.995
aI2
aI3
aI0
aI0
aa(lp202
I5410
aI2893
aI25
aI2068
aF0.0
aF0.67
aF0.715
aI392
aI226
aI102
aI0
aa(lp203
I1126
aI48
aI0
aI13
aF0.0
aF0.2605633802816901
aF0.09859154929577464
aI32
aI85
aI18
aI0
aa(lp204
I2760
aI1628
aI30
aI653
aF0.0
aF0.54
aF0.665
aI278
aI154
aI47530
aI0
aa(lp205
I1472404
aI1369
aI199
aI9834
aF0.0
aF0.18
aF0.875
aI24111
aI21850
aI271289
aI1
aa(lp206
I140526
aI148839
aI199
aI203724
aF0.0
aF0.74
aF0.995
aI142
aI1169
aI73
aI0
aa(lp207
I116985
aI163
aI199
aI165
aF0.0
aF0.0
aF0.985
aI32
aI1545
aI5
aI0
aa(lp208
I181067
aI180132
aI18
aI74
aF0.0
aF0.4797979797979798
aF0.30303030303030304
aI318
aI3320
aI115719
aI0
aa(lp209
I91312
aI103009
aI0
aI227
aF0.0
aF0.865
aF0.265
aI286
aI2712
aI458
aI0
aa(lp210
I281934
aI2758
aI199
aI21162
aF0.0
aF0.705
aF0.73
aI1327
aI21409
aI79594
aI1
aa(lp211
I187461
aI103337
aI199
aI142974
aF0.0
aF0.815
aF0.43
aI7954
aI8623
aI406653
aI1
aa(lp212
I98175
aI108051
aI199
aI12542
aF0.0
aF0.42
aF0.65
aI373
aI1383
aI107682
aI0
aa(lp213
I44167
aI128
aI199
aI396
aF0.0
aF0.23
aF0.775
aI1349
aI3392
aI835
aI0
aa(lp214
I74863
aI33455
aI147
aI214
aF0.0
aF0.5228426395939086
aF0.6243654822335025
aI537
aI470
aI294391
aI0
aa(lp215
I204104
aI19449
aI0
aI164
aF0.0
aF0.935
aF0.185
aI119
aI2703
aI202
aI1
aa(lp216
I40481
aI33670
aI199
aI7810
aF0.0
aF0.855
aF0.435
aI30
aI3450
aI950878
aI0
aa(lp217
I40245
aI12483
aI30
aI458
aF0.0
aF0.42
aF0.035
aI151
aI16
aI1075
aI0
aa(lp218
I28450
aI23505
aI15
aI512
aF0.0
aF0.10526315789473684
aF0.8421052631578947
aI328
aI239
aI7
aI0
aa(lp219
I70390
aI42407
aI199
aI1851
aF0.0
aF0.22
aF0.94
aI77
aI2500
aI54
aI1
aa(lp220
I963083
aI12013
aI199
aI911
aF0.0
aF0.23
aF0.98
aI1615
aI26772
aI1220
aI1
aa(lp221
I40176
aI685
aI32
aI2420
aF0.0
aF0.49246231155778897
aF0.3969849246231156
aI608
aI1862
aI156358
aI1
aa(lp222
I6566
aI1111
aI0
aI0
aF0.0
aF0.0
aF1.0
aI7
aI32
aI2
aI0
aa(lp223
I1172188
aI57418
aI199
aI6847
aF0.0
aF0.985
aF0.0
aI333
aI5738
aI72
aI1
aa(lp224
I33295
aI15242
aI199
aI3675
aF0.0
aF0.94
aF0.24
aI97
aI1303
aI29274
aI0
aa(lp225
I2125
aI710
aI0
aI8
aF0.0
aF0.6683673469387755
aF0.336734693877551
aI99
aI75
aI4795
aI0
aa(lp226
I1448
aI0
aI3
aI14
aF0.0
aF0.78
aF0.115
aI9
aI41
aI185
aI0
aa(lp227
I983
aI560
aI3
aI1
aF0.0
aF0.2676767676767677
aF0.04040404040404041
aI1
aI3
aI80
aI0
aa(lp228
I1450
aI1693
aI6
aI32
aF0.0
aF0.6111111111111112
aF0.1717171717171717
aI27
aI55
aI3480458
aI0
aa(lp229
I604
aI289
aI45
aI8
aF0.0
aF0.005
aF0.94
aI8
aI24
aI3
aI0
aa(lp230
I521
aI802
aI38
aI0
aF0.0
aF0.42276422764227645
aF0.0
aI3
aI19
aI16
aI0
aa(lp231
I3839
aI2963
aI133
aI11
aF0.0
aF0.67
aF0.885
aI23
aI94
aI12
aI0
aa(lp232
I635
aI2675
aI5
aI0
aF0.0
aF0.24
aF1.0
aI16
aI2
aI3
aI0
aa(lp233
I921
aI1075
aI1
aI1
aF0.0
aF0.16
aF0.94
aI8
aI3
aI2
aI0
aa(lp234
I894
aI554
aI9
aI323
aF0.0
aF0.35
aF0.21
aI306
aI11
aI7719
aI0
aa(lp235
I192
aI205
aI141
aI2
aF0.0
aF0.005
aF0.955
aI0
aI4
aI1
aI0
aa(lp236
I319
aI342
aI13
aI119
aF0.0
aF0.625
aF0.215
aI57
aI16
aI277
aI0
aa(lp237
I393
aI642
aI0
aI12
aF0.0
aF0.41
aF0.66
aI18
aI31
aI42
aI0
aa(lp238
I564
aI462
aI142
aI167
aF0.0
aF0.5
aF0.29
aI64
aI13
aI461833
aI0
aa(lp239
I11943
aI301
aI23
aI258
aF0.0
aF0.3417085427135678
aF0.8442211055276382
aI432
aI100
aI252
aI0
aa(lp240
I18024
aI4087
aI39
aI8458
aF0.0
aF0.495
aF0.595
aI750
aI939
aI267
aI1
aa(lp241
I8751
aI3209
aI30
aI1212
aF0.0
aF0.325
aF0.47
aI356
aI249
aI93
aI0
aa(lp242
I1393
aI1634
aI1
aI0
aF0.0
aF0.05
aF0.965
aI14
aI24
aI7
aI0
aa(lp243
I2832
aI1332
aI3
aI179
aF0.0
aF0.8994974874371859
aF0.35175879396984927
aI272
aI75
aI1431
aI0
aa(lp244
I923
aI1259
aI16
aI159
aF0.0
aF0.0
aF0.935
aI54
aI4
aI6
aI0
aa(lp245
I2403
aI362
aI3
aI7
aF0.0
aF0.01
aF0.575
aI25
aI27
aI50
aI0
aa(lp246
I80
aI29
aI8
aI14
aF0.0
aF0.035
aF0.915
aI11
aI2
aI9
aI0
aa(lp247
I432
aI209
aI10
aI52
aF0.0
aF0.295
aF0.505
aI50
aI21
aI106
aI0
aa(lp248
I376
aI374
aI1
aI20
aF0.0
aF0.31
aF0.81
aI39
aI9
aI9638
aI0
aa(lp249
I51
aI6
aI19
aI0
aF0.0
aF0.005025125628140704
aF0.7135678391959799
aI3
aI1
aI1
aI0
aa(lp250
I526175
aI2684
aI199
aI13075
aF0.0
aF0.96
aF0.055
aI1125
aI2506
aI561
aI1
aa(lp251
I90423
aI21261
aI199
aI2642
aF0.0
aF0.785
aF0.265
aI1807
aI1232
aI481
aI1
aa(lp252
I88869
aI5804
aI199
aI10987
aF0.0
aF0.985
aF0.725
aI468
aI979
aI513
aI1
aa(lp253
I61301
aI4311
aI199
aI2260
aF0.0
aF0.825
aF0.38
aI676
aI689
aI167
aI1
aa(lp254
I24
aI115
aI10
aI20
aF0.0
aF0.09090909090909091
aF0.0
aI13
aI1
aI0
aI0
aa(lp255
I8953
aI4122
aI199
aI184
aF0.0
aF0.215
aF0.93
aI38
aI330
aI94
aI0
aa(lp256
I208686
aI14120
aI199
aI693
aF0.0
aF0.6
aF0.345
aI519
aI1527
aI147
aI1
aa(lp257
I3326
aI2074
aI7
aI0
aF0.0
aF0.605
aF0.0
aI48
aI233
aI11
aI0
aa(lp258
I5396
aI5919
aI199
aI2326
aF0.0
aF0.575
aF0.565
aI254
aI171
aI1650
aI0
aa(lp259
I18388
aI1921
aI199
aI19927
aF0.0
aF0.77
aF0.21
aI2345
aI243
aI706
aI1
aa(lp260
I8232
aI635
aI148
aI374
aF0.0
aF0.02
aF0.975
aI23
aI42
aI4
aI0
aa(lp261
I2854
aI687
aI3
aI5
aF0.0
aF0.185
aF0.095
aI10
aI176
aI233
aI0
aa(lp262
I2515
aI1406
aI37
aI284
aF0.0
aF0.48
aF0.78
aI145
aI135
aI1250
aI1
aa(lp263
I2451
aI1888
aI77
aI1460
aF0.0
aF0.3939393939393939
aF0.6464646464646465
aI99
aI43
aI109
aI0
aa(lp264
I1221
aI1190
aI8
aI27
aF0.0
aF0.5979899497487438
aF0.8944723618090452
aI58
aI71
aI1019
aI0
aa(lp265
I895
aI1779
aI0
aI0
aF0.0
aF0.095
aF0.0
aI16
aI25
aI0
aI0
aa(lp266
I2232
aI2295
aI0
aI315
aF0.0
aF0.4221105527638191
aF0.8592964824120602
aI58
aI124
aI63
aI0
aa(lp267
I470148
aI1015
aI199
aI18537
aF0.0
aF0.56
aF0.61
aI11844
aI2208
aI4320
aI1
aa(lp268
I217816
aI11
aI1
aI455
aF0.0
aF0.09
aF0.055
aI1906
aI2392
aI697
aI0
aa(lp269
I8772
aI11
aI190
aI0
aF0.0
aF0.0
aF1.0
aI8
aI57
aI26
aI0
aa(lp270
I6384
aI5698
aI12
aI15
aF0.0
aF0.035
aF0.99
aI65
aI244
aI5
aI0
aa(lp271
I4099
aI5211
aI60
aI3
aF0.0
aF0.265
aF0.38
aI7
aI74
aI30
aI0
aa(lp272
I8232
aI635
aI148
aI374
aF0.0
aF0.02
aF0.975
aI23
aI42
aI4
aI0
aa(lp273
I6000
aI7716
aI195
aI258
aF0.0
aF0.8775510204081632
aF0.673469387755102
aI83
aI77
aI798
aI0
aa(lp274
I1479
aI1846
aI31
aI0
aF0.0
aF0.265
aF0.87
aI10
aI34
aI23
aI0
aa(lp275
I1201
aI1785
aI4
aI1
aF0.0
aF0.125
aF0.0
aI6
aI1
aI2
aI0
aa(lp276
I1903
aI1829
aI199
aI15
aF0.0
aF0.0
aF0.95
aI2
aI121
aI1
aI0
aa(lp277
I804
aI612
aI10
aI0
aF0.0
aF0.13
aF0.745
aI12
aI26
aI24
aI0
aa(lp278
I604
aI289
aI45
aI8
aF0.0
aF0.005
aF0.94
aI8
aI24
aI3
aI0
aa(lp279
I283
aI409
aI1
aI0
aF0.0
aF0.5662650602409639
aF0.0
aI1
aI37
aI1
aI0
aa(lp280
I584
aI402
aI51
aI31
aF0.0
aF0.155
aF0.815
aI32
aI13
aI151
aI0
aa(lp281
I557
aI1106
aI35
aI932
aF0.0
aF0.41
aF0.645
aI40
aI14
aI456
aI0
aa(lp282
I6384
aI5698
aI12
aI15
aF0.0
aF0.035
aF0.99
aI65
aI244
aI5
aI0
aa(lp283
I12629
aI16141
aI198
aI13
aF0.0
aF0.36683417085427134
aF0.5175879396984925
aI23
aI120
aI488
aI0
aa(lp284
I914
aI371
aI39
aI96
aF0.0
aF0.015
aF0.445
aI34
aI23
aI12
aI0
aa(lp285
I222
aI986
aI82
aI1
aF0.0
aF0.20833333333333334
aF0.828125
aI6
aI1
aI124
aI0
aa(lp286
I257
aI429
aI32
aI0
aF0.0
aF0.0
aF0.86
aI9
aI2
aI2
aI0
aa(lp287
I240
aI142
aI70
aI680
aF0.0
aF0.38
aF0.625
aI131
aI7
aI1784
aI0
aa(lp288
I4387
aI3125
aI1
aI1642
aF0.0
aF0.08
aF0.85
aI74
aI39
aI28
aI0
aa(lp289
I72
aI161
aI0
aI2
aF0.0
aF0.21568627450980393
aF0.45098039215686275
aI2
aI5
aI346
aI0
aa(lp290
I611
aI1835
aI13
aI5
aF0.0
aF0.22395833333333334
aF0.4479166666666667
aI41
aI8
aI299
aI0
aa(lp291
I48
aI25
aI16
aI0
aF0.0
aF0.0
aF0.85
aI1
aI5
aI1
aI0
aa(lp292
I1137
aI1751
aI10
aI655
aF0.0
aF0.507537688442211
aF0.5477386934673367
aI91
aI19
aI334
aI0
aa(lp293
I1229
aI1433
aI99
aI74
aF0.0
aF0.16
aF0.84
aI106
aI22
aI22
aI0
aa(lp294
I686
aI774
aI63
aI204
aF0.0
aF0.195
aF0.605
aI236
aI14
aI30
aI0
aa(lp295
I22
aI21
aI0
aI0
aF0.0
aF0.1111111111111111
aF0.16666666666666666
aI0
aI2
aI2
aI0
aa(lp296
I629
aI702
aI11
aI3
aF0.0
aF0.175
aF0.98
aI8
aI0
aI160
aI0
aa(lp297
I380
aI112
aI0
aI22
aF0.0
aF0.635
aF0.385
aI100
aI40
aI55
aI0
aa(lp298
I526184
aI2684
aI199
aI13081
aF0.0
aF0.955
aF0.055
aI1125
aI2518
aI561
aI1
aa(lp299
I18785
aI370
aI28
aI5
aF0.0
aF0.125
aF0.95
aI473
aI506
aI2694
aI0
aa(lp300
I6401
aI373
aI33
aI291
aF0.0
aF0.58
aF0.5
aI339
aI554
aI266035
aI0
aa(lp301
I6367
aI3362
aI117
aI10318
aF0.0
aF0.33
aF0.53
aI302
aI255
aI134
aI0
aa(lp302
I688
aI64
aI0
aI0
aF0.0
aF0.37
aF0.69
aI27
aI82
aI41
aI0
aa(lp303
I630
aI484
aI15
aI295
aF0.0
aF0.8
aF0.495
aI173
aI45
aI55251
aI0
aa(lp304
I573
aI214
aI0
aI96
aF0.0
aF0.745
aF0.125
aI139
aI10
aI3449
aI0
aa(lp305
I745
aI104
aI4
aI62
aF0.0
aF0.55
aF0.675
aI128
aI23
aI74
aI0
aa(lp306
I209
aI693
aI0
aI7
aF0.0
aF0.34
aF0.81
aI11
aI0
aI15
aI0
aa(lp307
I1029
aI274
aI0
aI695
aF0.0
aF0.14213197969543148
aF0.4720812182741117
aI90
aI85
aI5
aI0
aa(lp308
I171
aI23
aI0
aI44
aF0.0
aF0.01
aF1.0
aI0
aI1
aI0
aI0
aa(lp309
I530
aI609
aI20
aI19
aF0.0
aF0.025
aF0.825
aI103
aI26
aI7
aI0
aa(lp310
I983
aI145
aI8
aI44
aF0.0
aF0.7788944723618091
aF0.542713567839196
aI93
aI27
aI25018
aI0
aa(lp311
I423
aI465
aI5
aI635
aF0.0
aF0.335
aF0.4
aI121
aI22
aI269282
aI0
aa(lp312
I334
aI1419
aI4
aI28
aF0.0
aF0.03333333333333333
aF0.3333333333333333
aI50
aI1
aI18
aI0
aa(lp313
I313
aI96
aI25
aI61
aF0.0
aF0.18518518518518517
aF0.05291005291005291
aI30
aI0
aI138287
aI0
aa(lp314
I284
aI387
aI2
aI4
aF0.0
aF0.1111111111111111
aF0.5
aI7
aI24
aI29
aI0
aa(lp315
I292
aI447
aI3
aI5
aF0.0
aF0.23863636363636365
aF0.4431818181818182
aI19
aI23
aI43
aI0
aa(lp316
I50706
aI1690
aI199
aI2620
aF0.0
aF0.585
aF0.885
aI869
aI1891
aI884
aI0
aa(lp317
I4021
aI5081
aI5
aI0
aF0.0
aF0.565
aF0.05
aI163
aI197
aI19
aI0
aa(lp318
I8
aI40
aI0
aI6
aF0.0
aF0.0
aF0.0
aI0
aI0
aI0
aI0
aa(lp319
I14172
aI934
aI28
aI60
aF0.0
aF0.245
aF0.815
aI180
aI382
aI166
aI0
aa(lp320
I3772
aI2799
aI98
aI4191
aF0.0
aF0.355
aF0.655
aI333
aI102
aI397
aI0
aa(lp321
I983
aI560
aI3
aI1
aF0.0
aF0.2676767676767677
aF0.04040404040404041
aI1
aI3
aI80
aI0
aa(lp322
I576
aI421
aI1
aI2
aF0.0
aF0.06666666666666667
aF0.8055555555555556
aI14
aI5
aI338
aI0
aa(lp323
I3408
aI1950
aI23
aI839
aF0.0
aF0.84
aF0.465
aI122
aI85
aI29510
aI0
aa(lp324
I563
aI1011
aI5
aI10
aF0.0
aF0.06
aF0.915
aI53
aI10
aI112
aI0
aa(lp325
I375
aI712
aI77
aI2257
aF0.0
aF0.05527638190954774
aF0.8090452261306532
aI711
aI64
aI32
aI0
aa(lp326
I5
aI20
aI0
aI0
aF0.0
aF0.0
aF0.0
aI0
aI0
aI0
aI0
aa(lp327
I74
aI822
aI80
aI0
aF0.0
aF0.0
aF0.0
aI5
aI0
aI1
aI0
aa(lp328
I215
aI805
aI198
aI4
aF0.0
aF0.4020100502512563
aF0.5527638190954773
aI68
aI29
aI36
aI0
aa(lp329
I72
aI48
aI33
aI5
aF0.0
aF0.225
aF0.775
aI6
aI1
aI227
aI0
aa(lp330
I77
aI76
aI44
aI0
aF0.0
aF0.008064516129032258
aF0.6048387096774194
aI1
aI0
aI3
aI0
aa(lp331
I303
aI452
aI0
aI4
aF0.0
aF0.13
aF0.825
aI11
aI12
aI104
aI0
aa(lp332
I140
aI309
aI19
aI0
aF0.0
aF0.0
aF1.0
aI1
aI5
aI0
aI0
aa(lp333
I1863
aI1707
aI35
aI327
aF0.0
aF0.07
aF0.76
aI77
aI24
aI40
aI0
aa(lp334
I2451
aI1888
aI77
aI1460
aF0.0
aF0.3939393939393939
aF0.6464646464646465
aI99
aI43
aI109
aI0
aa(lp335
I4237
aI3643
aI6
aI34
aF0.0
aF0.035
aF0.865
aI125
aI70
aI93
aI0
aa(lp336
I2826
aI1648
aI154
aI1526
aF0.0
aF0.085
aF0.975
aI37
aI128
aI561
aI0
aa(lp337
I710
aI1014
aI184
aI6
aF0.0
aF0.0
aF1.0
aI1
aI8
aI1
aI0
aa(lp338
I598
aI1125
aI71
aI14
aF0.0
aF0.015
aF0.93
aI21
aI16
aI17
aI0
aa(lp339
I1538
aI1857
aI0
aI62
aF0.0
aF0.583756345177665
aF0.41116751269035534
aI161
aI32
aI3045
aI0
aa(lp340
I1410
aI635
aI4
aI600
aF0.0
aF0.67
aF0.165
aI105
aI52
aI148
aI0
aa(lp341
I543
aI143
aI0
aI15
aF0.0
aF0.5
aF0.93
aI16
aI27
aI10
aI0
aa(lp342
I416
aI215
aI1
aI119
aF0.0
aF0.9025641025641026
aF0.28717948717948716
aI42
aI27
aI91522
aI0
aa(lp343
I763
aI1940
aI5
aI89
aF0.0
aF0.625
aF0.35
aI93
aI12
aI53258
aI0
aa(lp344
I1401
aI2002
aI5
aI47
aF0.0
aF0.615
aF0.81
aI86
aI25
aI225
aI0
aa(lp345
I41
aI105
aI28
aI419
aF0.0
aF0.9272727272727272
aF0.7272727272727273
aI99
aI3
aI140
aI0
aa(lp346
I192
aI627
aI7
aI0
aF0.0
aF0.11764705882352941
aF0.2647058823529412
aI12
aI10
aI3
aI0
aa(lp347
I240
aI269
aI6
aI2
aF0.0
aF0.16363636363636364
aF0.6545454545454545
aI6
aI16
aI9
aI0
aa(lp348
I626
aI966
aI4
aI0
aF0.0
aF0.315
aF0.37
aI0
aI5
aI27
aI0
aa(lp349
I150
aI236
aI15
aI17
aF0.0
aF0.25210084033613445
aF0.5966386554621849
aI21
aI9
aI54
aI0
aa(lp350
I45
aI74
aI1
aI21
aF0.0
aF0.23076923076923078
aF0.1346153846153846
aI18
aI1
aI12
aI0
aa(lp351
I159
aI112
aI199
aI2029
aF0.0
aF0.98
aF0.235
aI695
aI2
aI566
aI0
aa(lp352
I318
aI127
aI8
aI30
aF0.0
aF0.23
aF0.21
aI45
aI7
aI86
aI0
aa(lp353
I561037
aI1
aI17
aI4381
aF0.0
aF0.565
aF0.15
aI4459
aI5096
aI795
aI1
aa(lp354
I1034095
aI915
aI73
aI1390
aF0.0
aF0.39
aF0.65
aI3766
aI5492
aI4997
aI1
aa(lp355
I387214
aI1797
aI199
aI8882
aF0.0
aF0.655
aF0.735
aI186881
aI1636
aI155513
aI1
aa(lp356
I361354
aI2197
aI199
aI3983
aF0.0
aF0.825
aF0.63
aI11822
aI4931
aI19692
aI1
aa(lp357
I92322
aI807
aI198
aI15923
aF0.0
aF0.6180904522613065
aF0.5879396984924623
aI2684
aI1828
aI5957
aI1
aa(lp358
I446395
aI1256
aI199
aI6845
aF0.0
aF0.855
aF0.61
aI3562
aI3303
aI1413
aI1
aa(lp359
I3163
aI605
aI20
aI885
aF0.0
aF0.5527638190954773
aF0.45226130653266333
aI63
aI17
aI85
aI0
aa(lp360
I86128
aI9530
aI199
aI24824
aF0.0
aF0.395
aF0.685
aI161
aI1192
aI79
aI1
aa(lp361
I0
aI4
aI0
aI0
aF0.0
aF0.0
aF0.0
aI0
aI0
aI1
aI0
aa(lp362
I119150
aI12
aI199
aI203
aF0.0
aF0.965
aF0.25
aI145
aI395
aI40
aI1
aa(lp363
I6
aI130
aI3
aI1
aF0.0
aF0.0
aF1.0
aI4
aI0
aI0
aI0
aa(lp364
I4199
aI4335
aI20
aI5
aF0.0
aF0.01
aF1.0
aI45
aI71
aI33
aI0
aa(lp365
I26871
aI7624
aI0
aI26299
aF0.0
aF0.49
aF0.48
aI156
aI466
aI76
aI0
aa(lp366
I18130
aI14853
aI199
aI28325
aF0.0
aF0.375
aF0.81
aI110
aI784
aI2958632
aI0
aa(lp367
I21103
aI15166
aI0
aI1649
aF0.0
aF0.797979797979798
aF0.2777777777777778
aI177
aI100
aI248
aI0
aa(lp368
I13231
aI2618
aI183
aI1115
aF0.0
aF0.785
aF1.0
aI68
aI864
aI12
aI0
aa(lp369
I79203
aI481
aI199
aI4006
aF0.0
aF0.52
aF0.595
aI2698
aI501
aI1051
aI1
aa(lp370
I361354
aI2197
aI199
aI3983
aF0.0
aF0.825
aF0.63
aI11822
aI4931
aI19692
aI1
aa(lp371
I86128
aI9530
aI199
aI24824
aF0.0
aF0.395
aF0.685
aI161
aI1192
aI79
aI1
aa(lp372
I28047
aI15022
aI199
aI1685
aF0.0
aF0.315
aF0.65
aI126
aI256
aI148
aI0
aa(lp373
I24076
aI8221
aI44
aI4786
aF0.0
aF0.945
aF0.2
aI268
aI659
aI141
aI0
aa(lp374
I25329
aI1149
aI21
aI514
aF0.0
aF0.56
aF0.91
aI1445
aI647
aI543
aI0
aa(lp375
I5814
aI5983
aI0
aI8
aF0.0
aF0.12
aF0.875
aI35
aI12
aI16
aI0
aa(lp376
I10265
aI5200
aI113
aI1006
aF0.0
aF0.67
aF0.76
aI323
aI368
aI250534
aI0
aa(lp377
I4524
aI4206
aI11
aI194
aF0.0
aF0.15
aF0.89
aI118
aI119
aI3787
aI0
aa(lp378
I16302
aI1769
aI7
aI703
aF0.0
aF0.515
aF0.915
aI1143
aI363
aI347
aI0
aa(lp379
I4927
aI3502
aI120
aI0
aF0.0
aF0.88
aF0.8
aI106
aI151
aI89
aI0
aa(lp380
I9552
aI1539
aI12
aI391
aF0.0
aF0.41919191919191917
aF0.7171717171717171
aI316
aI373
aI347
aI0
aa(lp381
I2040
aI2232
aI98
aI0
aF0.0
aF0.51
aF0.45
aI14
aI36
aI23
aI0
aa(lp382
I10975
aI1581
aI10
aI3700
aF0.0
aF0.82
aF0.35
aI629
aI209
aI292
aI0
aa(lp383
I7922
aI929
aI77
aI1172
aF0.0
aF0.73
aF0.71
aI687
aI279
aI172
aI0
aa(lp384
I24718
aI675
aI85
aI1661
aF0.0
aF0.44
aF0.56
aI2295
aI214
aI753
aI1
aa(lp385
I4481
aI2919
aI10
aI43
aF0.0
aF0.55
aF0.445
aI185
aI45
aI202
aI0
aa(lp386
I7873
aI120
aI50
aI229
aF0.0
aF0.545
aF0.56
aI252
aI207
aI26661
aI0
aa(lp387
I1470
aI1792
aI9
aI8
aF0.0
aF0.54
aF0.795
aI160
aI46
aI88
aI0
aa(lp388
I7773
aI3796
aI199
aI3970
aF0.0
aF0.665
aF0.635
aI193
aI379
aI722
aI0
aa(lp389
I2064
aI3007
aI134
aI762
aF0.0
aF0.5
aF0.635
aI339
aI32
aI29502
aI0
aa(lp390
I612824
aI42
aI199
aI11
aF0.0
aF0.0
aF1.0
aI196
aI8163
aI64
aI1
aa(lp391
I88
aI0
aI0
aI0
aF0.0
aF1.0
aF0.0
aI0
aI6
aI0
aI0
aa(lp392
I66926
aI66349
aI13
aI153
aF0.0
aF0.085
aF0.93
aI143
aI480
aI41
aI0
aa(lp393
I35798
aI27609
aI1
aI52
aF0.0
aF0.17
aF0.845
aI47
aI571
aI224
aI0
aa(lp394
I25385
aI195
aI42
aI106
aF0.0
aF0.155
aF0.785
aI71
aI407
aI225281
aI0
aa(lp395
I60
aI13
aI2
aI0
aF0.0
aF0.0
aF1.0
aI5
aI0
aI1
aI0
aa(lp396
I22375
aI189
aI198
aI2051
aF0.0
aF0.46733668341708545
aF0.5778894472361809
aI3320
aI690
aI693
aI0
aa(lp397
I28047
aI15022
aI199
aI1685
aF0.0
aF0.315
aF0.65
aI126
aI256
aI148
aI0
aa(lp398
I10107
aI11544
aI6
aI0
aF0.0
aF0.22
aF0.8
aI14
aI107
aI8
aI0
aa(lp399
I33681
aI1512
aI199
aI5764
aF0.0
aF0.52
aF0.415
aI2510
aI345
aI997
aI0
aa(lp400
I11513
aI7015
aI87
aI1355
aF0.0
aF0.155
aF0.795
aI100
aI324
aI1479
aI0
aa(lp401
I12707
aI2341
aI191
aI1321
aF0.0
aF0.06
aF0.775
aI76
aI164
aI58
aI1
aa(lp402
I8417
aI2206
aI66
aI1248
aF0.0
aF0.68
aF0.49
aI140
aI12
aI434
aI0
aa(lp403
I5204
aI12
aI0
aI2
aF0.0
aF0.26506024096385544
aF0.9096385542168675
aI11
aI5
aI11
aI0
aa(lp404
I6027
aI4332
aI2
aI7
aF0.0
aF0.9016393442622951
aF0.13114754098360656
aI35
aI24
aI13863
aI0
aa(lp405
I9890
aI3575
aI0
aI58
aF0.0
aF0.115
aF0.75
aI184
aI55
aI185
aI0
aa(lp406
I7844
aI517
aI171
aI1455
aF0.0
aF0.295
aF0.765
aI55
aI136
aI57
aI0
aa(lp407
I1330
aI518
aI28
aI9
aF0.0
aF0.02
aF0.945
aI22
aI3
aI6
aI0
aa(lp408
I7278
aI6503
aI2
aI33
aF0.0
aF0.395
aF0.605
aI357
aI22
aI96
aI0
aa(lp409
I17892
aI3194
aI28
aI3603
aF0.0
aF0.15577889447236182
aF0.8592964824120602
aI65
aI20
aI18055
aI0
aa(lp410
I79
aI291
aI20
aI8
aF0.0
aF0.17142857142857143
aF0.9714285714285714
aI48
aI0
aI9838
aI0
aa(lp411
I98
aI229
aI0
aI20
aF0.0
aF0.4928571428571429
aF0.95
aI21
aI1
aI2886
aI0
aa(lp412
I3697
aI1948
aI199
aI1223
aF0.0
aF0.37
aF0.66
aI114
aI29
aI354
aI0
aa(lp413
I2367
aI2869
aI0
aI3
aF0.0
aF0.34
aF0.265
aI7
aI50
aI25
aI0
aa(lp414
I1470
aI1792
aI9
aI8
aF0.0
aF0.54
aF0.795
aI160
aI46
aI88
aI0
aa(lp415
I4570
aI310
aI199
aI1516
aF0.0
aF0.445
aF0.3
aI292
aI109
aI117
aI1
aa(lp416
I1827
aI165
aI1
aI8
aF0.0
aF0.195
aF0.755
aI11
aI42
aI58
aI0
aa(lp417
I1123
aI31
aI0
aI0
aF0.0
aF0.2857142857142857
aF0.0
aI7
aI26
aI4
aI0
aa(lp418
I869
aI1756
aI55
aI22
aF0.0
aF0.7857142857142857
aF0.5714285714285714
aI11
aI11
aI3440625
aI0
aa(lp419
I422
aI523
aI143
aI2
aF0.0
aF0.64
aF0.0
aI6
aI7
aI20
aI0
aa(lp420
I772
aI1318
aI17
aI3
aF0.0
aF0.515
aF0.795
aI26
aI5
aI3194
aI0
aa(lp421
I2252
aI1424
aI13
aI3
aF0.0
aF0.23529411764705882
aF0.47058823529411764
aI15
aI44
aI10
aI0
aa(lp422
I2017
aI1264
aI31
aI148
aF0.0
aF0.095
aF0.28
aI152
aI35
aI121
aI0
aa(lp423
I306
aI261
aI6
aI0
aF0.0
aF0.405
aF0.0
aI4
aI12
aI3
aI0
aa(lp424
I639
aI590
aI71
aI538
aF0.0
aF0.22
aF0.72
aI212
aI44
aI391
aI0
aa(lp425
I1920
aI956
aI1
aI87
aF0.0
aF0.415
aF0.82
aI21
aI26
aI5512
aI0
aa(lp426
I414
aI863
aI1
aI1
aF0.0
aF0.0
aF1.0
aI9
aI5
aI0
aI0
aasS'label'
p427
(lp428
I0
aI0
aI0
aI0
aI0
aI0
aI0
aI0
aI0
aI0
aI0
aI0
aI0
aI0
aI0
aI0
aI0
aI0
aI0
aI0
aI0
aI0
aI0
aI0
aI0
aI0
aI0
aI0
aI0
aI0
aI0
aI0
aI0
aI0
aI0
aI0
aI0
aI0
aI0
aI0
aI0
aI0
aI0
aI0
aI0
aI0
aI0
aI0
aI0
aI0
aI0
aI0
aI0
aI0
aI0
aI0
aI0
aI0
aI0
aI0
aI0
aI0
aI0
aI0
aI0
aI0
aI0
aI0
aI0
aI0
aI0
aI0
aI0
aI0
aI0
aI0
aI0
aI0
aI0
aI0
aI0
aI0
aI0
aI0
aI0
aI0
aI0
aI0
aI0
aI0
aI0
aI0
aI0
aI0
aI0
aI0
aI0
aI0
aI0
aI0
aI0
aI0
aI0
aI0
aI0
aI0
aI0
aI0
aI0
aI0
aI0
aI0
aI0
aI0
aI0
aI0
aI0
aI0
aI0
aI0
aI0
aI0
aI0
aI0
aI0
aI0
aI0
aI0
aI0
aI0
aI0
aI0
aI0
aI0
aI0
aI0
aI0
aI0
aI0
aI0
aI0
aI0
aI0
aI0
aI0
aI0
aI0
aI0
aI0
aI0
aI0
aI0
aI0
aI0
aI0
aI0
aI0
aI0
aI0
aI0
aI0
aI0
aI0
aI0
aI0
aI0
aI0
aI0
aI0
aI0
aI0
aI0
aI0
aI0
aI0
aI0
aI0
aI0
aI0
aI0
aI0
aI0
aI0
aI0
aI0
aI0
aI0
aI0
aI0
aI0
aI0
aI0
aI0
aI0
aI0
aI0
aI0
aI0
aI0
aI0
aI0
aI0
aI0
aI0
aI0
aI0
aI0
aI0
aI0
aI0
aI0
aI0
aI0
aI0
aI0
aI0
aI0
aI0
aI0
aI0
aI0
aI0
aI0
aI0
aI0
aI0
aI0
aI0
aI0
aI0
aI0
aI0
aI0
aI0
aI0
aI0
aI0
aI0
aI0
aI0
aI0
aI0
aI0
aI0
aI0
aI0
aI0
aI0
aI0
aI0
aI0
aI0
aI0
aI0
aI0
aI0
aI0
aI0
aI0
aI0
aI0
aI0
aI0
aI0
aI0
aI0
aI0
aI0
aI0
aI0
aI0
aI0
aI0
aI0
aI0
aI0
aI0
aI0
aI0
aI0
aI0
aI0
aI0
aI0
aI0
aI0
aI0
aI0
aI0
aI0
aI0
aI0
aI0
aI0
aI0
aI0
aI0
aI0
aI0
aI0
aI0
aI0
aI0
aI0
aI0
aI0
aI0
aI0
aI0
aI0
aI0
aI0
aI0
aI0
aI0
aI0
aI0
aI0
aI0
aI0
aI0
aI0
aI0
aI0
aI0
aI0
aI0
aI0
aI0
aI0
aI0
aI0
aI0
aI0
aI0
aI0
aI0
aI0
aI0
aI0
aI0
aI0
aI0
aI0
aI0
aI0
aI0
aI0
aI0
aI0
aI0
aI0
aI0
aI0
aI0
aI0
aI0
aI0
aI0
aI0
aI0
aI0
aI0
aI0
aI0
aI0
aI0
aI0
aI0
aI0
aI0
aI0
aI0
aI0
aI0
aI0
aI0
aI0
aI0
aI0
aI0
aI0
aI0
aI0
aI0
aI0
aI0
aI0
aI0
aI0
aI0
aI0
aI0
aI0
aI0
aI0
aI0
aI0
aI0
aI0
aI0
aI0
aI0
aI0
aI0
aI0
aI0
aI0
aI0
aI0
aI0
aI0
aI0
aI0
aI0
aI0
aI0
aI0
aI0
aI0
aI0
aI0
aI0
aI0
as.