(dp0
S'features'
p1
(lp2
(lp3
I39187273
aI882
aI199
aI15363
aF0.0
aF0.29
aF0.79
aI64178
aI190527
aI51447
aI1
aa(lp4
I783587
aI343
aI53
aI292
aF0.0
aF0.61
aF0.65
aI611
aI3266
aI2198
aI1
aa(lp5
I564743
aI12999
aI199
aI1351
aF0.0
aF0.345
aF0.85
aI1328
aI6617
aI1002
aI1
aa(lp6
I2004559
aI127
aI199
aI358
aF0.0
aF0.05
aF0.615
aI2027
aI1599
aI6785
aI1
aa(lp7
I194215
aI10107
aI199
aI5050
aF0.0
aF0.575
aF0.755
aI1106
aI3084
aI2707
aI1
aa(lp8
I589364
aI49
aI199
aI1609
aF0.0
aF0.205
aF0.8
aI1094
aI1579
aI2852
aI1
aa(lp9
I21569
aI9829
aI199
aI8
aF0.0
aF0.58
aF0.705
aI124
aI554
aI347
aI0
aa(lp10
I126868
aI4512
aI4
aI111
aF0.0
aF0.035
aF0.975
aI285
aI1172
aI240
aI0
aa(lp11
I197688
aI1359
aI199
aI10957
aF0.0
aF0.08
aF0.79
aI148
aI1070
aI305
aI1
aa(lp12
I7615
aI7305
aI87
aI1
aF0.0
aF0.19
aF0.995
aI113
aI483
aI232
aI0
aa(lp13
I85064
aI919
aI199
aI3222
aF0.0
aF0.585
aF0.625
aI781
aI1259
aI373627
aI0
aa(lp14
I29489
aI50
aI199
aI92
aF0.0
aF0.0
aF1.0
aI242
aI502
aI80
aI0
aa(lp15
I2625
aI743
aI115
aI392
aF0.0
aF0.77
aF1.0
aI18
aI124
aI7
aI0
aa(lp16
I40832
aI2410
aI199
aI364
aF0.0
aF0.075
aF0.935
aI102
aI551
aI69
aI1
aa(lp17
I7920
aI839
aI76
aI201
aF0.0
aF0.89
aF0.18
aI200
aI61
aI326925
aI0
aa(lp18
I52203300
aI121
aI199
aI18
aF0.0
aF0.28
aF0.865
aI126649
aI180699
aI124545
aI1
aa(lp19
I4591154
aI2746
aI199
aI1691
aF0.0
aF0.5
aF0.91
aI5827
aI20641
aI1741
aI1
aa(lp20
I6588290
aI5847
aI199
aI5924
aF0.0
aF0.42
aF0.73
aI36935
aI24542
aI13626
aI1
aa(lp21
I1804
aI28
aI5
aI4
aF0.0
aF0.7063492063492064
aF0.15873015873015872
aI4
aI10
aI82849
aI0
aa(lp22
I1411
aI1
aI0
aI0
aF0.0
aF1.0
aF0.0
aI7
aI12
aI9
aI0
aa(lp23
I3478058
aI1399
aI199
aI630
aF0.0
aF0.015
aF1.0
aI4744
aI13851
aI2129
aI1
aa(lp24
I8031357
aI400
aI199
aI1516
aF0.0
aF0.165
aF0.96
aI26572
aI61909
aI13655
aI1
aa(lp25
I13231753
aI530
aI199
aI5873
aF0.0
aF0.24
aF0.99
aI21345
aI22242
aI6993
aI1
aa(lp26
I3451536
aI3028
aI199
aI10779
aF0.0
aF0.205
aF0.815
aI39705
aI11002
aI44355
aI1
aa(lp27
I6692300
aI1151
aI199
aI4813
aF0.0
aF0.125
aF0.9
aI10194
aI19228
aI37055
aI1
aa(lp28
I2482956
aI120480
aI93
aI168
aF0.0
aF0.525
aF0.955
aI6266
aI10076
aI5381
aI1
aa(lp29
I1226727
aI1153
aI199
aI2567
aF0.0
aF0.35
aF0.875
aI10371
aI11599
aI3438
aI1
aa(lp30
I4676836
aI1158
aI199
aI4132
aF0.0
aF0.15
aF0.96
aI16320
aI19155
aI5522
aI1
aa(lp31
I1484922
aI338
aI199
aI4309
aF0.0
aF0.51
aF1.0
aI4446
aI11623
aI1414
aI1
aa(lp32
I681772
aI437
aI199
aI2166
aF0.0
aF0.0
aF0.805
aI1473
aI8157
aI600
aI1
aa(lp33
I1596
aI3
aI0
aI0
aF0.0
aF1.0
aF0.0
aI7
aI45
aI18
aI0
aa(lp34
I1027
aI0
aI0
aI0
aF0.0
aF1.0
aF0.0
aI8
aI0
aI22
aI0
aa(lp35
I1367768
aI961
aI199
aI2994
aF0.0
aF0.07
aF0.84
aI7066
aI7478
aI7001
aI1
aa(lp36
I273401
aI3345
aI199
aI7410
aF0.0
aF0.23
aF0.875
aI12818
aI3888
aI31176
aI1
aa(lp37
I274480
aI74
aI199
aI920
aF0.0
aF0.125
aF0.995
aI3695
aI3608
aI1599
aI1
aa(lp38
I1394
aI1283
aI0
aI0
aF0.0
aF0.59
aF0.01
aI15
aI76
aI97
aI0
aa(lp39
I2856
aI29
aI4
aI0
aF0.0
aF0.7142857142857143
aF0.0
aI11
aI112
aI4
aI0
aa(lp40
I62582
aI4585
aI199
aI495
aF0.0
aF0.43
aF0.46
aI1023
aI763
aI8991
aI1
aa(lp41
I19633
aI571
aI2
aI591
aF0.0
aF0.8838383838383839
aF0.2676767676767677
aI128
aI214
aI604
aI0
aa(lp42
I129745
aI2172
aI199
aI533
aF0.0
aF0.225
aF0.98
aI3614
aI1929
aI1727
aI1
aa(lp43
I7191650
aI72648
aI199
aI2236
aF0.0
aF0.275
aF0.685
aI26438
aI64358
aI95741
aI1
aa(lp44
I1016056
aI153
aI199
aI3611
aF0.0
aF0.77
aF0.535
aI6326
aI8785
aI24445
aI1
aa(lp45
I5439
aI752
aI126
aI480
aF0.0
aF0.615
aF0.44
aI354
aI30
aI4411
aI0
aa(lp46
I52278
aI1137
aI198
aI4572
aF0.0
aF0.8090452261306532
aF0.6683417085427136
aI1301
aI1208
aI38890
aI1
aa(lp47
I3532
aI1
aI199
aI0
aF0.0
aF0.0
aF0.0
aI5
aI187
aI24
aI0
aa(lp48
I3203
aI1648
aI199
aI1454
aF0.0
aF0.115
aF0.97
aI62
aI89
aI110750
aI0
aa(lp49
I33433503
aI283
aI199
aI94
aF0.0
aF0.385
aF0.52
aI340985
aI57761
aI283772
aI1
aa(lp50
I29270
aI32862
aI0
aI0
aF0.0
aF0.01
aF0.98
aI36
aI149
aI242
aI0
aa(lp51
I12754
aI1466
aI199
aI364
aF0.0
aF0.0
aF1.0
aI240
aI533
aI57
aI1
aa(lp52
I11591
aI2937
aI5
aI6
aF0.0
aF0.39
aF0.68
aI135
aI24
aI18489
aI0
aa(lp53
I4009
aI4537
aI199
aI6
aF0.0
aF0.49
aF1.0
aI13
aI21
aI4
aI0
aa(lp54
I2183
aI440
aI90
aI7
aF0.0
aF0.0
aF0.965
aI16
aI7
aI7
aI0
aa(lp55
I6105
aI5581
aI198
aI210
aF0.0
aF0.43
aF0.995
aI68
aI138
aI237
aI0
aa(lp56
I1043
aI1393
aI0
aI24
aF0.0
aF0.4
aF0.795
aI31
aI6
aI61
aI0
aa(lp57
I1
aI0
aI12
aI0
aF0.0
aF0.0
aF0.0
aI0
aI0
aI0
aI0
aa(lp58
I6528
aI4590
aI95
aI601
aF0.0
aF0.43
aF0.855
aI229
aI104
aI124
aI0
aa(lp59
I3354
aI3146
aI3
aI204
aF0.0
aF0.69
aF0.715
aI82
aI91
aI71
aI0
aa(lp60
I1716
aI860
aI1
aI0
aF0.0
aF0.5555555555555556
aF0.20202020202020202
aI2
aI7
aI8410
aI0
aa(lp61
I984
aI1449
aI45
aI265
aF0.0
aF0.73
aF0.75
aI254
aI122
aI238
aI0
aa(lp62
I8224639
aI2683
aI199
aI0
aF0.0
aF0.715
aF0.425
aI408070
aI46807
aI781217
aI1
aa(lp63
I406278
aI2509
aI199
aI2383
aF0.0
aF0.925
aF0.29
aI1505
aI2041
aI50660
aI1
aa(lp64
I1894
aI764
aI1
aI1135
aF0.0
aF0.32160804020100503
aF0.36683417085427134
aI109
aI21
aI12975
aI0
aa(lp65
I606
aI629
aI70
aI232
aF0.0
aF0.72
aF0.85
aI30
aI36
aI490560
aI0
aa(lp66
I6199748
aI255
aI199
aI5
aF0.0
aF0.0
aF0.995
aI47595
aI37460
aI17138
aI1
aa(lp67
I818688
aI9856
aI199
aI2575
aF0.0
aF0.375
aF0.325
aI10408
aI4099
aI2487244
aI1
aa(lp68
I482157
aI1834
aI199
aI1237
aF0.0
aF0.97
aF0.695
aI10061
aI4394
aI83826
aI1
aa(lp69
I547315
aI159871
aI199
aI2797
aF0.0
aF0.955
aF0.94
aI28765
aI6728
aI8794
aI1
aa(lp70
I143023
aI1209
aI199
aI1427
aF0.0
aF0.275
aF0.93
aI1948
aI5237
aI1133
aI1
aa(lp71
I201622
aI120383
aI11
aI8546
aF0.0
aF0.8793969849246231
aF0.6381909547738693
aI1574
aI1252
aI27229
aI0
aa(lp72
I12385
aI618
aI199
aI4040
aF0.0
aF0.205
aF0.795
aI243
aI634
aI191759
aI0
aa(lp73
I538
aI512
aI0
aI2
aF0.0
aF0.23
aF0.795
aI25
aI4
aI8
aI0
aa(lp74
I462
aI1799
aI2
aI14
aF0.0
aF0.15577889447236182
aF0.864321608040201
aI20
aI2
aI4459
aI0
aa(lp75
I3759
aI1060
aI199
aI1159
aF0.0
aF0.58
aF0.925
aI206
aI165
aI6734
aI0
aa(lp76
I529
aI263
aI0
aI1
aF0.0
aF0.12562814070351758
aF0.44221105527638194
aI10
aI11
aI242
aI0
aa(lp77
I51075
aI34671
aI28
aI2160
aF0.0
aF0.7839195979899497
aF0.7839195979899497
aI1170
aI281
aI1765
aI0
aa(lp78
I5227
aI85
aI66
aI0
aF0.0
aF1.0
aF1.0
aI118
aI333
aI72
aI0
aa(lp79
I8486
aI929
aI50
aI81
aF0.0
aF0.25
aF0.95
aI140
aI358
aI37
aI0
aa(lp80
I11964
aI9041
aI13
aI83
aF0.0
aF0.22727272727272727
aF0.8535353535353535
aI134
aI24
aI2881
aI0
aa(lp81
I22997
aI4152
aI199
aI0
aF0.0
aF0.0
aF1.0
aI8
aI57
aI13
aI0
aa(lp82
I26909
aI1934
aI28
aI2312
aF0.0
aF0.895
aF0.54
aI29
aI375
aI14808
aI0
aa(lp83
I310
aI172
aI37
aI91
aF0.0
aF0.4292929292929293
aF0.46464646464646464
aI10
aI19
aI1258
aI0
aa(lp84
I856356
aI47263
aI199
aI2853
aF0.0
aF0.66
aF0.81
aI17699
aI5437
aI39989
aI1
aa(lp85
I9247629
aI2836
aI199
aI699
aF0.0
aF0.06
aF0.675
aI22357
aI129219
aI11932
aI1
aa(lp86
I46744
aI4605
aI177
aI2441
aF0.0
aF0.83
aF0.495
aI2757
aI2064
aI99275
aI1
aa(lp87
I52192
aI40467
aI6
aI0
aF0.0
aF0.0
aF1.0
aI50
aI1285
aI273
aI0
aa(lp88
I14432
aI1027
aI6
aI0
aF0.0
aF0.0
aF0.93
aI18
aI824
aI26
aI0
aa(lp89
I2825
aI67
aI0
aI49
aF0.0
aF0.43
aF0.705
aI20
aI93
aI296
aI0
aa(lp90
I11528313
aI120704
aI199
aI29059
aF0.0
aF0.04
aF0.835
aI128688
aI34759
aI42978
aI1
aa(lp91
I10693027
aI5705
aI199
aI972
aF0.0
aF0.16
aF0.88
aI51945
aI84232
aI46138
aI1
aa(lp92
I10477524
aI56
aI199
aI0
aF0.0
aF0.095
aF0.755
aI27115
aI10029
aI12579
aI1
aa(lp93
I9435691
aI118
aI199
aI129
aF0.0
aF0.0
aF1.0
aI12538
aI17352
aI3431
aI1
aa(lp94
I9537011
aI952
aI199
aI2291
aF0.0
aF0.425
aF0.965
aI11045
aI109580
aI6633
aI1
aa(lp95
I7546210
aI8
aI199
aI60
aF0.0
aF0.225
aF1.0
aI11425
aI13295
aI6795
aI1
aa(lp96
I6785545
aI25
aI199
aI99
aF0.0
aF0.135
aF0.99
aI934
aI10640
aI718
aI1
aa(lp97
I6609655
aI152
aI199
aI564
aF0.0
aF0.02
aF0.99
aI1014
aI16386
aI1835
aI1
aa(lp98
I5870652
aI3116
aI199
aI2980
aF0.0
aF0.135
aF0.84
aI129182
aI22221
aI40974
aI1
aa(lp99
I5265197
aI826
aI199
aI15990
aF0.0
aF0.41
aF0.66
aI5282
aI8506
aI1777
aI1
aa(lp100
I5007581
aI143
aI199
aI48
aF0.0
aF0.15
aF0.965
aI8347
aI17657
aI4128
aI1
aa(lp101
I4965365
aI153
aI199
aI14
aF0.0
aF0.185
aF0.92
aI10969
aI5574
aI3061
aI1
aa(lp102
I4978650
aI7548
aI199
aI43
aF0.0
aF0.575
aF0.765
aI196305
aI56286
aI294131
aI1
aa(lp103
I4685069
aI883
aI199
aI861
aF0.0
aF0.29
aF0.825
aI20959
aI20383
aI6566
aI1
aa(lp104
I4515412
aI226
aI199
aI90
aF0.0
aF0.14
aF0.98
aI4016
aI12431
aI1367
aI1
aa(lp105
I4856417
aI4
aI199
aI0
aF0.0
aF0.04
aF0.975
aI222213
aI2052
aI94033
aI1
aa(lp106
I4490753
aI10
aI199
aI36
aF0.0
aF0.195
aF0.85
aI2848
aI3140
aI3040
aI1
aa(lp107
I4274417
aI36
aI199
aI0
aF0.0
aF0.23
aF0.955
aI3710
aI3628
aI1372
aI1
aa(lp108
I3916123
aI47
aI199
aI80
aF0.0
aF0.45
aF1.0
aI781
aI5751
aI411
aI1
aa(lp109
I3608046
aI16854
aI199
aI3606
aF0.0
aF0.66
aF0.745
aI60853
aI1497
aI38165
aI1
aa(lp110
I3468306
aI183
aI199
aI2635
aF0.0
aF0.075
aF1.0
aI4833
aI22684
aI3266
aI1
aa(lp111
I3340423
aI1085
aI199
aI886
aF0.0
aF0.155
aF0.97
aI12164
aI4785
aI2016
aI1
aa(lp112
I3093302
aI379
aI199
aI8
aF0.0
aF0.055
aF0.955
aI5390
aI5811
aI2030
aI1
aa(lp113
I3084557
aI364
aI199
aI69
aF0.0
aF0.0
aF1.0
aI416
aI15699
aI340
aI1
aa(lp114
I2933658
aI552
aI199
aI30
aF0.0
aF0.51
aF0.955
aI2290
aI3720
aI1703
aI1
aa(lp115
I3025809
aI3157
aI199
aI185
aF0.0
aF0.06
aF0.755
aI2385
aI5358
aI6946
aI1
aa(lp116
I2733137
aI22739
aI199
aI177
aF0.0
aF0.005
aF0.995
aI2988
aI31076
aI2836
aI1
aa(lp117
I2761897
aI525
aI199
aI1908
aF0.0
aF0.405
aF0.925
aI2350
aI14326
aI3255
aI1
aa(lp118
I2777968
aI404
aI199
aI7167
aF0.0
aF0.39
aF0.81
aI2757
aI3501
aI1288
aI1
aa(lp119
I2674087
aI16899
aI199
aI12140
aF0.0
aF0.025
aF0.95
aI3951
aI10497
aI5046
aI1
aa(lp120
I2644238
aI15675
aI199
aI49
aF0.0
aF0.1
aF0.95
aI2971
aI31150
aI2784
aI1
aa(lp121
I2846959
aI286
aI199
aI5376
aF0.0
aF0.06
aF0.85
aI22128
aI11522
aI5715
aI1
aa(lp122
I2580084
aI202
aI199
aI256
aF0.0
aF0.125
aF0.955
aI3724
aI19235
aI2148
aI1
aa(lp123
I2628768
aI165
aI199
aI49
aF0.0
aF0.0
aF0.995
aI25840
aI35450
aI42969
aI1
aa(lp124
I2571097
aI13380
aI199
aI870
aF0.0
aF0.03
aF0.985
aI5145
aI8258
aI3650
aI0
aa(lp125
I2678960
aI840
aI199
aI26
aF0.0
aF0.0
aF1.0
aI45988
aI22553
aI27685
aI1
aa(lp126
I2615660
aI27
aI199
aI7
aF0.0
aF0.06
aF0.975
aI13161
aI38738
aI11299
aI1
aa(lp127
I2487545
aI60487
aI199
aI45
aF0.0
aF0.465
aF0.935
aI3237
aI6858
aI3293
aI1
aa(lp128
I2482956
aI120480
aI93
aI168
aF0.0
aF0.525
aF0.955
aI6266
aI10076
aI5381
aI1
aa(lp129
I2437415
aI30
aI199
aI8
aF0.0
aF0.25
aF0.9
aI2367
aI2605
aI1164
aI1
aa(lp130
I2489561
aI1371
aI199
aI410
aF0.0
aF0.145
aF0.92
aI3213
aI5087
aI2598
aI1
aa(lp131
I2440045
aI44
aI199
aI0
aF0.0
aF0.04
aF0.79
aI17425
aI2011
aI5345
aI1
aa(lp132
I2362062
aI7428
aI199
aI30
aF0.0
aF0.0
aF1.0
aI9495
aI4150
aI3747
aI1
aa(lp133
I2311711
aI21
aI199
aI0
aF0.0
aF0.0
aF1.0
aI1021
aI5649
aI771
aI1
aa(lp134
I2410285
aI583
aI199
aI614
aF0.0
aF0.015
aF0.99
aI4226
aI2155
aI4927
aI0
aa(lp135
I2343041
aI293
aI199
aI2885
aF0.0
aF0.335
aF0.84
aI3350
aI7162
aI3098
aI1
aa(lp136
I2332130
aI1109
aI199
aI16
aF0.0
aF0.1
aF0.975
aI6623
aI20515
aI6488
aI1
aa(lp137
I2341583
aI3755
aI199
aI25
aF0.0
aF0.17
aF0.995
aI1841
aI4421
aI1569
aI1
aa(lp138
I2255634
aI169
aI199
aI151
aF0.0
aF0.635
aF0.975
aI3174
aI7168
aI764
aI1
aa(lp139
I2216969
aI2
aI199
aI1
aF0.0
aF0.015
aF0.735
aI2237
aI7145
aI1100
aI1
aa(lp140
I2180706
aI195
aI199
aI2682
aF0.0
aF0.005
aF0.99
aI207
aI1991
aI136
aI1
aa(lp141
I2355281
aI325
aI199
aI9
aF0.0
aF0.06
aF0.985
aI24727
aI13302
aI14206
aI1
aa(lp142
I2142264
aI1212
aI199
aI161
aF0.0
aF0.075
aF0.955
aI1687
aI6278
aI1238
aI1
aa(lp143
I2075714
aI140
aI199
aI71
aF0.0
aF0.39
aF0.79
aI7784
aI24798
aI12147
aI1
aa(lp144
I2100095
aI188
aI199
aI492
aF0.0
aF0.165
aF0.77
aI7147
aI28352
aI4660
aI1
aa(lp145
I2061868
aI9899
aI199
aI268
aF0.0
aF0.145
aF1.0
aI3659
aI4920
aI2273
aI1
aa(lp146
I2067253
aI2408
aI199
aI711
aF0.0
aF0.28
aF0.875
aI12175
aI11866
aI11320
aI1
aa(lp147
I2023360
aI35
aI199
aI0
aF0.0
aF0.045
aF0.665
aI1141
aI1754
aI1715
aI1
aa(lp148
I1983683
aI0
aI199
aI944
aF0.0
aF0.15
aF0.895
aI52370
aI1551
aI13580
aI1
aa(lp149
I2004560
aI127
aI199
aI358
aF0.0
aF0.05
aF0.615
aI2028
aI1599
aI6786
aI1
aa(lp150
I1950338
aI76
aI199
aI234
aF0.0
aF0.56
aF0.825
aI1541
aI16459
aI7337
aI1
aa(lp151
I1972826
aI291
aI199
aI2379
aF0.0
aF0.05
aF0.965
aI3185
aI6919
aI2308
aI1
aa(lp152
I1945287
aI24315
aI199
aI382
aF0.0
aF0.73
aF0.895
aI21317
aI2540
aI58237
aI1
aa(lp153
I1944410
aI28
aI199
aI1451
aF0.0
aF0.165
aF0.94
aI4093
aI9406
aI2774
aI1
aa(lp154
I1892234
aI195
aI199
aI33
aF0.0
aF0.15
aF0.905
aI2130
aI16373
aI2769
aI1
aa(lp155
I1860634
aI794
aI199
aI11384
aF0.0
aF0.06
aF0.725
aI11199
aI8725
aI6698
aI1
aa(lp156
I1820350
aI3684
aI199
aI1160
aF0.0
aF0.04
aF0.995
aI8547
aI18982
aI6957
aI1
aa(lp157
I1835590
aI986
aI199
aI280
aF0.0
aF0.455
aF0.775
aI1720
aI3795
aI1265
aI1
aa(lp158
I1809727
aI11283
aI199
aI3101
aF0.0
aF0.305
aF0.905
aI22751
aI16538
aI17148
aI1
aa(lp159
I1785674
aI867
aI199
aI1143
aF0.0
aF0.49
aF0.97
aI8344
aI9023
aI3938
aI1
aa(lp160
I1763633
aI501109
aI199
aI303
aF0.0
aF0.0
aF1.0
aI1653
aI5408
aI1225
aI1
aa(lp161
I1720717
aI954
aI199
aI292
aF0.0
aF0.335
aF0.925
aI3559
aI19466
aI11113
aI1
aa(lp162
I1860404
aI989972
aI199
aI4874
aF0.0
aF0.3
aF0.845
aI4237
aI12042
aI13296
aI1
aa(lp163
I1758419
aI27
aI29
aI4
aF0.0
aF0.075
aF0.835
aI12089
aI6041
aI8422
aI1
aa(lp164
I1685821
aI2894
aI199
aI199
aF0.0
aF0.245
aF0.87
aI6093
aI3841
aI7104
aI1
aa(lp165
I1656886
aI48
aI199
aI952
aF0.0
aF0.21
aF0.435
aI52450
aI14289
aI24024
aI1
aa(lp166
I1680551
aI25
aI199
aI182
aF0.0
aF0.12
aF0.915
aI17110
aI2235
aI14444
aI1
aa(lp167
I1586989
aI570
aI199
aI707
aF0.0
aF0.0
aF0.97
aI46
aI1335
aI58
aI0
aa(lp168
I1581776
aI1032
aI199
aI662
aF0.0
aF0.94
aF0.85
aI5688
aI27701
aI11999
aI1
aa(lp169
I1598420
aI54810
aI199
aI32388
aF0.0
aF0.18
aF0.91
aI2285
aI4514
aI1177
aI1
aa(lp170
I1571899
aI1
aI199
aI0
aF0.0
aF0.17
aF0.04
aI13039
aI2770
aI7637
aI1
aa(lp171
I1489653
aI313
aI199
aI1318
aF0.0
aF0.13
aF0.97
aI4575
aI25862
aI2565
aI1
aa(lp172
I1466644
aI102
aI199
aI1225
aF0.0
aF0.2
aF0.99
aI1847
aI5778
aI1499
aI1
aa(lp173
I1546383
aI8769
aI199
aI4013
aF0.0
aF0.275
aF0.805
aI3558
aI3833
aI5351
aI1
aasS'label'
p174
(lp175
I1
aI1
aI1
aI1
aI1
aI1
aI1
aI1
aI1
aI1
aI1
aI1
aI1
aI1
aI1
aI1
aI1
aI1
aI1
aI1
aI1
aI1
aI1
aI1
aI1
aI1
aI1
aI1
aI1
aI1
aI1
aI1
aI1
aI1
aI1
aI1
aI1
aI1
aI1
aI1
aI1
aI1
aI1
aI1
aI1
aI1
aI1
aI1
aI1
aI1
aI1
aI1
aI1
aI1
aI1
aI1
aI1
aI1
aI1
aI1
aI1
aI1
aI1
aI1
aI1
aI1
aI1
aI1
aI1
aI1
aI1
aI1
aI1
aI1
aI1
aI1
aI1
aI1
aI1
aI1
aI1
aI1
aI1
aI1
aI1
aI1
aI1
aI1
aI1
aI1
aI1
aI1
aI1
aI1
aI1
aI1
aI1
aI1
aI1
aI1
aI1
aI1
aI1
aI1
aI1
aI1
aI1
aI1
aI1
aI1
aI1
aI1
aI1
aI1
aI1
aI1
aI1
aI1
aI1
aI1
aI1
aI1
aI1
aI1
aI1
aI1
aI1
aI1
aI1
aI1
aI1
aI1
aI1
aI1
aI1
aI1
aI1
aI1
aI1
aI1
aI1
aI1
aI1
aI1
aI1
aI1
aI1
aI1
aI1
aI1
aI1
aI1
aI1
aI1
aI1
aI1
aI1
aI1
aI1
aI1
aI1
aI1
aI1
aI1
aI1
aI1
aI1
aI1
aI1
aI1
aI1
as.