(dp0
S'features'
p1
(lp2
(lp3
I133618
aI1126
aI199
aI7233
aF0.0
aF0.315
aF0.745
aI1456
aI825
aI3446
aI1
aa(lp4
I29159
aI2975
aI128
aI204
aF0.0
aF0.815
aF0.265
aI379
aI754
aI2574
aI0
aa(lp5
I1119
aI0
aI0
aI0
aF0.0
aF1.0
aF1.0
aI6
aI24
aI4
aI0
aa(lp6
I2356
aI786
aI166
aI628
aF0.0
aF0.665
aF0.665
aI282
aI133
aI626
aI0
aa(lp7
I2720
aI1282
aI167
aI626
aF0.0
aF0.605
aF0.63
aI177
aI152
aI1542
aI0
aa(lp8
I8384
aI71
aI145
aI1440
aF0.0
aF0.7638190954773869
aF0.37185929648241206
aI562
aI98
aI1614
aI0
aa(lp9
I3952
aI1392
aI41
aI1163
aF0.0
aF0.5628140703517588
aF0.457286432160804
aI4458
aI200
aI3508
aI0
aa(lp10
I993235
aI3870
aI199
aI467
aF0.0
aF0.565
aF0.76
aI25176
aI8219
aI46608
aI1
aa(lp11
I31077
aI2966
aI199
aI254
aF0.0
aF0.64
aF0.795
aI1177
aI1016
aI2382
aI1
aa(lp12
I6582
aI1416
aI199
aI20224
aF0.0
aF0.86
aF0.365
aI361
aI357
aI148259
aI0
aa(lp13
I800
aI295
aI8
aI84
aF0.0
aF0.845
aF0.52
aI100
aI48
aI648
aI0
aa(lp14
I217630
aI1691
aI23
aI446
aF0.0
aF0.53
aF0.385
aI503
aI3915
aI659
aI1
aa(lp15
I11216
aI827
aI199
aI189
aF0.0
aF0.705
aF0.715
aI343
aI178
aI709
aI1
aa(lp16
I514965
aI104887
aI155
aI2421
aF0.0
aF0.67
aF0.64
aI1277
aI6540
aI973
aI1
aa(lp17
I2032
aI1174
aI199
aI330
aF0.0
aF0.21
aF0.94
aI43
aI53
aI2306
aI0
aa(lp18
I2664
aI314
aI66
aI194
aF0.0
aF0.46
aF0.69
aI104
aI117
aI3014
aI0
aa(lp19
I26378
aI2179
aI199
aI2658
aF0.0
aF0.65
aF0.595
aI669
aI829
aI1111
aI1
aa(lp20
I4157
aI293
aI90
aI592
aF0.0
aF0.585
aF0.605
aI855
aI168
aI48661
aI1
aa(lp21
I90814
aI539
aI199
aI1837
aF0.0
aF0.84
aF0.445
aI3804
aI1014
aI272735
aI1
aa(lp22
I3205
aI1272
aI151
aI2093
aF0.0
aF0.805
aF0.69
aI660
aI191
aI484
aI0
aa(lp23
I1306985
aI1089
aI199
aI3124
aF0.0
aF0.745
aF0.6
aI12791
aI7217
aI11307
aI1
aa(lp24
I11878
aI3281
aI14
aI2316
aF0.0
aF0.75
aF0.065
aI2310
aI59
aI1190
aI1
aa(lp25
I921
aI1183
aI45
aI322
aF0.0
aF0.5628140703517588
aF0.4623115577889447
aI99
aI24
aI1224
aI0
aa(lp26
I11293
aI1161
aI199
aI848
aF0.0
aF0.455
aF0.765
aI442
aI390
aI3082
aI0
aa(lp27
I36701
aI143
aI58
aI84
aF0.0
aF0.6
aF0.66
aI1716
aI470
aI6534
aI0
aa(lp28
I46881
aI1589
aI199
aI2398
aF0.0
aF0.855
aF0.58
aI695
aI2610
aI1292
aI1
aa(lp29
I947
aI692
aI5
aI276
aF0.0
aF0.36683417085427134
aF0.4623115577889447
aI818
aI11
aI438
aI0
aa(lp30
I44549
aI3388
aI199
aI11107
aF0.0
aF0.69
aF0.65
aI733
aI1270
aI1733
aI1
aa(lp31
I605763
aI1824
aI199
aI2847
aF0.0
aF0.815
aF0.56
aI1848
aI10098
aI4225
aI1
aa(lp32
I6325
aI506
aI199
aI588
aF0.0
aF0.35
aF0.81
aI976
aI291
aI3026
aI1
aa(lp33
I5508
aI523
aI11
aI847
aF0.0
aF0.91
aF0.31
aI240
aI152
aI2242
aI0
aa(lp34
I264
aI47
aI96
aI4
aF0.0
aF0.005
aF0.93
aI36
aI2
aI18
aI0
aa(lp35
I8717
aI327
aI199
aI37
aF0.0
aF0.745
aF0.84
aI184
aI385
aI419
aI0
aa(lp36
I1059
aI512
aI10
aI824
aF0.0
aF0.76
aF0.615
aI159
aI104
aI249
aI0
aa(lp37
I1558
aI1245
aI50
aI654
aF0.0
aF0.43
aF0.665
aI81
aI77
aI438
aI0
aa(lp38
I210
aI117
aI5
aI12
aF0.0
aF0.22784810126582278
aF0.08860759493670886
aI72
aI3
aI62
aI0
aa(lp39
I1008
aI696
aI198
aI625
aF0.0
aF0.949748743718593
aF0.21105527638190955
aI61
aI66
aI10417
aI0
aa(lp40
I32869
aI2521
aI138
aI245
aF0.0
aF0.58
aF0.735
aI2239
aI684
aI2850
aI1
aa(lp41
I4133
aI1056
aI42
aI373
aF0.0
aF0.53
aF0.76
aI670
aI217
aI1078
aI0
aa(lp42
I39
aI107
aI2
aI12
aF0.0
aF0.14814814814814814
aF0.2962962962962963
aI2
aI0
aI5
aI0
aa(lp43
I7558
aI3565
aI199
aI3292
aF0.0
aF0.555
aF0.64
aI590
aI204
aI646
aI1
aa(lp44
I227
aI21
aI0
aI0
aF0.0
aF1.0
aF1.0
aI8
aI2
aI6
aI0
aa(lp45
I4073
aI491
aI198
aI2007
aF0.0
aF0.5628140703517588
aF0.5979899497487438
aI139
aI231
aI722
aI0
aa(lp46
I1800
aI835
aI27
aI29
aF0.0
aF0.12
aF0.795
aI125
aI171
aI168
aI0
aa(lp47
I13095
aI1832
aI21
aI411
aF0.0
aF0.735
aF0.63
aI138
aI829
aI4850
aI0
aa(lp48
I2314
aI570
aI192
aI526
aF0.0
aF0.745
aF0.665
aI274
aI79
aI7915
aI0
aa(lp49
I20301
aI1389
aI199
aI3177
aF0.0
aF0.58
aF0.61
aI2063
aI534
aI2763
aI1
aa(lp50
I3557
aI1103
aI159
aI1928
aF0.0
aF0.545
aF0.67
aI596
aI114
aI793
aI1
aa(lp51
I2176
aI766
aI144
aI1317
aF0.0
aF0.51
aF0.67
aI584
aI72
aI6630
aI0
aa(lp52
I12914
aI2319
aI166
aI2096
aF0.0
aF0.425
aF0.82
aI1006
aI737
aI9172
aI0
aa(lp53
I42155
aI1947
aI199
aI383
aF0.0
aF0.49
aF0.94
aI1808
aI1301
aI5942
aI1
aa(lp54
I334
aI299
aI8
aI72
aF0.0
aF0.42857142857142855
aF0.4
aI86
aI11
aI194
aI0
aa(lp55
I1692731
aI3776
aI199
aI6175
aF0.0
aF0.475
aF0.77
aI26470
aI18689
aI1726344
aI1
aa(lp56
I959355
aI5692
aI199
aI24484
aF0.0
aF0.64
aF0.565
aI25866
aI2895
aI22738
aI1
aa(lp57
I10002
aI445
aI199
aI1599
aF0.0
aF0.48
aF0.72
aI1216
aI272
aI10352
aI1
aa(lp58
I10945
aI204
aI28
aI675
aF0.0
aF0.84
aF0.21
aI378
aI389
aI1035
aI0
aa(lp59
I3897
aI851
aI60
aI1849
aF0.0
aF0.075
aF0.42
aI539
aI180
aI367
aI0
aa(lp60
I255116
aI11612
aI199
aI6506
aF0.0
aF0.575
aF0.43
aI898
aI3502
aI636
aI1
aa(lp61
I3459739
aI16848
aI199
aI992
aF0.0
aF0.85
aF0.405
aI2799
aI20659
aI121130
aI1
aa(lp62
I7062
aI3734
aI192
aI493
aF0.0
aF0.53
aF0.7
aI313
aI429
aI606
aI0
aa(lp63
I4512
aI1591
aI158
aI4532
aF0.0
aF0.605
aF0.38
aI735
aI104
aI691
aI1
aa(lp64
I27142
aI1550
aI199
aI1018
aF0.0
aF0.815
aF0.6
aI472
aI1055
aI2987
aI0
aa(lp65
I2719
aI352
aI24
aI928
aF0.0
aF0.045
aF0.81
aI34
aI36
aI29
aI0
aa(lp66
I11700
aI1752
aI199
aI5295
aF0.0
aF0.5
aF0.82
aI510
aI407
aI913
aI0
aa(lp67
I884
aI567
aI29
aI114
aF0.0
aF0.42
aF0.69
aI124
aI60
aI625
aI0
aa(lp68
I14507
aI943
aI199
aI1172
aF0.0
aF0.405
aF0.805
aI372
aI325
aI1335
aI0
aa(lp69
I8515
aI272
aI199
aI2
aF0.0
aF0.93
aF0.555
aI219
aI218
aI6408
aI0
aa(lp70
I127761
aI1591
aI199
aI4239
aF0.0
aF0.575
aF0.765
aI611
aI3614
aI2203
aI1
aa(lp71
I265
aI71
aI2
aI12
aF0.0
aF0.4117647058823529
aF0.6535947712418301
aI42
aI13
aI354
aI0
aa(lp72
I16629
aI3626
aI199
aI2826
aF0.0
aF0.57
aF0.645
aI376
aI630
aI407
aI0
aa(lp73
I29285
aI1538
aI199
aI2621
aF0.0
aF0.5
aF0.695
aI2974
aI396
aI2494
aI0
aa(lp74
I377242
aI2516
aI199
aI9482
aF0.0
aF0.42
aF0.805
aI4052
aI2875
aI3701
aI1
aa(lp75
I9058
aI1162
aI139
aI785
aF0.0
aF0.65
aF0.545
aI533
aI256
aI6497
aI0
aa(lp76
I1111092
aI940
aI199
aI24570
aF0.0
aF0.765
aF0.835
aI3791
aI15056
aI16140
aI1
aa(lp77
I369
aI555
aI15
aI388
aF0.0
aF0.20512820512820512
aF0.841025641025641
aI107
aI25
aI194
aI0
aa(lp78
I9715
aI1687
aI199
aI1125
aF0.0
aF0.655
aF0.92
aI957
aI422
aI1142
aI1
aa(lp79
I11790
aI183
aI33
aI55
aF0.0
aF0.415
aF0.565
aI30629
aI230
aI6459
aI1
aa(lp80
I2444
aI2078
aI199
aI27328
aF0.0
aF0.645
aF0.11
aI730
aI17
aI91536
aI0
aa(lp81
I14526
aI620
aI188
aI586
aF0.0
aF0.69
aF0.47
aI709
aI400
aI5089
aI0
aa(lp82
I98969
aI1210
aI199
aI5447
aF0.0
aF0.775
aF0.415
aI1375
aI1714
aI9136
aI1
aa(lp83
I10264
aI2335
aI125
aI689
aF0.0
aF0.76
aF0.535
aI501
aI770
aI4359
aI0
aa(lp84
I2595
aI482
aI199
aI1683
aF0.0
aF0.53
aF0.655
aI323
aI115
aI3974
aI0
aa(lp85
I240796
aI846
aI199
aI6839
aF0.0
aF0.395
aF0.81
aI914
aI1849
aI704
aI1
aa(lp86
I100364
aI164
aI5
aI237
aF0.0
aF0.4175257731958763
aF0.3247422680412371
aI20374
aI705
aI33933
aI1
aa(lp87
I18
aI1
aI0
aI0
aF0.0
aF1.0
aF1.0
aI0
aI1
aI0
aI0
aa(lp88
I59346
aI1076
aI38
aI14186
aF0.0
aF0.7085427135678392
aF0.5025125628140703
aI1554
aI707
aI1409
aI1
aa(lp89
I21838
aI1532
aI131
aI4302
aF0.0
aF0.405
aF0.815
aI1712
aI618
aI1395
aI0
aa(lp90
I457
aI565
aI7
aI136
aF0.0
aF0.7121212121212122
aF0.45454545454545453
aI394
aI3
aI4782
aI0
aa(lp91
I146599
aI3373
aI199
aI406
aF0.0
aF0.8
aF0.64
aI486
aI4824
aI260430
aI1
aa(lp92
I1460
aI905
aI199
aI122
aF0.0
aF0.89
aF0.4
aI21
aI90
aI8435
aI0
aa(lp93
I833179
aI1109
aI199
aI12772
aF0.0
aF0.375
aF0.77
aI4350
aI11257
aI9588
aI1
aa(lp94
I5437
aI905
aI199
aI3967
aF0.0
aF0.925
aF0.43
aI173
aI121
aI7052
aI0
aa(lp95
I287753
aI907
aI199
aI4877
aF0.0
aF0.215
aF0.92
aI3101
aI3984
aI1679
aI1
aa(lp96
I68520
aI9824
aI199
aI11451
aF0.0
aF0.35
aF0.785
aI4172
aI1243
aI4127
aI1
aa(lp97
I1157
aI1925
aI199
aI1899
aF0.0
aF0.47
aF0.78
aI201
aI66
aI4652
aI0
aa(lp98
I6199
aI480
aI199
aI591
aF0.0
aF0.82
aF0.545
aI488
aI208
aI1710792
aI0
aa(lp99
I167493
aI739
aI199
aI3151
aF0.0
aF0.87
aF0.26
aI516
aI258
aI907
aI0
aa(lp100
I3057
aI1016
aI40
aI254
aF0.0
aF0.7272727272727273
aF0.51010101010101
aI117
aI148
aI3677
aI0
aa(lp101
I188691
aI9552
aI199
aI3304
aF0.0
aF0.57
aF0.685
aI4039
aI3877
aI9147
aI1
aa(lp102
I7766
aI3626
aI18
aI359
aF0.0
aF0.46
aF0.885
aI399
aI231
aI446
aI0
aa(lp103
I117392
aI1387
aI199
aI1405
aF0.0
aF0.605
aF0.745
aI1651
aI3069
aI4536
aI1
aa(lp104
I27967
aI1097
aI198
aI292
aF0.0
aF0.6130653266331658
aF0.6934673366834171
aI1396
aI739
aI6493
aI1
aa(lp105
I19065
aI870
aI57
aI1023
aF0.0
aF0.4321608040201005
aF0.2914572864321608
aI931
aI477
aI850
aI0
aa(lp106
I55
aI189
aI22
aI55
aF0.0
aF0.3783783783783784
aF0.7702702702702703
aI33
aI1
aI79
aI0
aa(lp107
I638246
aI3288
aI199
aI1770
aF0.0
aF0.705
aF0.725
aI1338
aI5847
aI3919
aI1
aa(lp108
I21013
aI1978
aI191
aI2567
aF0.0
aF0.57
aF0.82
aI604
aI764
aI405
aI0
aa(lp109
I9009
aI2317
aI199
aI3974
aF0.0
aF0.67
aF0.85
aI311
aI338
aI1092
aI0
aa(lp110
I54963
aI655
aI112
aI672
aF0.0
aF0.165
aF0.76
aI165
aI60
aI100
aI0
aa(lp111
I26790
aI357
aI108
aI676
aF0.0
aF0.365
aF0.75
aI2124
aI487
aI5703
aI1
aa(lp112
I15447
aI3747
aI199
aI1599
aF0.0
aF0.44
aF0.775
aI440
aI496
aI682
aI0
aa(lp113
I6016
aI1963
aI199
aI2322
aF0.0
aF0.49
aF0.69
aI444
aI208
aI440
aI1
aa(lp114
I11564
aI914
aI199
aI3009
aF0.0
aF0.415
aF0.76
aI876
aI358
aI1413
aI1
aa(lp115
I150452
aI1449
aI199
aI26198
aF0.0
aF0.635
aF0.715
aI1352
aI3468
aI948
aI1
aa(lp116
I10403272
aI524
aI199
aI3804
aF0.0
aF0.375
aF0.94
aI68208
aI55022
aI40243
aI1
aa(lp117
I9213
aI962
aI177
aI1711
aF0.0
aF0.455
aF0.625
aI54
aI222
aI6047
aI0
aa(lp118
I6620
aI2277
aI94
aI962
aF0.0
aF0.7889447236180904
aF0.5125628140703518
aI246
aI357
aI355
aI1
aa(lp119
I167184
aI1265
aI199
aI3004
aF0.0
aF0.395
aF0.73
aI8057
aI3440
aI19753
aI1
aa(lp120
I5740
aI1741
aI199
aI4970
aF0.0
aF0.45
aF0.82
aI304
aI127
aI1019
aI0
aa(lp121
I79297
aI534
aI199
aI1292
aF0.0
aF0.655
aF0.565
aI580
aI3135
aI1126
aI1
aa(lp122
I63563
aI114
aI65
aI12
aF0.0
aF0.045
aF0.8
aI147
aI198
aI140
aI0
aa(lp123
I46298
aI1328
aI150
aI5511
aF0.0
aF0.525
aF0.78
aI1635
aI1271
aI3171
aI1
aa(lp124
I43728
aI604
aI148
aI729
aF0.0
aF0.655
aF0.745
aI4306
aI1124
aI5119
aI1
aa(lp125
I396080
aI3858
aI199
aI4830
aF0.0
aF0.3
aF0.92
aI1218
aI3409
aI1249
aI1
aa(lp126
I1209969
aI40426
aI199
aI2999
aF0.0
aF0.545
aF0.62
aI3042
aI5076
aI2130
aI1
aa(lp127
I3729727
aI6
aI199
aI1174
aF0.0
aF0.555
aF0.655
aI59225
aI16262
aI54582
aI1
aa(lp128
I6061
aI525
aI92
aI65
aF0.0
aF0.53
aF0.44
aI122
aI98
aI503
aI1
aa(lp129
I4204
aI1015
aI164
aI3067
aF0.0
aF0.2727272727272727
aF0.4696969696969697
aI1159
aI139
aI1707
aI1
aa(lp130
I921
aI1183
aI45
aI322
aF0.0
aF0.5628140703517588
aF0.4623115577889447
aI99
aI24
aI1224
aI0
aa(lp131
I0
aI0
aI0
aI0
aF0.0
aF0.0
aF0.0
aI0
aI0
aI0
aI0
aa(lp132
I2382
aI2154
aI199
aI1282
aF0.0
aF0.66
aF0.685
aI345
aI106
aI2020
aI1
aa(lp133
I29159
aI2975
aI128
aI204
aF0.0
aF0.815
aF0.265
aI379
aI754
aI2574
aI0
aa(lp134
I479128
aI383
aI199
aI3223
aF0.0
aF0.77
aF0.655
aI722
aI5105
aI1414
aI1
aa(lp135
I2356
aI786
aI166
aI628
aF0.0
aF0.665
aF0.665
aI282
aI133
aI626
aI0
aa(lp136
I2720
aI1282
aI167
aI626
aF0.0
aF0.605
aF0.63
aI177
aI152
aI1542
aI0
aa(lp137
I8384
aI71
aI145
aI1440
aF0.0
aF0.7638190954773869
aF0.37185929648241206
aI562
aI98
aI1614
aI0
aa(lp138
I876
aI2349
aI26
aI269
aF0.0
aF0.88
aF0.95
aI149
aI9
aI94
aI0
aa(lp139
I18
aI6
aI199
aI11
aF0.0
aF0.105
aF0.845
aI22
aI0
aI11
aI0
aa(lp140
I51
aI25
aI70
aI35
aF0.0
aF0.6619718309859155
aF0.5070422535211268
aI341
aI0
aI577
aI0
aa(lp141
I993237
aI3870
aI199
aI467
aF0.0
aF0.565
aF0.76
aI25176
aI8219
aI46608
aI1
aa(lp142
I3823200
aI6497
aI199
aI3129
aF0.0
aF0.625
aF0.65
aI25030
aI18263
aI46274
aI1
aa(lp143
I19278
aI1761
aI145
aI327
aF0.0
aF0.79
aF0.31
aI2158
aI226
aI2181
aI1
aa(lp144
I6801
aI3647
aI109
aI3027
aF0.0
aF0.78
aF0.45
aI167
aI225
aI4762
aI0
aa(lp145
I2864
aI477
aI199
aI1814
aF0.0
aF0.78
aF0.415
aI210
aI123
aI11311
aI0
aa(lp146
I31077
aI2966
aI199
aI254
aF0.0
aF0.64
aF0.795
aI1177
aI1016
aI2382
aI1
aa(lp147
I217630
aI1691
aI23
aI446
aF0.0
aF0.53
aF0.385
aI503
aI3915
aI659
aI1
aa(lp148
I514965
aI104887
aI155
aI2421
aF0.0
aF0.67
aF0.64
aI1277
aI6540
aI973
aI1
aa(lp149
I2664
aI314
aI66
aI194
aF0.0
aF0.46
aF0.69
aI104
aI117
aI3014
aI0
aa(lp150
I3530
aI934
aI157
aI530
aF0.0
aF0.425
aF0.755
aI197
aI123
aI373
aI0
aa(lp151
I4157
aI293
aI90
aI592
aF0.0
aF0.585
aF0.605
aI855
aI168
aI48661
aI1
aa(lp152
I0
aI6
aI0
aI1
aF0.0
aF1.0
aF1.0
aI0
aI0
aI421
aI0
aa(lp153
I3205
aI1272
aI151
aI2093
aF0.0
aF0.805
aF0.69
aI660
aI191
aI484
aI0
aa(lp154
I1306985
aI1089
aI199
aI3124
aF0.0
aF0.745
aF0.6
aI12791
aI7217
aI11307
aI1
aa(lp155
I393
aI122
aI42
aI1045
aF0.0
aF0.865
aF0.47
aI140
aI14
aI73910
aI0
aa(lp156
I36389
aI8150
aI199
aI1941
aF0.0
aF0.285
aF0.855
aI973
aI1649
aI1623
aI1
aa(lp157
I921
aI1183
aI45
aI322
aF0.0
aF0.5628140703517588
aF0.4623115577889447
aI99
aI24
aI1224
aI0
aa(lp158
I11293
aI1161
aI199
aI848
aF0.0
aF0.455
aF0.765
aI442
aI390
aI3082
aI0
aa(lp159
I36701
aI143
aI58
aI84
aF0.0
aF0.6
aF0.66
aI1716
aI470
aI6534
aI0
aa(lp160
I46881
aI1589
aI199
aI2398
aF0.0
aF0.855
aF0.58
aI695
aI2610
aI1292
aI1
aa(lp161
I44549
aI3388
aI199
aI11107
aF0.0
aF0.69
aF0.65
aI733
aI1270
aI1733
aI1
aa(lp162
I6440
aI3639
aI132
aI1578
aF0.0
aF0.68
aF0.565
aI134
aI339
aI1440
aI0
aa(lp163
I605763
aI1824
aI199
aI2847
aF0.0
aF0.815
aF0.56
aI1849
aI10098
aI4226
aI1
aa(lp164
I6325
aI506
aI199
aI588
aF0.0
aF0.35
aF0.81
aI976
aI291
aI3026
aI1
aa(lp165
I43919
aI1924
aI199
aI3359
aF0.0
aF0.58
aF0.595
aI2351
aI827
aI5337
aI1
aa(lp166
I416
aI787
aI42
aI132
aF0.0
aF0.76
aF0.475
aI87
aI14
aI4950
aI0
aa(lp167
I264
aI47
aI96
aI4
aF0.0
aF0.005
aF0.93
aI36
aI2
aI18
aI0
aa(lp168
I8717
aI327
aI199
aI37
aF0.0
aF0.745
aF0.84
aI184
aI385
aI419
aI0
aa(lp169
I1059
aI512
aI10
aI824
aF0.0
aF0.76
aF0.615
aI159
aI104
aI249
aI0
aa(lp170
I22314
aI2300
aI199
aI8409
aF0.0
aF0.685
aF0.635
aI384
aI491
aI22474
aI1
aa(lp171
I1172
aI1005
aI43
aI476
aF0.0
aF0.89
aF0.26
aI168
aI23
aI2275
aI0
aa(lp172
I708
aI267
aI10
aI342
aF0.0
aF0.5376884422110553
aF0.628140703517588
aI613
aI21
aI559
aI0
aa(lp173
I1032
aI1287
aI61
aI23
aF0.0
aF0.835
aF0.355
aI188
aI30
aI864
aI0
aa(lp174
I210
aI117
aI5
aI12
aF0.0
aF0.22784810126582278
aF0.08860759493670886
aI72
aI3
aI62
aI0
aa(lp175
I1893
aI1633
aI138
aI1957
aF0.0
aF0.7537688442211056
aF0.5577889447236181
aI816
aI38
aI2525
aI0
aa(lp176
I1223
aI446
aI22
aI108
aF0.0
aF0.54
aF0.46
aI173
aI51
aI519
aI0
aa(lp177
I476
aI160
aI8
aI16
aF0.0
aF0.785
aF0.13
aI53
aI14
aI32915
aI0
aa(lp178
I390
aI557
aI65
aI470
aF0.0
aF0.9547738693467337
aF0.2613065326633166
aI109
aI9
aI3873
aI0
aa(lp179
I1008
aI696
aI198
aI625
aF0.0
aF0.949748743718593
aF0.21105527638190955
aI61
aI66
aI10417
aI0
aa(lp180
I32869
aI2521
aI138
aI245
aF0.0
aF0.58
aF0.735
aI2239
aI684
aI2850
aI1
aa(lp181
I4133
aI1056
aI42
aI373
aF0.0
aF0.53
aF0.76
aI670
aI217
aI1078
aI0
aa(lp182
I1118
aI1025
aI112
aI264
aF0.0
aF0.61
aF0.395
aI206
aI10
aI3047
aI0
aa(lp183
I444
aI299
aI31
aI315
aF0.0
aF0.806282722513089
aF0.14136125654450263
aI34
aI7
aI3749
aI0
aa(lp184
I980
aI1033
aI129
aI6354
aF0.0
aF0.75
aF0.3
aI176
aI35
aI16389
aI0
aa(lp185
I504
aI423
aI0
aI339
aF0.0
aF0.5
aF0.415
aI111
aI7
aI59
aI0
aa(lp186
I297
aI462
aI20
aI307
aF0.0
aF0.9278350515463918
aF0.4639175257731959
aI42
aI14
aI3525
aI0
aa(lp187
I6727
aI541
aI1
aI1111
aF0.0
aF0.665
aF0.57
aI129
aI55
aI3232
aI0
aa(lp188
I27981
aI2927
aI30
aI1
aF0.0
aF0.34
aF0.7
aI5888
aI267
aI4287
aI1
aa(lp189
I4073
aI491
aI198
aI2007
aF0.0
aF0.5628140703517588
aF0.5979899497487438
aI139
aI231
aI722
aI0
aa(lp190
I1392
aI473
aI18
aI499
aF0.0
aF0.445
aF0.845
aI627
aI56
aI10118
aI0
aa(lp191
I20301
aI1389
aI199
aI3177
aF0.0
aF0.58
aF0.61
aI2063
aI534
aI2763
aI1
aa(lp192
I293
aI255
aI15
aI26
aF0.0
aF0.05
aF0.965
aI9
aI11
aI847
aI0
aa(lp193
I12914
aI2319
aI166
aI2096
aF0.0
aF0.425
aF0.82
aI1006
aI737
aI9172
aI0
aa(lp194
I42155
aI1947
aI199
aI383
aF0.0
aF0.49
aF0.94
aI1808
aI1301
aI5942
aI1
aa(lp195
I2339
aI364
aI55
aI8
aF0.0
aF0.755
aF0.595
aI253
aI64
aI5319
aI0
aa(lp196
I334
aI299
aI8
aI72
aF0.0
aF0.42857142857142855
aF0.4
aI86
aI11
aI194
aI0
aa(lp197
I22
aI20
aI5
aI3
aF0.0
aF0.5
aF0.65
aI5
aI0
aI79
aI0
aa(lp198
I1692732
aI3776
aI199
aI6175
aF0.0
aF0.475
aF0.77
aI26473
aI18689
aI1726347
aI1
aa(lp199
I54070
aI4532
aI199
aI1993
aF0.0
aF0.385
aF0.625
aI2229
aI1147
aI1908
aI1
aa(lp200
I32700
aI7404
aI199
aI24258
aF0.0
aF0.825
aF0.695
aI1120
aI1012
aI38394
aI1
aa(lp201
I959355
aI5692
aI199
aI24484
aF0.0
aF0.64
aF0.565
aI25866
aI2895
aI22738
aI1
aa(lp202
I3968
aI1217
aI199
aI2396
aF0.0
aF0.575
aF0.59
aI1303
aI74
aI33737
aI1
aa(lp203
I2015
aI977
aI7
aI42
aF0.0
aF0.375
aF0.555
aI128
aI90
aI285
aI0
aa(lp204
I7581
aI5613
aI199
aI2172
aF0.0
aF0.585
aF0.72
aI831
aI188
aI9230
aI1
aa(lp205
I25042
aI3929
aI135
aI7066
aF0.0
aF0.725
aF0.33
aI6936
aI412
aI9735
aI1
aa(lp206
I255116
aI11612
aI199
aI6506
aF0.0
aF0.575
aF0.43
aI898
aI3502
aI636
aI1
aa(lp207
I3459742
aI16848
aI199
aI992
aF0.0
aF0.85
aF0.405
aI2799
aI20659
aI121144
aI1
aa(lp208
I4512
aI1591
aI158
aI4532
aF0.0
aF0.605
aF0.38
aI735
aI104
aI691
aI1
aa(lp209
I27142
aI1550
aI199
aI1018
aF0.0
aF0.815
aF0.6
aI472
aI1055
aI2987
aI0
aa(lp210
I11700
aI1752
aI199
aI5295
aF0.0
aF0.5
aF0.82
aI510
aI407
aI913
aI0
aa(lp211
I884
aI567
aI29
aI114
aF0.0
aF0.42
aF0.69
aI124
aI60
aI625
aI0
aa(lp212
I449
aI606
aI141
aI52
aF0.0
aF0.78
aF0.555
aI36
aI13
aI2669
aI0
aa(lp213
I127761
aI1591
aI199
aI4239
aF0.0
aF0.575
aF0.765
aI611
aI3614
aI2203
aI1
aa(lp214
I16629
aI3626
aI199
aI2826
aF0.0
aF0.57
aF0.645
aI376
aI630
aI407
aI0
aa(lp215
I29285
aI1538
aI199
aI2621
aF0.0
aF0.5
aF0.695
aI2974
aI396
aI2494
aI0
aa(lp216
I377242
aI2516
aI199
aI9482
aF0.0
aF0.42
aF0.805
aI4052
aI2875
aI3701
aI1
aa(lp217
I9058
aI1162
aI139
aI785
aF0.0
aF0.65
aF0.545
aI533
aI256
aI6497
aI0
aa(lp218
I29
aI56
aI2
aI60
aF0.0
aF0.5217391304347826
aF0.30434782608695654
aI30
aI0
aI0
aI0
aa(lp219
I9715
aI1687
aI199
aI1125
aF0.0
aF0.655
aF0.92
aI957
aI422
aI1142
aI1
aa(lp220
I98970
aI1210
aI199
aI5447
aF0.0
aF0.775
aF0.415
aI1375
aI1714
aI9136
aI1
aa(lp221
I10264
aI2335
aI125
aI689
aF0.0
aF0.76
aF0.535
aI501
aI770
aI4359
aI0
aa(lp222
I59346
aI1076
aI38
aI14186
aF0.0
aF0.7085427135678392
aF0.5025125628140703
aI1554
aI707
aI1409
aI1
aa(lp223
I21838
aI1532
aI131
aI4302
aF0.0
aF0.405
aF0.815
aI1712
aI618
aI1395
aI0
aa(lp224
I457
aI565
aI7
aI136
aF0.0
aF0.7121212121212122
aF0.45454545454545453
aI394
aI3
aI4782
aI0
aa(lp225
I146599
aI3373
aI199
aI406
aF0.0
aF0.8
aF0.64
aI486
aI4824
aI260446
aI1
aa(lp226
I1460
aI905
aI199
aI122
aF0.0
aF0.89
aF0.4
aI21
aI90
aI8435
aI0
aa(lp227
I833179
aI1109
aI199
aI12772
aF0.0
aF0.375
aF0.77
aI4350
aI11257
aI9588
aI1
aa(lp228
I287753
aI907
aI199
aI4877
aF0.0
aF0.215
aF0.92
aI3101
aI3984
aI1679
aI1
aa(lp229
I43982
aI1283
aI199
aI3822
aF0.0
aF0.675
aF0.585
aI634
aI1283
aI1771
aI1
aa(lp230
I68521
aI9824
aI199
aI11451
aF0.0
aF0.35
aF0.785
aI4172
aI1243
aI4127
aI1
aa(lp231
I1157
aI1925
aI199
aI1899
aF0.0
aF0.47
aF0.78
aI201
aI66
aI4652
aI0
aa(lp232
I167493
aI739
aI199
aI3151
aF0.0
aF0.87
aF0.26
aI516
aI258
aI907
aI0
aa(lp233
I188690
aI9552
aI199
aI3304
aF0.0
aF0.57
aF0.685
aI4039
aI3877
aI9147
aI1
aa(lp234
I117392
aI1387
aI199
aI1405
aF0.0
aF0.605
aF0.745
aI1651
aI3069
aI4536
aI1
aa(lp235
I27967
aI1097
aI198
aI292
aF0.0
aF0.6130653266331658
aF0.6934673366834171
aI1396
aI739
aI6493
aI1
aa(lp236
I19065
aI870
aI57
aI1023
aF0.0
aF0.4321608040201005
aF0.2914572864321608
aI931
aI477
aI850
aI0
aa(lp237
I55
aI189
aI22
aI55
aF0.0
aF0.3783783783783784
aF0.7702702702702703
aI33
aI1
aI79
aI0
aa(lp238
I9009
aI2317
aI199
aI3974
aF0.0
aF0.67
aF0.85
aI311
aI338
aI1092
aI0
aa(lp239
I26790
aI357
aI108
aI676
aF0.0
aF0.365
aF0.75
aI2124
aI487
aI5703
aI1
aa(lp240
I901
aI305
aI11
aI248
aF0.0
aF0.6180904522613065
aF0.41708542713567837
aI45
aI15
aI1074
aI0
aa(lp241
I11564
aI914
aI199
aI3009
aF0.0
aF0.415
aF0.76
aI876
aI358
aI1413
aI1
aa(lp242
I150452
aI1449
aI199
aI26198
aF0.0
aF0.635
aF0.715
aI1352
aI3468
aI948
aI1
aa(lp243
I41819
aI831
aI199
aI7837
aF0.0
aF0.54
aF0.74
aI928
aI644
aI1079
aI1
aa(lp244
I6620
aI2277
aI94
aI962
aF0.0
aF0.7889447236180904
aF0.5125628140703518
aI246
aI357
aI355
aI1
aa(lp245
I8759
aI983
aI166
aI522
aF0.0
aF0.71
aF0.69
aI793
aI270
aI3133
aI1
aa(lp246
I5740
aI1741
aI199
aI4970
aF0.0
aF0.45
aF0.82
aI304
aI127
aI1019
aI0
aa(lp247
I79298
aI534
aI199
aI1292
aF0.0
aF0.655
aF0.565
aI580
aI3135
aI1126
aI1
aa(lp248
I63563
aI114
aI65
aI12
aF0.0
aF0.045
aF0.8
aI147
aI198
aI140
aI0
aa(lp249
I46298
aI1328
aI150
aI5511
aF0.0
aF0.525
aF0.78
aI1635
aI1271
aI3171
aI1
aa(lp250
I43728
aI604
aI148
aI729
aF0.0
aF0.655
aF0.745
aI4306
aI1124
aI5118
aI1
aa(lp251
I396080
aI3858
aI199
aI4830
aF0.0
aF0.3
aF0.92
aI1218
aI3408
aI1249
aI1
aa(lp252
I1209970
aI40426
aI199
aI2999
aF0.0
aF0.545
aF0.62
aI3042
aI5076
aI2130
aI1
aa(lp253
I80935
aI210
aI9
aI459
aF0.0
aF0.335
aF0.69
aI641
aI231
aI1960
aI0
aa(lp254
I6061
aI525
aI92
aI65
aF0.0
aF0.53
aF0.44
aI122
aI98
aI503
aI1
aa(lp255
I1285878
aI5514
aI199
aI13956
aF0.0
aF0.68
aF0.495
aI678416
aI13225
aI515328
aI1
aa(lp256
I11194
aI2541
aI199
aI1528
aF0.0
aF0.37
aF0.52
aI724
aI270
aI23325
aI0
aa(lp257
I3864736
aI1345
aI199
aI5386
aF0.0
aF0.705
aF0.385
aI22767
aI23172
aI46877
aI1
aa(lp258
I6319571
aI24832
aI199
aI2827
aF0.0
aF0.52
aF0.58
aI68666
aI26361
aI80885
aI1
aa(lp259
I14042
aI839
aI199
aI711
aF0.0
aF0.86
aF0.35
aI325
aI284
aI9749
aI1
aa(lp260
I10443
aI552
aI117
aI1339
aF0.0
aF0.795
aF0.575
aI1692
aI291
aI8609
aI1
aa(lp261
I4632
aI1639
aI199
aI855
aF0.0
aF0.505
aF0.685
aI240
aI189
aI2855
aI0
aa(lp262
I5999
aI1062
aI48
aI712
aF0.0
aF0.695
aF0.7
aI1046
aI178
aI13484
aI0
aa(lp263
I2286
aI1190
aI99
aI125
aF0.0
aF0.31
aF0.77
aI293
aI87
aI612
aI0
aasS'label'
p264
(lp265
I2
aI2
aI2
aI2
aI2
aI2
aI2
aI2
aI2
aI2
aI2
aI2
aI2
aI2
aI2
aI2
aI2
aI2
aI2
aI2
aI2
aI2
aI2
aI2
aI2
aI2
aI2
aI2
aI2
aI2
aI2
aI2
aI2
aI2
aI2
aI2
aI2
aI2
aI2
aI2
aI2
aI2
aI2
aI2
aI2
aI2
aI2
aI2
aI2
aI2
aI2
aI2
aI2
aI2
aI2
aI2
aI2
aI2
aI2
aI2
aI2
aI2
aI2
aI2
aI2
aI2
aI2
aI2
aI2
aI2
aI2
aI2
aI2
aI2
aI2
aI2
aI2
aI2
aI2
aI2
aI2
aI2
aI2
aI2
aI2
aI2
aI2
aI2
aI2
aI2
aI2
aI2
aI2
aI2
aI2
aI2
aI2
aI2
aI2
aI2
aI2
aI2
aI2
aI2
aI2
aI2
aI2
aI2
aI2
aI2
aI2
aI2
aI2
aI2
aI2
aI2
aI2
aI2
aI2
aI2
aI2
aI2
aI2
aI2
aI2
aI2
aI2
aI2
aI2
aI2
aI2
aI2
aI2
aI2
aI2
aI2
aI2
aI2
aI2
aI2
aI2
aI2
aI2
aI2
aI2
aI2
aI2
aI2
aI2
aI2
aI2
aI2
aI2
aI2
aI2
aI2
aI2
aI2
aI2
aI2
aI2
aI2
aI2
aI2
aI2
aI2
aI2
aI2
aI2
aI2
aI2
aI2
aI2
aI2
aI2
aI2
aI2
aI2
aI2
aI2
aI2
aI2
aI2
aI2
aI2
aI2
aI2
aI2
aI2
aI2
aI2
aI2
aI2
aI2
aI2
aI2
aI2
aI2
aI2
aI2
aI2
aI2
aI2
aI2
aI2
aI2
aI2
aI2
aI2
aI2
aI2
aI2
aI2
aI2
aI2
aI2
aI2
aI2
aI2
aI2
aI2
aI2
aI2
aI2
aI2
aI2
aI2
aI2
aI2
aI2
aI2
aI2
aI2
aI2
aI2
aI2
aI2
aI2
aI2
aI2
aI2
aI2
aI2
aI2
aI2
aI2
aI2
aI2
aI2
aI2
aI2
aI2
aI2
aI2
aI2
aI2
aI2
aI2
aI2
aI2
aI2
as.