(dp0
S'feature'
p1
(lp2
(lp3
I1439
aI2071
aI199
aI4211
aF0.0
aF0.39
aF0.1
aI74
aI41
aI71849
aI0
aa(lp4
I49
aI219
aI18
aI29
aF0.0
aF0.3333333333333333
aF0.4215686274509804
aI24
aI0
aI57
aI0
aa(lp5
I605
aI505
aI85
aI3175
aF0.0
aF0.63
aF0.13
aI401
aI4
aI560062
aI0
aa(lp6
I795
aI2071
aI109
aI55
aF0.0
aF0.135
aF0.28
aI18
aI2
aI59169
aI0
aa(lp7
I305
aI1113
aI199
aI216
aF0.0
aF0.67
aF0.29
aI48
aI7
aI98011
aI0
aa(lp8
I662
aI989
aI199
aI36388
aF0.0
aF0.87
aF0.285
aI35
aI14
aI1345728
aI0
aa(lp9
I3505
aI3515
aI199
aI5143
aF0.0
aF0.74
aF0.29
aI181
aI161
aI14957
aI0
aa(lp10
I3571
aI5001
aI151
aI4510
aF0.0
aF0.375
aF0.72
aI188
aI5
aI68192
aI0
aa(lp11
I55
aI61
aI199
aI4731
aF0.0
aF0.245
aF0.785
aI21
aI4
aI152465
aI0
aa(lp12
I1089
aI2850
aI199
aI12
aF0.0
aF0.125
aF0.065
aI19
aI16
aI51082
aI0
aa(lp13
I4260
aI3014
aI199
aI69364
aF0.0
aF0.98
aF0.015
aI508
aI29
aI27
aI0
aa(lp14
I1081
aI543
aI199
aI20987
aF0.0
aF0.49
aF0.105
aI108
aI14
aI235325
aI0
aa(lp15
I1159
aI1434
aI197
aI5609
aF0.0
aF0.7171717171717171
aF0.4292929292929293
aI1
aI5
aI2834515
aI0
aa(lp16
I22
aI206
aI133
aI886
aF0.0
aF0.26119402985074625
aF0.29850746268656714
aI28
aI0
aI84761
aI0
aa(lp17
I1252
aI1263
aI194
aI10195
aF0.0
aF0.5846153846153846
aF0.13333333333333333
aI25
aI14
aI1204424
aI0
aa(lp18
I550
aI233
aI199
aI156
aF0.0
aF0.465
aF0.46
aI45
aI23
aI667562
aI0
aa(lp19
I2073
aI104
aI197
aI51893
aF0.0
aF0.6111111111111112
aF0.26262626262626265
aI377
aI11
aI2342616
aI0
aa(lp20
I324
aI321
aI199
aI10349
aF0.0
aF0.765
aF0.59
aI37
aI22
aI613164
aI0
aa(lp21
I2470
aI3172
aI199
aI39029
aF0.0
aF0.75
aF0.405
aI140
aI14
aI3006
aI0
aa(lp22
I662
aI653
aI196
aI3664
aF0.0
aF0.4263959390862944
aF0.4010152284263959
aI56
aI9
aI220689
aI0
aa(lp23
I66
aI314
aI199
aI264
aF0.0
aF0.96
aF0.42
aI151
aI0
aI1243
aI0
aa(lp24
I648
aI727
aI199
aI4528
aF0.0
aF0.61
aF0.265
aI64
aI28
aI202646
aI0
aa(lp25
I126
aI133
aI15
aI387
aF0.0
aF0.45918367346938777
aF0.07142857142857142
aI122
aI1
aI699843
aI0
aa(lp26
I5191
aI835
aI199
aI122
aF0.0
aF0.545
aF0.325
aI1587
aI128
aI770
aI0
aa(lp27
I104
aI433
aI28
aI4831
aF0.0
aF0.6887755102040817
aF0.21428571428571427
aI78
aI3
aI3633099
aI0
aa(lp28
I563
aI977
aI198
aI42502
aF0.0
aF1.0
aF0.08040201005025126
aI15
aI49
aI113602
aI0
aa(lp29
I1340
aI1137
aI199
aI5814
aF0.0
aF0.565
aF0.27
aI41
aI2
aI1584289
aI0
aa(lp30
I5155
aI980
aI198
aI2785
aF0.0
aF0.5025125628140703
aF0.46733668341708545
aI134
aI42
aI454300
aI0
aa(lp31
I2467
aI147
aI63
aI2606
aF0.0
aF0.1386861313868613
aF0.051094890510948905
aI33044
aI17
aI13211
aI0
aa(lp32
I3419
aI4950
aI199
aI16257
aF0.0
aF0.96
aF0.25
aI9
aI66
aI532641
aI0
aa(lp33
I1556
aI1531
aI199
aI8678
aF0.0
aF0.68
aF0.37
aI26
aI158
aI1827893
aI0
aa(lp34
I650
aI815
aI198
aI7495
aF0.0
aF0.6733668341708543
aF0.3065326633165829
aI84
aI59
aI76697
aI0
aa(lp35
I174
aI107
aI199
aI11878
aF0.0
aF0.545
aF0.175
aI304
aI3
aI1687747
aI0
aa(lp36
I102
aI46
aI199
aI2251
aF0.0
aF0.445
aF0.17
aI58
aI3
aI2556368
aI0
aa(lp37
I60
aI396
aI55
aI331
aF0.0
aF0.255
aF0.175
aI108
aI1
aI53415
aI0
aa(lp38
I477
aI2067
aI199
aI3221
aF0.0
aF0.955
aF0.57
aI60
aI12
aI323606
aI0
aa(lp39
I238
aI122
aI199
aI1
aF0.0
aF0.0
aF1.0
aI2
aI4
aI0
aI0
aa(lp40
I180
aI113
aI199
aI6096
aF0.0
aF0.56
aF0.145
aI342
aI0
aI2086506
aI0
aa(lp41
I910
aI526
aI196
aI32224
aF0.0
aF0.583756345177665
aF0.05583756345177665
aI49
aI7
aI923254
aI0
aa(lp42
I7691
aI727
aI191
aI30
aF0.0
aF0.5364583333333334
aF0.28125
aI1660
aI60
aI210806
aI0
aa(lp43
I797
aI1983
aI199
aI134
aF0.0
aF0.025
aF0.985
aI2
aI6
aI29578
aI0
aa(lp44
I1078
aI1067
aI199
aI6482
aF0.0
aF0.455
aF0.125
aI167
aI24
aI55893
aI0
aa(lp45
I589
aI261
aI50
aI6504
aF0.0
aF0.6130653266331658
aF0.09547738693467336
aI164
aI34
aI364380
aI0
aa(lp46
I208
aI122
aI199
aI1
aF0.0
aF0.0
aF1.0
aI2
aI2
aI1
aI0
aa(lp47
I252
aI69
aI195
aI1145
aF0.0
aF0.673469387755102
aF0.20408163265306123
aI18
aI2
aI2682858
aI0
aa(lp48
I702
aI715
aI198
aI7301
aF0.0
aF0.5628140703517588
aF0.3015075376884422
aI11
aI4
aI1500456
aI0
aa(lp49
I165
aI271
aI199
aI122
aF0.0
aF0.375
aF1.0
aI33
aI39
aI5
aI0
aa(lp50
I6509
aI4405
aI197
aI62792
aF0.0
aF0.4292929292929293
aF0.15656565656565657
aI1668
aI57
aI474209
aI0
aa(lp51
I472
aI292
aI198
aI2049
aF0.0
aF0.6482412060301508
aF0.11557788944723618
aI156
aI11
aI1834389
aI0
aa(lp52
I652
aI459
aI198
aI6537
aF0.0
aF0.6934673366834171
aF0.3417085427135678
aI478
aI0
aI2441814
aI0
aa(lp53
I108
aI189
aI38
aI1781
aF0.0
aF0.94
aF0.815
aI224
aI3
aI139
aI0
aa(lp54
I114
aI296
aI65
aI914
aF0.0
aF0.5577889447236181
aF0.1457286432160804
aI251
aI0
aI281657
aI0
aa(lp55
I1387
aI487
aI107
aI10228
aF0.0
aF0.6717171717171717
aF0.15656565656565657
aI1549
aI3
aI1184926
aI0
aa(lp56
I934
aI157
aI199
aI23657
aF0.0
aF0.685
aF0.185
aI409
aI6
aI83226
aI0
aa(lp57
I202
aI158
aI199
aI1
aF0.0
aF0.0
aF1.0
aI2
aI5
aI3
aI0
aa(lp58
I1677
aI1004
aI198
aI11538
aF0.0
aF0.6130653266331658
aF0.17587939698492464
aI227
aI5
aI519654
aI0
aa(lp59
I376
aI771
aI199
aI31200
aF0.0
aF0.82
aF0.095
aI424
aI15
aI28080
aI0
aa(lp60
I57
aI237
aI8
aI53
aF0.0
aF0.6756756756756757
aF0.5135135135135135
aI54
aI1
aI153
aI0
aa(lp61
I242
aI227
aI195
aI1178
aF0.0
aF0.40703517587939697
aF0.07537688442211055
aI275
aI0
aI2103993
aI0
aa(lp62
I206
aI121
aI199
aI1
aF0.0
aF0.0
aF1.0
aI1
aI3
aI0
aI0
aa(lp63
I244
aI272
aI188
aI2884
aF0.0
aF0.7354497354497355
aF0.2328042328042328
aI28
aI6
aI5272846
aI0
aa(lp64
I345
aI307
aI198
aI5808
aF0.0
aF0.8844221105527639
aF0.1708542713567839
aI37
aI5
aI1960195
aI0
aa(lp65
I65
aI74
aI199
aI1207
aF0.0
aF0.225
aF0.14
aI17
aI7
aI440382
aI0
aa(lp66
I7636
aI983
aI199
aI5701
aF0.0
aF0.495
aF0.325
aI102
aI33
aI591201
aI0
aa(lp67
I1143
aI130
aI199
aI3191
aF0.0
aF0.54
aF0.15
aI11
aI18
aI245804
aI0
aa(lp68
I9487
aI1384
aI199
aI5924
aF0.0
aF0.715
aF0.585
aI1407
aI322
aI49493
aI1
aa(lp69
I1357
aI886
aI198
aI56806
aF0.0
aF0.6432160804020101
aF0.18592964824120603
aI1177
aI3
aI340287
aI0
aa(lp70
I440
aI143
aI199
aI4035
aF0.0
aF0.845
aF0.075
aI337
aI0
aI1485151
aI0
aa(lp71
I649
aI504
aI199
aI6008
aF0.0
aF0.89
aF0.32
aI64
aI2
aI4417109
aI0
aa(lp72
I230
aI218
aI117
aI2394
aF0.0
aF0.558974358974359
aF0.08717948717948718
aI669
aI0
aI1172482
aI0
aa(lp73
I222
aI122
aI199
aI1
aF0.0
aF0.0
aF1.0
aI3
aI8
aI0
aI0
aa(lp74
I813
aI402
aI199
aI21409
aF0.0
aF0.55
aF0.27
aI125
aI4
aI4438973
aI0
aa(lp75
I488
aI334
aI198
aI32785
aF0.0
aF0.7939698492462312
aF0.18090452261306533
aI36
aI6
aI2119317
aI0
aa(lp76
I364
aI325
aI196
aI19733
aF0.0
aF0.8426395939086294
aF0.3756345177664975
aI73
aI2
aI4132328
aI0
aa(lp77
I478
aI461
aI9
aI14426
aF0.0
aF0.235
aF0.015
aI57
aI0
aI58480
aI0
aa(lp78
I5664
aI2892
aI199
aI43773
aF0.0
aF0.915
aF0.25
aI79
aI464
aI24194
aI0
aa(lp79
I348
aI304
aI199
aI4196
aF0.0
aF0.495
aF0.135
aI111
aI1
aI1251013
aI0
aa(lp80
I319
aI154
aI199
aI32909
aF0.0
aF0.685
aF0.115
aI89
aI9
aI419974
aI0
aa(lp81
I1950
aI1960
aI198
aI10672
aF0.0
aF0.6331658291457286
aF0.40703517587939697
aI30
aI5
aI2016796
aI0
aa(lp82
I225
aI122
aI199
aI1
aF0.0
aF0.0
aF1.0
aI4
aI2
aI3
aI0
aa(lp83
I629
aI149
aI198
aI31180
aF0.0
aF0.6733668341708543
aF0.1306532663316583
aI419
aI3
aI723170
aI0
aa(lp84
I1244
aI1071
aI197
aI1272
aF0.0
aF0.5757575757575758
aF0.30303030303030304
aI19
aI8
aI2244151
aI0
aa(lp85
I13010
aI13198
aI176
aI4595
aF0.0
aF0.855
aF0.265
aI43
aI251
aI159454
aI0
aa(lp86
I2586
aI1897
aI118
aI1056
aF0.0
aF0.7916666666666666
aF0.525
aI29
aI159
aI226440
aI0
aa(lp87
I82
aI14
aI199
aI8
aF0.0
aF0.015
aF1.0
aI19
aI15
aI2
aI0
aa(lp88
I886
aI412
aI192
aI14687
aF0.0
aF0.7409326424870466
aF0.31088082901554404
aI145
aI3
aI1441163
aI0
aa(lp89
I116
aI108
aI120
aI685
aF0.0
aF0.5357142857142857
aF0.04591836734693878
aI79
aI0
aI610635
aI0
aa(lp90
I3232
aI37
aI199
aI1
aF0.0
aF0.0
aF1.0
aI4
aI173
aI6
aI0
aa(lp91
I321
aI556
aI60
aI340
aF0.0
aF0.21
aF0.85
aI27
aI33
aI94
aI0
aa(lp92
I4995
aI2728
aI199
aI12380
aF0.0
aF0.905
aF0.175
aI312
aI82
aI205385
aI0
aa(lp93
I419
aI348
aI124
aI14704
aF0.0
aF0.5858585858585859
aF0.015151515151515152
aI174
aI8
aI961014
aI0
aa(lp94
I177
aI552
aI199
aI15246
aF0.0
aF0.72
aF0.165
aI202
aI0
aI2890454
aI0
aa(lp95
I363
aI416
aI199
aI3798
aF0.0
aF0.51
aF0.16
aI16
aI6
aI1224781
aI0
aa(lp96
I361
aI280
aI199
aI4199
aF0.0
aF0.955
aF0.21
aI9
aI24
aI1319836
aI0
aa(lp97
I302
aI632
aI199
aI1408
aF0.0
aF0.735
aF0.405
aI70
aI22
aI888822
aI0
aa(lp98
I305
aI541
aI199
aI20411
aF0.0
aF0.95
aF0.32
aI38
aI25
aI693584
aI0
aa(lp99
I38
aI45
aI199
aI6824
aF0.0
aF0.89
aF0.73
aI39
aI8
aI82308
aI0
aa(lp100
I200
aI122
aI199
aI1
aF0.0
aF0.0
aF1.0
aI1
aI1
aI0
aI0
aa(lp101
I858
aI218
aI199
aI23490
aF0.0
aF0.83
aF0.065
aI568
aI12
aI2585
aI0
aa(lp102
I753
aI1523
aI199
aI1531
aF0.0
aF0.525
aF0.28
aI30
aI3
aI638358
aI0
aa(lp103
I1367
aI802
aI198
aI40415
aF0.0
aF0.8743718592964824
aF0.36180904522613067
aI18
aI8
aI3126858
aI0
aa(lp104
I1055
aI665
aI199
aI16779
aF0.0
aF0.69
aF0.06
aI601
aI2
aI392351
aI0
aa(lp105
I709
aI574
aI172
aI9067
aF0.0
aF0.6294416243654822
aF0.04568527918781726
aI755
aI2
aI553511
aI0
aa(lp106
I1282
aI951
aI196
aI5643
aF0.0
aF0.6903553299492385
aF0.40609137055837563
aI129
aI2
aI4388176
aI0
aa(lp107
I20
aI145
aI88
aI835
aF0.0
aF0.785
aF0.27
aI103
aI1
aI191014
aI0
aa(lp108
I497
aI249
aI199
aI5351
aF0.0
aF0.94
aF0.415
aI19
aI2
aI5450883
aI0
aa(lp109
I477
aI349
aI199
aI2785
aF0.0
aF0.46
aF0.095
aI1444
aI0
aI204601
aI0
aa(lp110
I528
aI741
aI40
aI5908
aF0.0
aF0.6130653266331658
aF0.09547738693467336
aI321
aI8
aI111103
aI0
aa(lp111
I135
aI310
aI196
aI252
aF0.0
aF0.9289340101522843
aF0.03553299492385787
aI2
aI1
aI1147381
aI0
aa(lp112
I275
aI529
aI196
aI17986
aF0.0
aF0.9137055837563451
aF0.41116751269035534
aI38
aI4
aI8006049
aI0
aa(lp113
I214
aI446
aI57
aI373
aF0.0
aF0.705
aF0.42
aI106
aI22
aI113703
aI0
aa(lp114
I74
aI306
aI199
aI1908
aF0.0
aF0.5
aF0.405
aI12
aI1
aI17052
aI0
aa(lp115
I931
aI596
aI199
aI33992
aF0.0
aF0.86
aF0.205
aI29
aI8
aI3526665
aI0
aa(lp116
I1447
aI833
aI198
aI43669
aF0.0
aF0.6633165829145728
aF0.2864321608040201
aI109
aI7
aI1489168
aI0
aa(lp117
I303
aI359
aI196
aI11354
aF0.0
aF0.8274111675126904
aF0.1065989847715736
aI103
aI3
aI2980786
aI0
aa(lp118
I291
aI575
aI199
aI90
aF0.0
aF0.02
aF0.545
aI151
aI2
aI51
aI0
aa(lp119
I1142
aI75
aI196
aI35963
aF0.0
aF0.7918781725888325
aF0.3401015228426396
aI136
aI9
aI5761033
aI0
aa(lp120
I235
aI176
aI199
aI8489
aF0.0
aF0.725
aF0.285
aI67
aI3
aI2930201
aI0
aa(lp121
I640
aI2361
aI199
aI131748
aF0.0
aF0.95
aF0.225
aI74
aI12
aI2812563
aI0
aa(lp122
I923
aI393
aI199
aI13432
aF0.0
aF0.62
aF0.25
aI348
aI5
aI602883
aI0
aa(lp123
I521
aI293
aI155
aI5288
aF0.0
aF0.678391959798995
aF0.10050251256281408
aI618
aI0
aI277884
aI0
aa(lp124
I301
aI826
aI42
aI160
aF0.0
aF0.435
aF0.785
aI53
aI7
aI204464
aI0
aa(lp125
I289
aI1122
aI199
aI35385
aF0.0
aF0.545
aF0.52
aI72
aI17
aI1027060
aI0
aa(lp126
I263
aI171
aI95
aI13657
aF0.0
aF0.8666666666666667
aF0.10256410256410256
aI73
aI0
aI1818327
aI0
aa(lp127
I367
aI91
aI198
aI8592
aF0.0
aF0.7939698492462312
aF0.18592964824120603
aI92
aI2
aI289929
aI0
aa(lp128
I1559
aI239
aI199
aI1888
aF0.0
aF0.735
aF0.245
aI25
aI8
aI609127
aI0
aa(lp129
I259
aI122
aI199
aI1
aF0.0
aF0.0
aF1.0
aI1
aI8
aI0
aI0
aa(lp130
I806
aI313
aI199
aI5497
aF0.0
aF0.525
aF0.195
aI613
aI12
aI181647
aI0
aa(lp131
I1064
aI464
aI194
aI12454
aF0.0
aF0.7435897435897436
aF0.3641025641025641
aI67
aI3
aI3763736
aI0
aa(lp132
I4237
aI1671
aI198
aI40991
aF0.0
aF0.7738693467336684
aF0.18592964824120603
aI287
aI122
aI919489
aI0
aa(lp133
I693
aI737
aI199
aI4600
aF0.0
aF0.75
aF0.35
aI33
aI189
aI1231645
aI0
aa(lp134
I1974
aI886
aI199
aI1536
aF0.0
aF0.7
aF0.47
aI5
aI10
aI2874257
aI0
aa(lp135
I308
aI315
aI77
aI1554
aF0.0
aF0.49748743718592964
aF0.4371859296482412
aI84
aI1
aI2861003
aI0
aa(lp136
I104
aI206
aI56
aI612
aF0.0
aF0.628140703517588
aF0.11055276381909548
aI177
aI3
aI297249
aI0
aa(lp137
I1858
aI1310
aI197
aI7171
aF0.0
aF0.6666666666666666
aF0.26262626262626265
aI1969
aI0
aI5414512
aI0
aa(lp138
I500
aI399
aI24
aI3024
aF0.0
aF0.694300518134715
aF0.17616580310880828
aI176
aI1
aI1344850
aI0
aa(lp139
I87
aI129
aI199
aI154
aF0.0
aF0.99
aF0.56
aI285
aI3
aI24735
aI0
aa(lp140
I379
aI2166
aI199
aI1161
aF0.0
aF0.86
aF0.335
aI199
aI10
aI566471
aI0
aa(lp141
I4925
aI5416
aI198
aI18209
aF0.0
aF0.5477386934673367
aF0.5979899497487438
aI46
aI277
aI94823
aI0
aa(lp142
I404
aI198
aI198
aI18858
aF0.0
aF0.6482412060301508
aF0.06532663316582915
aI542
aI6
aI216053
aI0
aa(lp143
I424
aI520
aI197
aI21833
aF0.0
aF0.6161616161616161
aF0.16161616161616163
aI606
aI2
aI1570605
aI0
aa(lp144
I625
aI416
aI197
aI7043
aF0.0
aF0.7626262626262627
aF0.2777777777777778
aI25
aI10
aI1965024
aI0
aa(lp145
I715
aI1762
aI198
aI4847
aF0.0
aF0.7587939698492462
aF0.2964824120603015
aI332
aI1
aI5216
aI0
aa(lp146
I1223
aI191
aI199
aI88
aF0.0
aF0.63
aF0.075
aI111
aI4
aI230199
aI0
aa(lp147
I785
aI2241
aI199
aI7836
aF0.0
aF0.95
aF0.27
aI7
aI19
aI4496197
aI0
aa(lp148
I377
aI231
aI194
aI7987
aF0.0
aF0.7589743589743589
aF0.29743589743589743
aI171
aI2
aI3216295
aI0
aa(lp149
I26
aI250
aI0
aI0
aF0.0
aF0.0
aF0.0
aI0
aI0
aI0
aI0
aa(lp150
I1113
aI1777
aI199
aI41402
aF0.0
aF0.83
aF0.335
aI13
aI20
aI3359653
aI0
aa(lp151
I1040
aI398
aI198
aI22692
aF0.0
aF0.7889447236180904
aF0.135678391959799
aI280
aI7
aI2000060
aI0
aa(lp152
I673
aI281
aI195
aI6298
aF0.0
aF0.7806122448979592
aF0.12755102040816327
aI474
aI2
aI676405
aI0
aa(lp153
I1300
aI1452
aI199
aI8932
aF0.0
aF0.76
aF0.135
aI116
aI68
aI121511
aI0
aa(lp154
I429
aI685
aI199
aI27863
aF0.0
aF0.825
aF0.545
aI16
aI8
aI6277
aI0
aa(lp155
I240
aI187
aI176
aI807
aF0.0
aF0.475
aF0.46
aI340
aI34
aI2064360
aI0
aa(lp156
I383
aI316
aI199
aI3901
aF0.0
aF0.755
aF0.135
aI469
aI2
aI529072
aI0
aa(lp157
I58
aI52
aI3
aI118
aF0.0
aF0.2814070351758794
aF0.12562814070351758
aI32
aI1
aI356
aI0
aa(lp158
I203
aI331
aI199
aI4443
aF0.0
aF0.78
aF0.12
aI55
aI22
aI683470
aI0
aa(lp159
I209
aI122
aI199
aI1
aF0.0
aF0.0
aF1.0
aI3
aI5
aI2
aI0
aa(lp160
I974
aI480
aI199
aI7495
aF0.0
aF0.61
aF0.26
aI190
aI94
aI41092
aI0
aa(lp161
I56
aI42
aI198
aI5571
aF0.0
aF0.9949748743718593
aF0.3165829145728643
aI7
aI9
aI717245
aI0
aa(lp162
I2115
aI1132
aI194
aI43924
aF0.0
aF0.8717948717948718
aF0.29743589743589743
aI95
aI2
aI3023406
aI0
aa(lp163
I1265
aI987
aI199
aI12971
aF0.0
aF0.625
aF0.435
aI15
aI7
aI1127795
aI0
aa(lp164
I276
aI346
aI96
aI12055
aF0.0
aF0.515
aF0.33
aI158
aI2
aI1952200
aI0
aa(lp165
I8385
aI7962
aI195
aI132808
aF0.0
aF0.8112244897959183
aF0.03571428571428571
aI415
aI130
aI50550
aI0
aa(lp166
I273
aI1881
aI152
aI613
aF0.0
aF0.66
aF0.475
aI62
aI5
aI61068
aI0
aa(lp167
I1357
aI776
aI198
aI12731
aF0.0
aF0.4723618090452261
aF0.23618090452261306
aI492
aI26
aI104826
aI0
aa(lp168
I424
aI522
aI197
aI10664
aF0.0
aF0.7575757575757576
aF0.20202020202020202
aI43
aI3
aI5943152
aI0
aa(lp169
I473
aI368
aI81
aI4383
aF0.0
aF0.87
aF0.23
aI152
aI12
aI26024
aI0
aa(lp170
I215
aI122
aI199
aI1
aF0.0
aF0.0
aF1.0
aI10
aI4
aI1
aI0
aa(lp171
I677
aI405
aI57
aI6637
aF0.0
aF0.5303030303030303
aF0.09090909090909091
aI208
aI5
aI324567
aI0
aa(lp172
I3741
aI865
aI199
aI43867
aF0.0
aF0.57
aF0.315
aI548
aI74
aI896717
aI0
aa(lp173
I615
aI493
aI199
aI9167
aF0.0
aF0.455
aF0.4
aI96
aI53
aI1627754
aI0
aa(lp174
I298
aI305
aI198
aI3607
aF0.0
aF0.18592964824120603
aF0.010050251256281407
aI81
aI1
aI286757
aI0
aa(lp175
I490
aI634
aI199
aI3962
aF0.0
aF0.54
aF0.14
aI169
aI1
aI396580
aI0
aa(lp176
I4409
aI705
aI199
aI2393
aF0.0
aF0.785
aF0.09
aI25
aI27
aI132526
aI0
aa(lp177
I31
aI25
aI52
aI582
aF0.0
aF0.89
aF0.73
aI80
aI2
aI25
aI0
aa(lp178
I1427
aI4459
aI199
aI25661
aF0.0
aF0.765
aF0.2
aI87
aI57
aI111678
aI0
aa(lp179
I332
aI781
aI198
aI5587
aF0.0
aF0.628140703517588
aF0.07035175879396985
aI67
aI2
aI1263011
aI0
aa(lp180
I1302
aI2094
aI199
aI7584
aF0.0
aF0.94
aF0.36
aI13
aI36
aI375385
aI0
aa(lp181
I1302
aI1892
aI199
aI16
aF0.0
aF0.78
aF0.505
aI36
aI87
aI31219
aI0
aa(lp182
I824
aI789
aI199
aI25006
aF0.0
aF0.67
aF0.075
aI470
aI20
aI1866024
aI0
aa(lp183
I686
aI355
aI199
aI12583
aF0.0
aF0.53
aF0.27
aI116
aI26
aI245625
aI0
aa(lp184
I514
aI450
aI76
aI4505
aF0.0
aF0.6532663316582915
aF0.20603015075376885
aI190
aI8
aI490601
aI0
aa(lp185
I467
aI356
aI190
aI36173
aF0.0
aF0.8010471204188482
aF0.24083769633507854
aI122
aI6
aI2719701
aI0
aa(lp186
I1034
aI46
aI145
aI24687
aF0.0
aF0.815068493150685
aF0.22602739726027396
aI12
aI7
aI819167
aI0
aa(lp187
I621
aI311
aI142
aI9019
aF0.0
aF0.54
aF0.345
aI551
aI0
aI1113865
aI0
aa(lp188
I364
aI189
aI74
aI9145
aF0.0
aF0.2233502538071066
aF0.06598984771573604
aI824
aI5
aI1115798
aI0
aa(lp189
I4068
aI1272
aI199
aI110009
aF0.0
aF0.75
aF0.03
aI146
aI35
aI101990
aI0
aa(lp190
I690
aI2791
aI74
aI6564
aF0.0
aF0.755
aF0.32
aI360
aI12
aI249460
aI0
aa(lp191
I862
aI950
aI199
aI496
aF0.0
aF0.615
aF0.725
aI54
aI35
aI74996
aI0
aa(lp192
I20044
aI17606
aI199
aI88
aF0.0
aF0.9
aF0.705
aI47
aI1063
aI129064
aI0
aa(lp193
I853
aI135
aI197
aI3022
aF0.0
aF0.5808080808080808
aF0.2676767676767677
aI40
aI9
aI714565
aI0
aa(lp194
I904
aI561
aI199
aI13831
aF0.0
aF0.61
aF0.21
aI635
aI4
aI2371616
aI0
aa(lp195
I503
aI251
aI199
aI12309
aF0.0
aF0.77
aF0.245
aI254
aI11
aI882335
aI0
aa(lp196
I220
aI122
aI199
aI1
aF0.0
aF0.0
aF1.0
aI2
aI3
aI0
aI0
aa(lp197
I574
aI589
aI199
aI8488
aF0.0
aF0.795
aF0.455
aI5
aI5
aI2526065
aI0
aa(lp198
I2138
aI433
aI193
aI71253
aF0.0
aF0.5103092783505154
aF0.19072164948453607
aI300
aI7
aI2446207
aI0
aa(lp199
I414
aI565
aI198
aI4489
aF0.0
aF0.6381909547738693
aF0.10552763819095477
aI353
aI3
aI959641
aI0
aa(lp200
I215
aI178
aI199
aI6431
aF0.0
aF0.49
aF0.07
aI337
aI17
aI215808
aI0
aa(lp201
I2247
aI1654
aI199
aI4624
aF0.0
aF0.61
aF0.23
aI71
aI4
aI241152
aI0
aa(lp202
I879
aI2006
aI119
aI742
aF0.0
aF0.77
aF0.335
aI123
aI18
aI209809
aI0
aa(lp203
I815
aI334
aI196
aI1714
aF0.0
aF0.48223350253807107
aF0.08629441624365482
aI211
aI5
aI355924
aI0
aa(lp204
I317
aI228
aI198
aI4070
aF0.0
aF0.5678391959798995
aF0.271356783919598
aI372
aI2
aI3738554
aI0
aa(lp205
I408
aI489
aI34
aI7902
aF0.0
aF0.5527638190954773
aF0.2663316582914573
aI1222
aI4
aI5296143
aI0
aa(lp206
I85
aI153
aI198
aI5672
aF0.0
aF0.964824120603015
aF0.1708542713567839
aI9
aI5
aI970879
aI0
aa(lp207
I141
aI383
aI199
aI621
aF0.0
aF0.835
aF0.305
aI78
aI7
aI1311509
aI0
aa(lp208
I391
aI490
aI198
aI22114
aF0.0
aF0.5025125628140703
aF0.05025125628140704
aI117
aI1
aI1858050
aI0
aa(lp209
I283
aI346
aI199
aI5344
aF0.0
aF0.74
aF0.15
aI30
aI2
aI1308121
aI0
aa(lp210
I285
aI240
aI198
aI431
aF0.0
aF0.7487437185929648
aF0.36683417085427134
aI98
aI3
aI215269
aI0
aa(lp211
I1441
aI1777
aI199
aI26122
aF0.0
aF0.67
aF0.12
aI191
aI11
aI1185055
aI0
aa(lp212
I811
aI821
aI198
aI6729
aF0.0
aF0.7236180904522613
aF0.1658291457286432
aI389
aI2
aI1630034
aI0
aa(lp213
I514
aI433
aI199
aI13374
aF0.0
aF0.575
aF0.105
aI386
aI4
aI1314384
aI0
aa(lp214
I693
aI451
aI198
aI28999
aF0.0
aF0.4371859296482412
aF0.05025125628140704
aI1442
aI11
aI561954
aI0
aa(lp215
I43
aI198
aI134
aI532
aF0.0
aF0.885
aF0.135
aI1388
aI0
aI837909
aI0
aa(lp216
I752
aI361
aI199
aI41091
aF0.0
aF0.875
aF0.46
aI45
aI22
aI4356583
aI0
aa(lp217
I458
aI587
aI199
aI10896
aF0.0
aF0.365
aF0.21
aI188
aI3
aI88898
aI0
aa(lp218
I1119
aI1240
aI164
aI51
aF0.0
aF0.785
aF0.715
aI6
aI183
aI42155
aI0
aa(lp219
I1051
aI1094
aI198
aI1401
aF0.0
aF0.6733668341708543
aF0.18090452261306533
aI81
aI3
aI1244386
aI0
aa(lp220
I67
aI231
aI1
aI105
aF0.0
aF0.41919191919191917
aF0.5707070707070707
aI25
aI0
aI15689
aI0
aa(lp221
I270
aI268
aI199
aI8514
aF0.0
aF0.655
aF0.09
aI279
aI9
aI512610
aI0
aa(lp222
I50
aI137
aI199
aI2427
aF0.0
aF0.935
aF0.445
aI57
aI0
aI50072
aI0
aa(lp223
I610
aI198
aI198
aI37465
aF0.0
aF0.7085427135678392
aF0.35175879396984927
aI6
aI16
aI888703
aI0
aa(lp224
I1861
aI1698
aI199
aI10182
aF0.0
aF0.285
aF0.21
aI45
aI4
aI748813
aI0
aa(lp225
I1470
aI698
aI199
aI35975
aF0.0
aF0.655
aF0.08
aI427
aI14
aI1100512
aI0
aa(lp226
I984
aI1561
aI199
aI25885
aF0.0
aF0.72
aF0.24
aI114
aI35
aI1764
aI0
aa(lp227
I359
aI522
aI198
aI1000
aF0.0
aF0.5628140703517588
aF0.32663316582914576
aI45
aI0
aI692593
aI0
aa(lp228
I783
aI617
aI165
aI6001
aF0.0
aF0.4271356783919598
aF0.3165829145728643
aI246
aI3
aI490632
aI0
aa(lp229
I354
aI384
aI199
aI6262
aF0.0
aF0.695
aF0.21
aI16
aI7
aI1469196
aI0
aa(lp230
I630
aI695
aI199
aI971
aF0.0
aF0.945
aF0.305
aI15
aI17
aI3803286
aI0
aa(lp231
I459
aI279
aI122
aI2599
aF0.0
aF0.5050505050505051
aF0.25252525252525254
aI94
aI6
aI988322
aI0
aa(lp232
I140205
aI3529
aI199
aI37975
aF0.0
aF0.88
aF0.22
aI2765
aI1980
aI145471
aI1
aa(lp233
I1505
aI1976
aI199
aI5465
aF0.0
aF0.71
aF0.195
aI125
aI13
aI3255000
aI0
aa(lp234
I2134
aI2590
aI199
aI63481
aF0.0
aF1.0
aF0.47
aI199
aI50
aI65876
aI0
aa(lp235
I686
aI1034
aI199
aI4608
aF0.0
aF0.855
aF0.11
aI192
aI30
aI1295659
aI0
aa(lp236
I534
aI512
aI198
aI6055
aF0.0
aF0.6532663316582915
aF0.24623115577889448
aI238
aI4
aI2094899
aI0
aa(lp237
I338
aI193
aI199
aI13284
aF0.0
aF0.98
aF0.2
aI4
aI10
aI2043383
aI0
aa(lp238
I745
aI516
aI198
aI4643
aF0.0
aF0.49246231155778897
aF0.08542713567839195
aI72
aI3
aI2928348
aI0
aa(lp239
I75
aI160
aI199
aI1371
aF0.0
aF0.09
aF0.055
aI6
aI4
aI42363
aI0
aa(lp240
I420
aI85
aI196
aI5852
aF0.0
aF0.649746192893401
aF0.20304568527918782
aI317
aI1
aI3290935
aI0
aa(lp241
I1352
aI826
aI103
aI5627
aF0.0
aF0.8365384615384616
aF0.20192307692307693
aI12
aI74
aI615656
aI0
aa(lp242
I1059
aI678
aI197
aI7496
aF0.0
aF0.51010101010101
aF0.41414141414141414
aI327
aI4
aI1306205
aI0
aa(lp243
I1490
aI700
aI198
aI15904
aF0.0
aF0.6030150753768844
aF0.2663316582914573
aI130
aI13
aI802471
aI0
aa(lp244
I483
aI381
aI196
aI16991
aF0.0
aF0.9289340101522843
aF0.3604060913705584
aI64
aI2
aI5794161
aI0
aa(lp245
I586
aI2863
aI199
aI46987
aF0.0
aF0.99
aF0.355
aI16
aI29
aI589337
aI0
aa(lp246
I1620
aI555
aI199
aI8602
aF0.0
aF0.62
aF0.485
aI186
aI57
aI964712
aI0
aa(lp247
I322
aI286
aI195
aI9628
aF0.0
aF0.75
aF0.1683673469387755
aI586
aI1
aI2164579
aI0
aa(lp248
I233
aI241
aI147
aI1139
aF0.0
aF0.9381443298969072
aF0.10824742268041238
aI95
aI4
aI1956982
aI0
aa(lp249
I1174
aI510
aI198
aI20535
aF0.0
aF0.8542713567839196
aF0.457286432160804
aI254
aI10
aI6309328
aI0
aa(lp250
I509
aI452
aI34
aI9350
aF0.0
aF0.9072164948453608
aF0.09278350515463918
aI130
aI7
aI835692
aI0
aa(lp251
I1050
aI378
aI56
aI99444
aF0.0
aF0.30808080808080807
aF0.025252525252525252
aI5662
aI3
aI954441
aI0
aa(lp252
I971
aI1310
aI198
aI7690
aF0.0
aF0.37185929648241206
aF0.7035175879396985
aI41
aI13
aI194095
aI0
aa(lp253
I2095
aI1780
aI199
aI1352
aF0.0
aF0.545
aF0.22
aI24
aI10
aI1106443
aI0
aa(lp254
I242
aI255
aI154
aI7904
aF0.0
aF0.67
aF0.22
aI220
aI0
aI1310214
aI0
aa(lp255
I1196
aI780
aI199
aI2210
aF0.0
aF0.285
aF0.175
aI311
aI6
aI292703
aI0
aa(lp256
I648
aI205
aI199
aI15
aF0.0
aF0.285
aF0.86
aI23
aI54
aI122428
aI0
aa(lp257
I2661
aI1132
aI199
aI49905
aF0.0
aF0.81
aF0.255
aI118
aI122
aI789601
aI0
aa(lp258
I940
aI873
aI197
aI26454
aF0.0
aF0.8585858585858586
aF0.3282828282828283
aI13
aI3
aI3434955
aI0
aa(lp259
I1223
aI719
aI199
aI45804
aF0.0
aF0.695
aF0.22
aI112
aI8
aI2254599
aI0
aa(lp260
I948
aI515
aI199
aI14376
aF0.0
aF0.67
aF0.14
aI70
aI7
aI2233497
aI0
aa(lp261
I984
aI1445
aI199
aI20696
aF0.0
aF0.575
aF0.22
aI189
aI1
aI1978432
aI0
aa(lp262
I262
aI297
aI91
aI4487
aF0.0
aF0.5
aF0.13636363636363635
aI118
aI9
aI127863
aI0
aa(lp263
I179
aI402
aI4
aI209
aF0.0
aF0.6515151515151515
aF0.0707070707070707
aI36
aI0
aI142160
aI0
aa(lp264
I270
aI206
aI198
aI9776
aF0.0
aF0.6331658291457286
aF0.09045226130653267
aI281
aI4
aI1781475
aI0
aa(lp265
I1556
aI53
aI199
aI1014
aF0.0
aF0.055
aF0.98
aI5
aI138
aI8
aI0
aa(lp266
I517
aI299
aI198
aI10826
aF0.0
aF0.7035175879396985
aF0.09045226130653267
aI330
aI6
aI552618
aI0
aa(lp267
I4738
aI1740
aI198
aI23949
aF0.0
aF0.6683417085427136
aF0.4723618090452261
aI234
aI85
aI2477699
aI0
aa(lp268
I1590
aI724
aI198
aI4394
aF0.0
aF0.6532663316582915
aF0.2562814070351759
aI143
aI3
aI459402
aI0
aa(lp269
I1057
aI1755
aI198
aI5974
aF0.0
aF0.864321608040201
aF0.3316582914572864
aI33
aI3
aI3596907
aI0
aa(lp270
I428
aI677
aI32
aI4639
aF0.0
aF0.678391959798995
aF0.09045226130653267
aI223
aI0
aI1576135
aI0
aa(lp271
I803
aI570
aI199
aI10246
aF0.0
aF0.545
aF0.36
aI36
aI27
aI569272
aI0
aa(lp272
I14496
aI626
aI199
aI290
aF0.0
aF0.215
aF0.805
aI4884
aI387
aI3565
aI0
aa(lp273
I2063
aI2462
aI125
aI88
aF0.0
aF0.24
aF0.92
aI42
aI23
aI3326
aI0
aa(lp274
I718
aI680
aI196
aI9607
aF0.0
aF0.5685279187817259
aF0.38578680203045684
aI203
aI2
aI3500225
aI0
aa(lp275
I823
aI926
aI196
aI29234
aF0.0
aF0.751269035532995
aF0.1065989847715736
aI154
aI4
aI1565215
aI0
aa(lp276
I393
aI429
aI199
aI2069
aF0.0
aF0.6
aF0.275
aI40
aI3
aI2236553
aI0
aa(lp277
I255
aI122
aI199
aI1
aF0.0
aF0.0
aF1.0
aI4
aI3
aI6
aI0
aa(lp278
I130
aI269
aI199
aI2411
aF0.0
aF0.15
aF0.28
aI42
aI37
aI336190
aI0
aa(lp279
I316
aI393
aI198
aI3416
aF0.0
aF0.5477386934673367
aF0.04522613065326633
aI15
aI2
aI2039737
aI0
aa(lp280
I574
aI249
aI13
aI3615
aF0.0
aF0.5947368421052631
aF0.08947368421052632
aI349
aI0
aI288566
aI0
aa(lp281
I280
aI362
aI138
aI2175
aF0.0
aF0.435
aF0.17
aI148
aI11
aI68
aI0
aa(lp282
I400
aI1300
aI198
aI1201
aF0.0
aF1.0
aF0.06532663316582915
aI223
aI14
aI1028275
aI0
aa(lp283
I646
aI496
aI199
aI5766
aF0.0
aF0.955
aF0.355
aI38
aI3
aI6165233
aI0
aa(lp284
I2260
aI1367
aI199
aI41535
aF0.0
aF0.6
aF0.17
aI18
aI13
aI1124338
aI0
aa(lp285
I229
aI123
aI129
aI3504
aF0.0
aF0.6597938144329897
aF0.08247422680412371
aI283
aI0
aI2945495
aI0
aa(lp286
I280
aI338
aI24
aI440
aF0.0
aF0.3622448979591837
aF0.05102040816326531
aI231
aI1
aI915626
aI0
aa(lp287
I607
aI1207
aI197
aI4811
aF0.0
aF0.6818181818181818
aF0.3888888888888889
aI150
aI21
aI1878053
aI0
aa(lp288
I789
aI504
aI24
aI912
aF0.0
aF0.245
aF0.88
aI23
aI10
aI1281
aI0
aa(lp289
I53
aI48
aI199
aI854
aF0.0
aF0.12
aF0.025
aI40
aI0
aI58274
aI0
aa(lp290
I468
aI507
aI196
aI17874
aF0.0
aF0.9137055837563451
aF0.19289340101522842
aI73
aI3
aI4114092
aI0
aa(lp291
I57
aI80
aI199
aI2888
aF0.0
aF0.78
aF0.05
aI22
aI0
aI795669
aI0
aa(lp292
I1811
aI1604
aI198
aI223372
aF0.0
aF0.9195979899497487
aF0.31155778894472363
aI1
aI160
aI770545
aI0
aa(lp293
I227
aI569
aI198
aI2669
aF0.0
aF0.8844221105527639
aF0.11557788944723618
aI36
aI1
aI2068346
aI0
aa(lp294
I360
aI1080
aI199
aI3055
aF0.0
aF0.98
aF0.63
aI29
aI31
aI476825
aI0
aa(lp295
I1927
aI433
aI198
aI19119
aF0.0
aF0.8944723618090452
aF0.46733668341708545
aI288
aI1
aI5460726
aI0
aa(lp296
I571
aI364
aI194
aI15612
aF0.0
aF0.882051282051282
aF0.29743589743589743
aI45
aI2
aI4014114
aI0
aa(lp297
I917
aI748
aI199
aI27681
aF0.0
aF0.64
aF0.19
aI195
aI14
aI2177152
aI0
aa(lp298
I853
aI1642
aI142
aI11501
aF0.0
aF0.6717171717171717
aF0.11616161616161616
aI79
aI4
aI10230097
aI0
aa(lp299
I920
aI1148
aI144
aI17321
aF0.0
aF0.7222222222222222
aF0.05555555555555555
aI487
aI2
aI606445
aI0
aa(lp300
I380
aI962
aI198
aI8595
aF0.0
aF0.7236180904522613
aF0.21608040201005024
aI115
aI18
aI782467
aI0
aa(lp301
I1020
aI1182
aI194
aI28373
aF0.0
aF0.8358974358974359
aF0.3641025641025641
aI28
aI4
aI6391564
aI0
aa(lp302
I719
aI659
aI87
aI2596
aF0.0
aF0.37
aF0.115
aI328
aI4
aI1318136
aI0
aa(lp303
I948
aI529
aI199
aI8295
aF0.0
aF0.4
aF0.585
aI71
aI14
aI236689
aI0
aa(lp304
I781
aI1452
aI198
aI47514
aF0.0
aF0.7336683417085427
aF0.31155778894472363
aI117
aI32
aI1352401
aI0
aa(lp305
I270
aI156
aI199
aI1604
aF0.0
aF0.86
aF0.37
aI68
aI19
aI4314208
aI0
aa(lp306
I51
aI153
aI7
aI83
aF0.0
aF0.7010309278350515
aF0.6391752577319587
aI24
aI2
aI1181
aI0
aa(lp307
I31
aI542
aI6
aI98
aF0.0
aF0.875
aF0.25
aI21
aI1
aI49581
aI0
aa(lp308
I133
aI269
aI29
aI632
aF0.0
aF0.5125628140703518
aF0.10552763819095477
aI74
aI3
aI490481
aI0
aa(lp309
I278
aI199
aI199
aI191
aF0.0
aF0.695
aF0.325
aI50
aI7
aI609289
aI0
aa(lp310
I484
aI613
aI199
aI4278
aF0.0
aF0.48
aF0.055
aI491
aI4
aI1022754
aI0
aa(lp311
I894
aI2465
aI199
aI49197
aF0.0
aF0.785
aF0.405
aI24
aI31
aI125004
aI0
aa(lp312
I238
aI385
aI146
aI11674
aF0.0
aF0.69
aF0.135
aI96
aI4
aI406919
aI0
aa(lp313
I74
aI109
aI199
aI3447
aF0.0
aF0.28
aF0.01
aI53
aI4
aI455994
aI0
aa(lp314
I427
aI952
aI134
aI1028
aF0.0
aF0.625
aF0.475
aI103
aI25
aI436699
aI0
aa(lp315
I483
aI398
aI199
aI8745
aF0.0
aF0.74
aF0.055
aI59
aI3
aI1368326
aI0
aa(lp316
I891
aI146
aI199
aI943
aF0.0
aF0.425
aF0.615
aI500
aI7
aI814473
aI0
aa(lp317
I804
aI778
aI198
aI6490
aF0.0
aF0.46733668341708545
aF0.1407035175879397
aI17
aI5
aI1903627
aI0
aa(lp318
I867
aI452
aI199
aI1225
aF0.0
aF0.725
aF0.57
aI215
aI23
aI2561521
aI0
aa(lp319
I2348
aI1092
aI199
aI10427
aF0.0
aF0.75
aF0.15
aI157
aI6
aI290734
aI0
aa(lp320
I526
aI357
aI68
aI5591
aF0.0
aF0.40703517587939697
aF0.09045226130653267
aI116
aI0
aI726349
aI0
aa(lp321
I787
aI700
aI197
aI26575
aF0.0
aF0.6565656565656566
aF0.37373737373737376
aI87
aI1
aI2372419
aI0
aa(lp322
I85
aI153
aI186
aI57
aF0.0
aF0.20855614973262032
aF0.026737967914438502
aI2
aI1
aI12734
aI0
aa(lp323
I181
aI139
aI198
aI12390
aF0.0
aF0.678391959798995
aF0.34673366834170855
aI97
aI1
aI4922620
aI0
aa(lp324
I1773
aI761
aI199
aI28037
aF0.0
aF0.71
aF0.13
aI1516
aI16
aI1063
aI0
aa(lp325
I620
aI242
aI198
aI3064
aF0.0
aF0.6180904522613065
aF0.19597989949748743
aI171
aI8
aI2173733
aI0
aa(lp326
I474
aI382
aI199
aI4957
aF0.0
aF0.57
aF0.285
aI10
aI2
aI304071
aI0
aa(lp327
I474
aI433
aI121
aI21510
aF0.0
aF0.2663316582914573
aF0.2964824120603015
aI341
aI1
aI37454
aI0
aa(lp328
I832
aI663
aI198
aI16738
aF0.0
aF0.628140703517588
aF0.11055276381909548
aI214
aI3
aI2305036
aI0
aa(lp329
I1555
aI2934
aI196
aI42763
aF0.0
aF0.5228426395939086
aF0.12690355329949238
aI134
aI9
aI685630
aI0
aa(lp330
I325
aI251
aI197
aI2209
aF0.0
aF0.7828282828282829
aF0.19696969696969696
aI150
aI2
aI1932780
aI0
aa(lp331
I332
aI194
aI193
aI2459
aF0.0
aF0.9175257731958762
aF0.5515463917525774
aI31
aI1
aI10524141
aI0
aa(lp332
I1677
aI1001
aI198
aI11102
aF0.0
aF0.5778894472361809
aF0.19597989949748743
aI680
aI65
aI672
aI0
aa(lp333
I786
aI532
aI199
aI5270
aF0.0
aF0.695
aF0.22
aI386
aI1
aI2962199
aI0
aa(lp334
I551
aI223
aI4
aI5782
aF0.0
aF0.7696335078534031
aF0.10471204188481675
aI21
aI1
aI706546
aI0
aa(lp335
I259
aI901
aI85
aI1333
aF0.0
aF0.82
aF0.265
aI18
aI12
aI207577
aI0
aa(lp336
I917
aI267
aI195
aI31678
aF0.0
aF0.6530612244897959
aF0.1683673469387755
aI364
aI1
aI3236232
aI0
aa(lp337
I630
aI1331
aI134
aI6341
aF0.0
aF0.905
aF0.345
aI145
aI8
aI535083
aI0
aa(lp338
I418
aI200
aI10
aI4181
aF0.0
aF0.3247422680412371
aF0.061855670103092786
aI57
aI1
aI4449791
aI0
aa(lp339
I796
aI327
aI198
aI17219
aF0.0
aF0.5728643216080402
aF0.2864321608040201
aI191
aI5
aI1817924
aI0
aa(lp340
I60944
aI9565
aI199
aI2789
aF0.0
aF0.955
aF0.685
aI17
aI173
aI17364
aI0
aa(lp341
I4115
aI2200
aI99
aI2736
aF0.0
aF0.645
aF0.455
aI1637
aI62
aI818
aI1
aa(lp342
I2438
aI839
aI199
aI4345
aF0.0
aF0.755
aF0.245
aI621
aI59
aI78293
aI1
aa(lp343
I889
aI117
aI199
aI13048
aF0.0
aF0.205
aF0.055
aI219
aI7
aI700056
aI0
aa(lp344
I288
aI384
aI199
aI50003
aF0.0
aF0.93
aF0.16
aI598
aI8
aI1
aI0
aa(lp345
I386
aI381
aI155
aI4895
aF0.0
aF0.467005076142132
aF0.23857868020304568
aI416
aI2
aI1520951
aI0
aa(lp346
I6658
aI877
aI199
aI15579
aF0.0
aF0.45
aF0.34
aI1594
aI44
aI2052386
aI0
aa(lp347
I508
aI507
aI191
aI3476
aF0.0
aF0.5833333333333334
aF0.3802083333333333
aI26
aI4
aI2524412
aI0
aa(lp348
I375
aI274
aI198
aI8039
aF0.0
aF0.7386934673366834
aF0.08542713567839195
aI105
aI4
aI23024
aI0
aa(lp349
I456
aI411
aI134
aI7668
aF0.0
aF0.6903553299492385
aF0.1065989847715736
aI282
aI3
aI2860157
aI0
aa(lp350
I746
aI580
aI199
aI12150
aF0.0
aF0.955
aF0.365
aI8
aI13
aI3431565
aI0
aa(lp351
I2832
aI3064
aI198
aI13793
aF0.0
aF0.7487437185929648
aF0.03015075376884422
aI40
aI15
aI1467930
aI0
aa(lp352
I685
aI353
aI199
aI6240
aF0.0
aF0.08
aF0.035
aI296
aI1
aI91296
aI0
aa(lp353
I1942
aI2117
aI198
aI11391
aF0.0
aF0.914572864321608
aF0.37185929648241206
aI463
aI1
aI5212964
aI0
aa(lp354
I910
aI431
aI153
aI16476
aF0.0
aF0.66
aF0.06
aI381
aI9
aI755592
aI0
aa(lp355
I805
aI394
aI199
aI55070
aF0.0
aF0.765
aF0.2
aI781
aI20
aI169209
aI0
aa(lp356
I0
aI1
aI199
aI758
aF0.0
aF0.385
aF0.03
aI2
aI6
aI0
aI0
aa(lp357
I298
aI244
aI199
aI26013
aF0.0
aF0.77
aF0.105
aI97
aI8
aI695442
aI0
aa(lp358
I719
aI735
aI44
aI8060
aF0.0
aF0.73
aF0.12
aI270
aI15
aI714792
aI0
aa(lp359
I1182
aI2185
aI199
aI929
aF0.0
aF0.315
aF0.885
aI77
aI93
aI7790
aI0
aa(lp360
I4909
aI681
aI199
aI17425
aF0.0
aF0.505
aF0.415
aI2015
aI50
aI2236
aI0
aa(lp361
I227
aI437
aI85
aI7393
aF0.0
aF0.595
aF0.03
aI119
aI0
aI230049
aI0
aa(lp362
I86
aI69
aI51
aI1227
aF0.0
aF0.6331658291457286
aF0.10552763819095477
aI82
aI0
aI2116242
aI0
aa(lp363
I208
aI489
aI0
aI729
aF0.0
aF0.30456852791878175
aF0.06598984771573604
aI120
aI0
aI118929
aI0
aa(lp364
I173
aI439
aI148
aI384
aF0.0
aF0.413265306122449
aF0.2755102040816326
aI74
aI5
aI209025
aI0
aa(lp365
I1528
aI1132
aI199
aI12051
aF0.0
aF0.72
aF0.52
aI280
aI66
aI272597
aI0
aa(lp366
I720
aI311
aI197
aI3819
aF0.0
aF0.7070707070707071
aF0.3333333333333333
aI229
aI9
aI4035443
aI0
aa(lp367
I427
aI1186
aI198
aI4526
aF0.0
aF0.6633165829145728
aF0.36180904522613067
aI138
aI2
aI1104055
aI0
aa(lp368
I1562
aI170
aI199
aI6251
aF0.0
aF0.955
aF0.385
aI41
aI6
aI300025
aI0
aa(lp369
I337
aI32
aI199
aI397
aF0.0
aF0.025
aF0.0
aI1224
aI9
aI15
aI0
aa(lp370
I190263
aI27650
aI199
aI33961
aF0.0
aF0.255
aF0.99
aI1008
aI1374
aI592
aI0
aa(lp371
I1554
aI996
aI199
aI1215
aF0.0
aF0.53
aF0.29
aI113
aI70
aI862468
aI0
aa(lp372
I943
aI445
aI199
aI3889
aF0.0
aF0.79
aF0.535
aI278
aI38
aI172969
aI0
aa(lp373
I38
aI33
aI199
aI1492
aF0.0
aF1.0
aF0.0
aI6
aI7
aI6
aI0
aa(lp374
I77
aI179
aI58
aI796
aF0.0
aF0.53
aF0.25
aI145
aI3
aI420055
aI0
aa(lp375
I903
aI1262
aI198
aI22235
aF0.0
aF0.6482412060301508
aF0.37185929648241206
aI127
aI11
aI5342712
aI0
aa(lp376
I432
aI817
aI199
aI28436
aF0.0
aF0.965
aF0.28
aI29
aI14
aI953269
aI0
aa(lp377
I411
aI307
aI107
aI1863
aF0.0
aF0.16
aF0.8
aI78
aI0
aI63
aI0
aa(lp378
I6696
aI3238
aI199
aI56105
aF0.0
aF0.745
aF0.445
aI694
aI129
aI168382
aI0
aa(lp379
I114
aI115
aI54
aI3387
aF0.0
aF0.7883597883597884
aF0.06349206349206349
aI360
aI1
aI429082
aI0
aa(lp380
I917
aI4848
aI157
aI30001
aF0.0
aF0.135
aF0.39
aI29
aI93
aI204037
aI0
aa(lp381
I29
aI98
aI82
aI2052
aF0.0
aF0.6633165829145728
aF0.2814070351758794
aI401
aI0
aI404651
aI0
aa(lp382
I276
aI273
aI199
aI6
aF0.0
aF0.91
aF0.535
aI58
aI25
aI13
aI0
aa(lp383
I119
aI111
aI115
aI814
aF0.0
aF0.9635416666666666
aF0.15625
aI7
aI0
aI4795043
aI0
aa(lp384
I3145
aI1509
aI199
aI2156
aF0.0
aF0.71
aF0.41
aI846
aI86
aI107582
aI1
aa(lp385
I169
aI189
aI45
aI591
aF0.0
aF0.66
aF0.085
aI187
aI7
aI3735
aI0
aa(lp386
I340
aI301
aI199
aI6968
aF0.0
aF0.435
aF0.035
aI225
aI8
aI287193
aI0
aa(lp387
I1729
aI972
aI151
aI2496
aF0.0
aF0.7989949748743719
aF0.40703517587939697
aI10
aI23
aI1297948
aI0
aa(lp388
I156
aI91
aI20
aI203
aF0.0
aF0.8074074074074075
aF0.044444444444444446
aI238
aI0
aI3805034
aI0
aa(lp389
I720
aI664
aI198
aI18101
aF0.0
aF0.5829145728643216
aF0.07537688442211055
aI680
aI2
aI807097
aI0
aa(lp390
I853
aI818
aI197
aI6176
aF0.0
aF0.7828282828282829
aF0.09090909090909091
aI257
aI5
aI1839867
aI0
aa(lp391
I1564
aI1366
aI199
aI20287
aF0.0
aF0.61
aF0.43
aI236
aI1
aI2945331
aI0
aa(lp392
I164
aI239
aI63
aI852
aF0.0
aF0.7185929648241206
aF0.12060301507537688
aI263
aI2
aI87798
aI0
aa(lp393
I139
aI404
aI199
aI2603
aF0.0
aF0.565
aF0.23
aI79
aI0
aI1528713
aI0
aa(lp394
I320
aI246
aI199
aI10237
aF0.0
aF0.69
aF0.29
aI115
aI7
aI2167660
aI0
aa(lp395
I516
aI1043
aI199
aI3385
aF0.0
aF0.605
aF0.185
aI277
aI24
aI2725547
aI0
aa(lp396
I224
aI340
aI102
aI915
aF0.0
aF0.5728643216080402
aF0.07035175879396985
aI151
aI2
aI280805
aI0
aa(lp397
I173
aI521
aI198
aI325
aF0.0
aF0.9346733668341709
aF0.8291457286432161
aI32
aI1
aI1725
aI0
aa(lp398
I564
aI392
aI199
aI20250
aF0.0
aF0.785
aF0.055
aI291
aI5
aI133070
aI0
aa(lp399
I444
aI160
aI114
aI6589
aF0.0
aF0.7409326424870466
aF0.13471502590673576
aI261
aI1
aI769212
aI0
aa(lp400
I1775
aI979
aI199
aI577
aF0.0
aF0.83
aF0.415
aI112
aI56
aI1901116
aI0
aa(lp401
I330
aI246
aI198
aI19814
aF0.0
aF0.5829145728643216
aF0.3969849246231156
aI63
aI3
aI2513514
aI0
aa(lp402
I1030
aI455
aI199
aI9112
aF0.0
aF0.785
aF0.115
aI427
aI4
aI873662
aI0
aa(lp403
I2448
aI4106
aI199
aI23094
aF0.0
aF0.98
aF0.255
aI4
aI228
aI1625505
aI0
aa(lp404
I531
aI603
aI198
aI17915
aF0.0
aF0.9849246231155779
aF0.49748743718592964
aI7
aI5
aI7196502
aI0
aa(lp405
I543
aI384
aI199
aI12987
aF0.0
aF0.56
aF0.13
aI232
aI1
aI2199683
aI0
aa(lp406
I1479
aI825
aI198
aI17676
aF0.0
aF0.8241206030150754
aF0.457286432160804
aI15
aI18
aI3491495
aI0
aa(lp407
I265
aI542
aI197
aI3570
aF0.0
aF0.9696969696969697
aF0.25252525252525254
aI37
aI14
aI1600157
aI0
aa(lp408
I623
aI1052
aI195
aI5374
aF0.0
aF0.7704081632653061
aF0.12244897959183673
aI8
aI3
aI466094
aI0
aa(lp409
I826
aI755
aI193
aI5397
aF0.0
aF0.5051546391752577
aF0.19072164948453607
aI190
aI4
aI493414
aI0
aa(lp410
I341
aI255
aI137
aI14362
aF0.0
aF0.8195876288659794
aF0.26804123711340205
aI155
aI3
aI2986445
aI0
aa(lp411
I180
aI1137
aI140
aI173
aF0.0
aF0.425
aF0.44
aI55
aI2
aI904
aI0
aa(lp412
I4
aI3
aI199
aI13
aF0.0
aF0.0
aF0.01
aI16
aI1
aI2
aI0
aa(lp413
I1691
aI695
aI199
aI3038
aF0.0
aF0.75
aF0.25
aI676
aI19
aI453544
aI1
aa(lp414
I55
aI67
aI199
aI807
aF0.0
aF0.405
aF0.095
aI410
aI0
aI5780
aI0
aa(lp415
I818
aI1774
aI199
aI5284
aF0.0
aF0.93
aF0.3
aI10
aI28
aI490166
aI0
aa(lp416
I614
aI2485
aI199
aI3072
aF0.0
aF0.44
aF0.675
aI13
aI39
aI10808
aI0
aa(lp417
I129
aI163
aI194
aI1656
aF0.0
aF0.8153846153846154
aF0.16923076923076924
aI87
aI10
aI1724406
aI0
aa(lp418
I834
aI638
aI115
aI4649
aF0.0
aF0.49246231155778897
aF0.135678391959799
aI203
aI5
aI1382366
aI0
aa(lp419
I334
aI225
aI196
aI29142
aF0.0
aF0.8883248730964467
aF0.20812182741116753
aI51
aI2
aI4642851
aI0
aa(lp420
I202
aI687
aI175
aI1600
aF0.0
aF0.865
aF0.455
aI110
aI8
aI840402
aI0
aa(lp421
I788
aI917
aI195
aI19953
aF0.0
aF0.8418367346938775
aF0.23469387755102042
aI269
aI3
aI1719701
aI0
aa(lp422
I434
aI287
aI150
aI249
aF0.0
aF0.8808290155440415
aF0.15544041450777202
aI60
aI2
aI712400
aI0
aa(lp423
I26130
aI24166
aI199
aI24643
aF0.0
aF0.84
aF0.41
aI50
aI868
aI648557
aI0
aa(lp424
I394
aI427
aI198
aI19321
aF0.0
aF0.9447236180904522
aF0.36683417085427134
aI22
aI6
aI3795133
aI0
aa(lp425
I2247
aI376
aI199
aI8246
aF0.0
aF0.62
aF0.31
aI107
aI190
aI3554693
aI0
aa(lp426
I3005
aI1950
aI195
aI14254
aF0.0
aF0.7755102040816326
aF0.05102040816326531
aI653
aI8
aI2525944
aI0
aa(lp427
I1243
aI681
aI198
aI20721
aF0.0
aF0.7185929648241206
aF0.1306532663316583
aI704
aI3
aI2208455
aI0
aa(lp428
I1061
aI225
aI199
aI37366
aF0.0
aF0.76
aF0.175
aI308
aI5
aI2908993
aI0
aa(lp429
I218
aI444
aI1
aI124
aF0.0
aF0.845360824742268
aF0.18041237113402062
aI222
aI10
aI645
aI0
aa(lp430
I298
aI725
aI199
aI2173
aF0.0
aF0.305
aF0.085
aI46
aI0
aI1343612
aI0
aa(lp431
I757
aI185
aI199
aI9225
aF0.0
aF0.815
aF0.52
aI170
aI27
aI104751
aI0
aa(lp432
I584
aI583
aI198
aI3757
aF0.0
aF0.49246231155778897
aF0.22110552763819097
aI99
aI1
aI913829
aI0
aa(lp433
I267
aI224
aI81
aI2980
aF0.0
aF0.7055837563451777
aF0.04060913705583756
aI199
aI1
aI127474
aI0
aa(lp434
I2079
aI940
aI198
aI8414
aF0.0
aF0.6381909547738693
aF0.21608040201005024
aI178
aI15
aI834026
aI0
aa(lp435
I231
aI249
aI198
aI1253
aF0.0
aF0.4221105527638191
aF0.1457286432160804
aI268
aI1
aI2195047
aI0
aa(lp436
I595
aI606
aI197
aI7294
aF0.0
aF0.6868686868686869
aF0.1919191919191919
aI39
aI1
aI584176
aI0
aa(lp437
I6
aI52
aI6
aI218
aF0.0
aF0.6493506493506493
aF0.03896103896103896
aI5
aI0
aI34770
aI0
aa(lp438
I846
aI426
aI192
aI18075
aF0.0
aF0.7409326424870466
aF0.27979274611398963
aI3138
aI4
aI3493620
aI0
aa(lp439
I819
aI507
aI109
aI52887
aF0.0
aF0.5326633165829145
aF0.07537688442211055
aI251
aI4
aI345457
aI0
aa(lp440
I683
aI407
aI199
aI9105
aF0.0
aF0.905
aF0.355
aI42
aI36
aI2386519
aI0
aa(lp441
I370
aI527
aI198
aI33777
aF0.0
aF0.7085427135678392
aF0.19095477386934673
aI312
aI3
aI2926719
aI0
aa(lp442
I1447
aI726
aI84
aI9639
aF0.0
aF0.5279187817258884
aF0.15228426395939088
aI9198
aI1
aI352299
aI0
aa(lp443
I4891
aI3655
aI199
aI29063
aF0.0
aF0.975
aF0.24
aI150
aI136
aI10524
aI0
aa(lp444
I202
aI343
aI199
aI11925
aF0.0
aF0.735
aF0.44
aI10
aI7
aI2047609
aI0
aa(lp445
I298
aI520
aI138
aI348
aF0.0
aF0.8
aF0.175
aI96
aI10
aI13392
aI0
aa(lp446
I1349
aI999
aI199
aI2905
aF0.0
aF0.585
aF0.37
aI33
aI7
aI2318272
aI0
aa(lp447
I32
aI301
aI2
aI278
aF0.0
aF0.6075949367088608
aF0.3291139240506329
aI34
aI0
aI10713
aI0
aa(lp448
I234
aI357
aI199
aI3325
aF0.0
aF0.18
aF0.495
aI177
aI6
aI37922
aI0
aa(lp449
I2161
aI2666
aI198
aI7968
aF0.0
aF0.8592964824120602
aF0.35175879396984927
aI29
aI4
aI2884241
aI0
aa(lp450
I236052
aI23308
aI199
aI1040
aF0.0
aF0.645
aF0.485
aI551
aI1646
aI11712
aI1
aa(lp451
I1319
aI772
aI199
aI29625
aF0.0
aF0.68
aF0.19
aI273
aI8
aI496214
aI0
aa(lp452
I24754
aI2238
aI199
aI129
aF0.0
aF0.39
aF0.57
aI833
aI532
aI15128
aI0
aa(lp453
I241
aI316
aI86
aI10928
aF0.0
aF0.7513513513513513
aF0.06486486486486487
aI158
aI1
aI5336480
aI0
aa(lp454
I2198
aI965
aI101
aI19425
aF0.0
aF0.25380710659898476
aF0.8375634517766497
aI5
aI11
aI882056
aI0
aa(lp455
I1359
aI595
aI199
aI10375
aF0.0
aF0.795
aF0.235
aI419
aI68
aI77507
aI0
aa(lp456
I351
aI617
aI45
aI115
aF0.0
aF0.851063829787234
aF0.5319148936170213
aI39
aI17
aI143370
aI0
aa(lp457
I341
aI258
aI195
aI2006
aF0.0
aF0.75
aF0.28061224489795916
aI137
aI0
aI3835218
aI0
aa(lp458
I756
aI1457
aI197
aI2360
aF0.0
aF0.5555555555555556
aF0.46464646464646464
aI13
aI8
aI410785
aI0
aa(lp459
I4503
aI927
aI199
aI29472
aF0.0
aF0.705
aF0.35
aI131
aI64
aI439064
aI0
aa(lp460
I3862
aI466
aI199
aI18047
aF0.0
aF0.61
aF0.095
aI3304
aI66
aI7270
aI0
aa(lp461
I3207
aI3115
aI199
aI15072
aF0.0
aF0.945
aF0.23
aI12
aI16
aI2378334
aI0
aa(lp462
I304
aI651
aI199
aI841
aF0.0
aF0.725
aF0.415
aI129
aI9
aI2766591
aI0
aa(lp463
I1860
aI1396
aI131
aI896
aF0.0
aF0.77
aF0.34
aI813
aI36
aI7084
aI0
aa(lp464
I344
aI599
aI199
aI1188
aF0.0
aF0.405
aF0.165
aI140
aI1
aI43724
aI0
aa(lp465
I2131
aI428
aI199
aI64778
aF0.0
aF0.845
aF0.445
aI72
aI40
aI4701454
aI0
aa(lp466
I1246
aI706
aI199
aI109946
aF0.0
aF0.7
aF0.105
aI428
aI13
aI375172
aI0
aa(lp467
I1348
aI387
aI197
aI2532
aF0.0
aF0.8585858585858586
aF0.29797979797979796
aI1884
aI16
aI1234
aI0
aa(lp468
I1491
aI933
aI199
aI10752
aF0.0
aF0.78
aF0.35
aI281
aI2
aI4516220
aI0
aa(lp469
I648
aI448
aI198
aI6545
aF0.0
aF0.6633165829145728
aF0.08040201005025126
aI354
aI2
aI545070
aI0
aa(lp470
I980
aI1080
aI199
aI380
aF0.0
aF0.475
aF0.59
aI50
aI7
aI563511
aI0
aa(lp471
I1178
aI1380
aI199
aI41527
aF0.0
aF0.665
aF0.135
aI344
aI32
aI67439
aI0
aa(lp472
I563
aI989
aI38
aI772
aF0.0
aF0.82
aF0.375
aI351
aI35
aI701004
aI0
aa(lp473
I607
aI725
aI196
aI32087
aF0.0
aF0.9090909090909091
aF0.13131313131313133
aI269
aI5
aI305434
aI0
aa(lp474
I181
aI456
aI199
aI1189
aF0.0
aF0.895
aF0.325
aI43
aI3
aI852042
aI0
aa(lp475
I281
aI202
aI199
aI3934
aF0.0
aF0.535
aF0.125
aI49
aI1
aI1039047
aI0
aa(lp476
I26
aI82
aI43
aI52
aF0.0
aF1.0
aF0.195
aI56
aI0
aI6
aI0
aa(lp477
I281
aI246
aI199
aI12244
aF0.0
aF0.595
aF0.115
aI63
aI35
aI141247
aI0
aa(lp478
I227
aI100
aI199
aI10724
aF0.0
aF0.9
aF0.11
aI89
aI0
aI431604
aI0
aa(lp479
I600
aI476
aI78
aI2989
aF0.0
aF0.826530612244898
aF0.21428571428571427
aI86
aI1
aI5840327
aI0
aa(lp480
I159
aI251
aI25
aI987
aF0.0
aF0.215
aF0.29
aI24
aI4
aI4503
aI0
aa(lp481
I918
aI1172
aI196
aI587
aF0.0
aF0.8375634517766497
aF0.40609137055837563
aI13
aI18
aI2940224
aI0
aa(lp482
I425
aI377
aI198
aI19866
aF0.0
aF0.6934673366834171
aF0.1507537688442211
aI173
aI2
aI908975
aI0
aa(lp483
I185
aI590
aI140
aI56
aF0.0
aF0.19
aF0.275
aI9
aI5
aI1
aI0
aa(lp484
I386
aI243
aI197
aI20266
aF0.0
aF0.8484848484848485
aF0.2222222222222222
aI255
aI7
aI5000445
aI0
aa(lp485
I11
aI67
aI17
aI20
aF0.0
aF0.8333333333333334
aF0.2222222222222222
aI8
aI0
aI23447
aI0
aa(lp486
I190
aI419
aI199
aI5193
aF0.0
aF0.925
aF0.19
aI219
aI8
aI522160
aI0
aa(lp487
I6
aI12
aI84
aI1079
aF0.0
aF0.945
aF0.04
aI72
aI0
aI5
aI0
aa(lp488
I1446
aI4988
aI199
aI43244
aF0.0
aF0.185
aF0.885
aI14
aI31
aI188952
aI0
aa(lp489
I76
aI214
aI103
aI1097
aF0.0
aF0.915
aF0.055
aI176
aI1
aI28516
aI0
aa(lp490
I753
aI352
aI53
aI714
aF0.0
aF0.755
aF0.53
aI265
aI39
aI109667
aI0
aa(lp491
I1609
aI1623
aI199
aI65052
aF0.0
aF0.73
aF0.28
aI165
aI54
aI554194
aI0
aa(lp492
I22
aI112
aI89
aI42
aF0.0
aF0.95
aF0.62
aI118
aI0
aI252778
aI0
aa(lp493
I769
aI408
aI199
aI11834
aF0.0
aF0.6
aF0.26
aI182
aI2
aI4114937
aI0
aa(lp494
I939
aI446
aI97
aI67
aF0.0
aF0.795
aF0.605
aI57
aI43
aI4595
aI0
aa(lp495
I179
aI209
aI14
aI559
aF0.0
aF0.9358288770053476
aF0.32620320855614976
aI16
aI2
aI475753
aI0
aa(lp496
I329
aI215
aI197
aI9793
aF0.0
aF0.6313131313131313
aF0.3282828282828283
aI563
aI1
aI3214885
aI0
aa(lp497
I312
aI299
aI88
aI472
aF0.0
aF0.555
aF0.785
aI67
aI32
aI725992
aI0
aa(lp498
I442
aI374
aI198
aI30465
aF0.0
aF0.5276381909547738
aF0.19597989949748743
aI736
aI0
aI674075
aI0
aa(lp499
I860
aI614
aI198
aI10772
aF0.0
aF0.949748743718593
aF0.3417085427135678
aI13
aI5
aI2686136
aI0
aa(lp500
I314
aI695
aI95
aI144
aF0.0
aF0.33
aF0.91
aI58
aI11
aI1797204
aI0
aa(lp501
I987
aI594
aI197
aI19522
aF0.0
aF0.7929292929292929
aF0.4494949494949495
aI415
aI4
aI4606671
aI0
aa(lp502
I137
aI388
aI50
aI3866
aF0.0
aF0.5979899497487438
aF0.07537688442211055
aI68
aI0
aI561472
aI0
aa(lp503
I650
aI1370
aI198
aI5529
aF0.0
aF0.6884422110552764
aF0.07537688442211055
aI570
aI12
aI785879
aI0
aa(lp504
I5348
aI1206
aI199
aI3036
aF0.0
aF0.86
aF0.44
aI285
aI79
aI667936
aI0
aa(lp505
I134
aI317
aI198
aI4103
aF0.0
aF0.7085427135678392
aF0.22613065326633167
aI40
aI4
aI1233010
aI0
aa(lp506
I425
aI414
aI199
aI550
aF0.0
aF0.685
aF0.28
aI138
aI18
aI1108465
aI0
aa(lp507
I3127
aI1590
aI199
aI1192
aF0.0
aF0.875
aF0.49
aI380
aI27
aI1432
aI0
aa(lp508
I56
aI693
aI9
aI287
aF0.0
aF0.9743589743589743
aF0.08717948717948718
aI91
aI1
aI173845
aI0
aa(lp509
I2653
aI2165
aI199
aI7900
aF0.0
aF0.38
aF0.37
aI319
aI174
aI224
aI0
aa(lp510
I291
aI247
aI196
aI6768
aF0.0
aF0.5786802030456852
aF0.15736040609137056
aI197
aI6
aI2010118
aI0
aa(lp511
I1538
aI1016
aI198
aI49964
aF0.0
aF0.6482412060301508
aF0.23115577889447236
aI328
aI21
aI1224540
aI0
aa(lp512
I948
aI370
aI113
aI66520
aF0.0
aF0.465
aF0.215
aI813
aI10
aI329329
aI0
aa(lp513
I675
aI549
aI199
aI1607
aF0.0
aF0.905
aF0.325
aI662
aI19
aI188648
aI0
aa(lp514
I249
aI209
aI194
aI3678
aF0.0
aF0.5948717948717949
aF0.11794871794871795
aI49
aI6
aI837164
aI0
aa(lp515
I4356
aI4148
aI197
aI12159
aF0.0
aF0.6717171717171717
aF0.2474747474747475
aI96
aI183
aI57274
aI0
aa(lp516
I478
aI875
aI199
aI9817
aF0.0
aF0.685
aF0.245
aI68
aI11
aI4376239
aI0
aa(lp517
I486
aI234
aI199
aI4868
aF0.0
aF0.4
aF0.085
aI363
aI2
aI1164239
aI0
aa(lp518
I764
aI398
aI191
aI5204
aF0.0
aF0.21875
aF0.09895833333333333
aI29
aI8
aI179743
aI0
aa(lp519
I2215
aI598
aI199
aI30777
aF0.0
aF0.805
aF0.095
aI999
aI23
aI155674
aI0
aa(lp520
I2159
aI1062
aI199
aI3968
aF0.0
aF0.61
aF0.67
aI86
aI272
aI1538345
aI0
aa(lp521
I1317
aI1694
aI199
aI3763
aF0.0
aF0.47
aF0.465
aI50
aI110
aI89800
aI0
aa(lp522
I975
aI340
aI163
aI7697
aF0.0
aF0.49740932642487046
aF0.19170984455958548
aI564
aI2
aI2076625
aI0
aa(lp523
I644
aI180
aI198
aI32321
aF0.0
aF0.6381909547738693
aF0.09045226130653267
aI307
aI7
aI2197879
aI0
aa(lp524
I122
aI225
aI199
aI124444
aF0.0
aF0.895
aF0.13
aI39
aI0
aI517
aI0
aa(lp525
I1489
aI71
aI199
aI25232
aF0.0
aF0.645
aF0.28
aI88
aI24
aI875373
aI0
aa(lp526
I752
aI554
aI199
aI58320
aF0.0
aF0.915
aF0.38
aI60
aI14
aI222761
aI0
aa(lp527
I169
aI327
aI199
aI1709
aF0.0
aF0.455
aF0.72
aI48
aI10
aI3810
aI0
aa(lp528
I61
aI61
aI90
aI77
aF0.0
aF0.6614173228346457
aF0.4645669291338583
aI60
aI2
aI21462
aI0
aa(lp529
I279
aI486
aI198
aI38198
aF0.0
aF0.7035175879396985
aF0.22613065326633167
aI169
aI18
aI614389
aI0
aa(lp530
I55
aI41
aI133
aI679
aF0.0
aF0.665
aF0.075
aI47
aI2
aI4234982
aI0
aa(lp531
I597
aI544
aI53
aI1444
aF0.0
aF0.5778894472361809
aF0.2663316582914573
aI178
aI3
aI131263
aI0
aa(lp532
I460
aI887
aI14
aI420
aF0.0
aF0.8223350253807107
aF0.18274111675126903
aI78
aI6
aI301440
aI0
aa(lp533
I253
aI154
aI197
aI11733
aF0.0
aF0.7424242424242424
aF0.13131313131313133
aI132
aI1
aI480777
aI0
aa(lp534
I2686
aI1857
aI199
aI128847
aF0.0
aF1.0
aF0.335
aI0
aI301
aI115586
aI0
aa(lp535
I1794
aI1332
aI197
aI214223
aF0.0
aF0.6464646464646465
aF0.3939393939393939
aI1052
aI11
aI428240
aI0
aa(lp536
I281
aI502
aI83
aI1601
aF0.0
aF0.665
aF0.5
aI295
aI10
aI449451
aI0
aa(lp537
I576
aI612
aI199
aI606
aF0.0
aF0.635
aF0.435
aI36
aI44
aI700605
aI0
aa(lp538
I1243
aI1933
aI199
aI26956
aF0.0
aF0.83
aF0.36
aI273
aI17
aI189175
aI0
aa(lp539
I321
aI306
aI59
aI15073
aF0.0
aF0.7956989247311828
aF0.16129032258064516
aI183
aI1
aI629444
aI0
aa(lp540
I307
aI267
aI58
aI4893
aF0.0
aF0.5404040404040404
aF0.05555555555555555
aI259
aI0
aI269263
aI0
aa(lp541
I32
aI70
aI199
aI1911
aF0.0
aF0.975
aF0.15
aI29
aI2
aI690084
aI0
aa(lp542
I708
aI520
aI198
aI30941
aF0.0
aF0.8341708542713567
aF0.20100502512562815
aI107
aI3
aI4657193
aI0
aa(lp543
I275
aI397
aI199
aI1524
aF0.0
aF0.92
aF0.035
aI40
aI8
aI4592
aI0
aa(lp544
I619
aI448
aI199
aI22340
aF0.0
aF0.755
aF0.2
aI29
aI58
aI40512
aI0
aa(lp545
I261
aI158
aI198
aI16192
aF0.0
aF0.7738693467336684
aF0.2613065326633166
aI45
aI10
aI1769167
aI0
aa(lp546
I1080
aI1938
aI199
aI8677
aF0.0
aF0.745
aF0.605
aI18
aI37
aI20739
aI0
aa(lp547
I497
aI1131
aI198
aI52212
aF0.0
aF0.39195979899497485
aF0.6180904522613065
aI262
aI15
aI26800
aI0
aa(lp548
I1220
aI836
aI198
aI7905
aF0.0
aF0.542713567839196
aF0.22110552763819097
aI72
aI6
aI264196
aI0
aa(lp549
I7488
aI2306
aI197
aI19839
aF0.0
aF0.7727272727272727
aF0.25252525252525254
aI70
aI108
aI2396977
aI0
aa(lp550
I1534
aI599
aI199
aI15627
aF0.0
aF0.775
aF0.215
aI1208
aI12
aI574259
aI0
aa(lp551
I1010
aI761
aI72
aI9818
aF0.0
aF0.6197916666666666
aF0.125
aI336
aI1
aI1625296
aI0
aa(lp552
I448
aI392
aI199
aI19451
aF0.0
aF0.65
aF0.13
aI499
aI2
aI509615
aI0
aa(lp553
I1004
aI112
aI199
aI24877
aF0.0
aF0.685
aF0.12
aI681
aI12
aI33616
aI0
aa(lp554
I1287
aI844
aI196
aI3383
aF0.0
aF0.6903553299492385
aF0.3401015228426396
aI44
aI7
aI2996117
aI0
aa(lp555
I908
aI1344
aI197
aI10781
aF0.0
aF0.8939393939393939
aF0.17676767676767677
aI112
aI2
aI1306912
aI0
aa(lp556
I648
aI715
aI196
aI2388
aF0.0
aF0.9390862944162437
aF0.4517766497461929
aI24
aI5
aI4502805
aI0
aa(lp557
I615
aI488
aI34
aI7917
aF0.0
aF0.6153846153846154
aF0.09230769230769231
aI612
aI2
aI1668306
aI0
aa(lp558
I4265
aI4659
aI199
aI404
aF0.0
aF0.005
aF0.985
aI21
aI47
aI7
aI0
aa(lp559
I1252
aI432
aI199
aI60668
aF0.0
aF0.485
aF0.06
aI190
aI2
aI1555244
aI0
aa(lp560
I80
aI52
aI199
aI231
aF0.0
aF0.205
aF0.115
aI19
aI1
aI28451
aI0
aa(lp561
I669
aI702
aI196
aI5201
aF0.0
aF0.6802030456852792
aF0.2436548223350254
aI268
aI4
aI3074150
aI0
aa(lp562
I368
aI353
aI199
aI13941
aF0.0
aF0.715
aF0.295
aI59
aI8
aI2566518
aI0
aa(lp563
I3196
aI3999
aI199
aI14587
aF0.0
aF0.46
aF0.58
aI170
aI241
aI59003
aI0
aa(lp564
I95
aI34
aI194
aI26837
aF0.0
aF0.95
aF0.4
aI2
aI3
aI521493
aI0
aa(lp565
I318
aI1979
aI197
aI248
aF0.0
aF0.9494949494949495
aF0.3888888888888889
aI24
aI3
aI5677648
aI0
aa(lp566
I852
aI1112
aI199
aI1426
aF0.0
aF0.83
aF0.39
aI92
aI52
aI1417
aI0
aa(lp567
I518
aI438
aI199
aI2844
aF0.0
aF0.705
aF0.14
aI48
aI9
aI700424
aI0
aa(lp568
I213
aI287
aI199
aI343
aF0.0
aF0.905
aF0.23
aI37
aI0
aI152616
aI0
aa(lp569
I207
aI378
aI130
aI913
aF0.0
aF0.71875
aF0.19270833333333334
aI261
aI0
aI1585272
aI0
aa(lp570
I762
aI1857
aI21
aI262
aF0.0
aF0.565
aF0.475
aI108
aI32
aI2238697
aI0
aa(lp571
I1643
aI769
aI199
aI42993
aF0.0
aF0.79
aF0.33
aI120
aI33
aI2447445
aI0
aa(lp572
I246
aI327
aI197
aI11520
aF0.0
aF0.6767676767676768
aF0.06060606060606061
aI306
aI4
aI878832
aI0
aa(lp573
I399
aI423
aI67
aI3934
aF0.0
aF0.9067357512953368
aF0.09844559585492228
aI497
aI0
aI6617486
aI0
aa(lp574
I775
aI445
aI195
aI34573
aF0.0
aF0.75
aF0.15816326530612246
aI86
aI2
aI4030114
aI0
aa(lp575
I829
aI612
aI197
aI9532
aF0.0
aF0.6919191919191919
aF0.15656565656565657
aI68
aI4
aI559661
aI0
aa(lp576
I569
aI509
aI199
aI823
aF0.0
aF0.52
aF0.32
aI81
aI51
aI2182060
aI0
aa(lp577
I1050
aI703
aI197
aI3539
aF0.0
aF0.7878787878787878
aF0.3888888888888889
aI43
aI4
aI4248346
aI0
aa(lp578
I453
aI228
aI89
aI5986
aF0.0
aF0.723404255319149
aF0.1276595744680851
aI1025
aI4
aI5909236
aI0
aa(lp579
I2504
aI2171
aI199
aI872
aF0.0
aF0.535
aF0.325
aI317
aI62
aI117951
aI1
aa(lp580
I150
aI373
aI71
aI6359
aF0.0
aF0.507537688442211
aF0.1407035175879397
aI116
aI6
aI700410
aI0
aa(lp581
I60
aI145
aI0
aI12
aF0.0
aF0.2
aF0.025
aI18
aI1
aI248
aI0
aa(lp582
I719
aI449
aI198
aI28
aF0.0
aF0.7989949748743719
aF0.24120603015075376
aI255
aI10
aI341604
aI0
aa(lp583
I224
aI1038
aI199
aI568
aF0.0
aF0.435
aF0.625
aI65
aI9
aI78115
aI0
aa(lp584
I328
aI274
aI163
aI471
aF0.0
aF0.671875
aF0.359375
aI107
aI0
aI2235967
aI0
aa(lp585
I974
aI696
aI199
aI3453
aF0.0
aF0.675
aF0.135
aI29
aI10
aI344556
aI0
aa(lp586
I915
aI571
aI173
aI9510
aF0.0
aF0.6581632653061225
aF0.1326530612244898
aI641
aI0
aI1902955
aI0
aa(lp587
I81
aI234
aI85
aI543
aF0.0
aF0.31
aF0.1
aI51
aI2
aI3667997
aI0
aa(lp588
I4096
aI2339
aI198
aI8761
aF0.0
aF0.24120603015075376
aF0.31155778894472363
aI37
aI11
aI2518691
aI0
aa(lp589
I988
aI1479
aI199
aI9885
aF0.0
aF0.815
aF0.625
aI33
aI5
aI302181
aI0
aa(lp590
I643
aI2813
aI199
aI35486
aF0.0
aF0.76
aF0.14
aI26
aI74
aI53406
aI0
aa(lp591
I822
aI498
aI198
aI5636
aF0.0
aF0.7437185929648241
aF0.24623115577889448
aI90
aI0
aI4273162
aI0
aa(lp592
I825
aI553
aI198
aI28421
aF0.0
aF0.5678391959798995
aF0.19095477386934673
aI455
aI2
aI2927366
aI0
aa(lp593
I1080
aI776
aI199
aI4584
aF0.0
aF0.51
aF0.42
aI99
aI91
aI579937
aI0
aa(lp594
I790
aI420
aI198
aI33335
aF0.0
aF0.8090452261306532
aF0.32160804020100503
aI123
aI87
aI139710
aI0
aa(lp595
I492
aI214
aI197
aI6243
aF0.0
aF0.9191919191919192
aF0.5404040404040404
aI34
aI1
aI8060915
aI0
aa(lp596
I878
aI1215
aI199
aI19679
aF0.0
aF0.53
aF0.9
aI8
aI82
aI80100
aI0
aa(lp597
I82
aI124
aI3
aI42
aF0.0
aF0.66
aF0.09
aI52
aI0
aI33485
aI0
aa(lp598
I384
aI198
aI197
aI4259
aF0.0
aF0.5353535353535354
aF0.12121212121212122
aI373
aI3
aI478045
aI0
aa(lp599
I112
aI332
aI33
aI179
aF0.0
aF0.9
aF0.03
aI104
aI5
aI4976
aI0
aa(lp600
I748
aI514
aI199
aI14558
aF0.0
aF0.725
aF0.315
aI46
aI4
aI3466847
aI0
aa(lp601
I318
aI255
aI199
aI8877
aF0.0
aF0.625
aF0.17
aI82
aI9
aI1108911
aI0
aa(lp602
I298
aI194
aI199
aI11679
aF0.0
aF0.59
aF0.11
aI28
aI3
aI377493
aI0
aa(lp603
I127
aI186
aI189
aI4143
aF0.0
aF0.631578947368421
aF0.14210526315789473
aI60
aI5
aI4086247
aI0
aa(lp604
I656
aI437
aI198
aI7002
aF0.0
aF0.7085427135678392
aF0.10050251256281408
aI173
aI8
aI203799
aI0
aa(lp605
I472
aI385
aI199
aI6559
aF0.0
aF0.65
aF0.035
aI252
aI0
aI217841
aI0
aa(lp606
I198
aI251
aI140
aI2056
aF0.0
aF0.52
aF0.455
aI12
aI16
aI1035960
aI0
aa(lp607
I216
aI122
aI199
aI1
aF0.0
aF0.0
aF1.0
aI0
aI3
aI1
aI0
aa(lp608
I215
aI122
aI199
aI1
aF0.0
aF0.0
aF1.0
aI7
aI5
aI1
aI0
aa(lp609
I159
aI297
aI196
aI193
aF0.0
aF1.0
aF0.233502538071066
aI38
aI2
aI335127
aI0
aa(lp610
I26
aI147
aI12
aI21
aF0.0
aF0.7281553398058253
aF0.30097087378640774
aI28
aI0
aI10570
aI0
aa(lp611
I2513
aI823
aI199
aI6259
aF0.0
aF0.545
aF0.21
aI37
aI62
aI339981
aI0
aa(lp612
I352
aI531
aI152
aI3526
aF0.0
aF0.9020618556701031
aF0.15463917525773196
aI95
aI2
aI3791079
aI0
aa(lp613
I965
aI711
aI198
aI3774
aF0.0
aF0.4221105527638191
aF0.2814070351758794
aI4930
aI19
aI1665231
aI0
aa(lp614
I2212
aI1052
aI199
aI10466
aF0.0
aF0.835
aF0.38
aI5
aI22
aI1612481
aI0
aa(lp615
I374
aI139
aI198
aI20088
aF0.0
aF0.9899497487437185
aF0.49748743718592964
aI208
aI9
aI225351
aI0
aa(lp616
I61
aI410
aI47
aI110
aF0.0
aF0.8140703517587939
aF0.44221105527638194
aI40
aI3
aI6985
aI0
aa(lp617
I1950
aI424
aI198
aI14068
aF0.0
aF0.6934673366834171
aF0.07537688442211055
aI528
aI29
aI2975069
aI0
aa(lp618
I2852
aI1456
aI199
aI5065
aF0.0
aF0.625
aF0.575
aI105
aI128
aI1215665
aI0
aa(lp619
I1319
aI1440
aI199
aI5594
aF0.0
aF0.835
aF0.43
aI150
aI139
aI1043593
aI0
aa(lp620
I2136
aI1075
aI199
aI33475
aF0.0
aF0.44
aF0.29
aI27
aI18
aI1004121
aI0
aa(lp621
I704
aI674
aI148
aI1383
aF0.0
aF0.825
aF0.36
aI75
aI8
aI1348254
aI0
aa(lp622
I2284
aI484
aI72
aI87
aF0.0
aF0.57
aF0.575
aI2428
aI41
aI600
aI0
aa(lp623
I1623
aI1788
aI199
aI80084
aF0.0
aF1.0
aF0.16
aI17
aI11
aI208327
aI0
aa(lp624
I7320
aI1315
aI198
aI61309
aF0.0
aF0.7336683417085427
aF0.24623115577889448
aI721
aI468
aI68066
aI0
aa(lp625
I277
aI275
aI196
aI1297
aF0.0
aF0.9238578680203046
aF0.38578680203045684
aI6
aI0
aI2806255
aI0
aa(lp626
I1524
aI1373
aI199
aI102
aF0.0
aF0.06
aF0.0
aI30
aI2
aI32
aI0
aa(lp627
I350
aI263
aI199
aI2597
aF0.0
aF0.55
aF0.395
aI34
aI11
aI250450
aI0
aa(lp628
I149
aI354
aI199
aI641
aF0.0
aF0.59
aF0.52
aI28
aI6
aI137004
aI0
aa(lp629
I754
aI277
aI198
aI23325
aF0.0
aF0.507537688442211
aF0.09045226130653267
aI554
aI6
aI678529
aI0
aa(lp630
I17472
aI15802
aI198
aI52403
aF0.0
aF0.32160804020100503
aF0.25125628140703515
aI214
aI46
aI826207
aI0
aa(lp631
I727
aI1158
aI198
aI2811
aF0.0
aF0.5979899497487438
aF0.3969849246231156
aI35
aI4
aI2942051
aI0
aa(lp632
I1403
aI1888
aI199
aI20650
aF0.0
aF0.945
aF0.21
aI136
aI40
aI1577463
aI0
aa(lp633
I2082
aI4995
aI199
aI64366
aF0.0
aF0.935
aF0.445
aI6
aI100
aI50021
aI0
aa(lp634
I368
aI420
aI199
aI16620
aF0.0
aF1.0
aF0.18
aI151
aI6
aI604840
aI0
aa(lp635
I433
aI546
aI195
aI9614
aF0.0
aF0.9030612244897959
aF0.5204081632653061
aI52
aI3
aI5596299
aI0
aa(lp636
I21817
aI223
aI199
aI9638
aF0.0
aF0.435
aF0.125
aI21161
aI61
aI329598
aI0
aa(lp637
I659
aI1715
aI199
aI2269
aF0.0
aF0.66
aF0.55
aI7
aI9
aI466701
aI0
aa(lp638
I255
aI1119
aI54
aI101
aF0.0
aF0.985
aF0.13
aI56
aI3
aI9
aI0
aa(lp639
I337
aI328
aI24
aI3148
aF0.0
aF0.3282051282051282
aF0.005128205128205128
aI116
aI1
aI175568
aI0
aa(lp640
I367
aI641
aI195
aI1523
aF0.0
aF0.425
aF0.66
aI85
aI51
aI609849
aI0
aa(lp641
I1226
aI310
aI199
aI2227
aF0.0
aF0.78
aF0.065
aI174
aI84
aI157998
aI0
aa(lp642
I741
aI451
aI143
aI13786
aF0.0
aF0.7437185929648241
aF0.09045226130653267
aI168
aI4
aI864291
aI0
aa(lp643
I315
aI601
aI133
aI7944
aF0.0
aF0.725
aF0.335
aI95
aI25
aI611176
aI0
aa(lp644
I163
aI198
aI199
aI1355
aF0.0
aF0.685
aF0.135
aI76
aI6
aI740510
aI0
aa(lp645
I201
aI393
aI20
aI1804
aF0.0
aF0.5879396984924623
aF0.16080402010050251
aI343
aI4
aI217813
aI0
aa(lp646
I591
aI766
aI195
aI39822
aF0.0
aF0.395
aF0.12
aI603
aI0
aI999328
aI0
aa(lp647
I1941
aI4596
aI199
aI1509
aF0.0
aF0.105
aF0.72
aI61
aI29
aI362275
aI0
aa(lp648
I1509
aI1118
aI199
aI93833
aF0.0
aF0.84
aF0.32
aI19
aI18
aI1068990
aI0
aa(lp649
I1336
aI787
aI118
aI1476
aF0.0
aF0.1658291457286432
aF0.01507537688442211
aI103
aI7
aI119137
aI0
aa(lp650
I1235
aI1719
aI196
aI2600
aF0.0
aF0.5431472081218274
aF0.15228426395939088
aI9
aI6
aI282812
aI0
aa(lp651
I737
aI630
aI199
aI9285
aF0.0
aF0.895
aF0.28
aI40
aI1
aI2886775
aI0
aa(lp652
I572
aI306
aI198
aI23640
aF0.0
aF0.5979899497487438
aF0.1407035175879397
aI426
aI7
aI1651295
aI0
aa(lp653
I5
aI103
aI199
aI12
aF0.0
aF1.0
aF0.15
aI0
aI1
aI0
aI0
aa(lp654
I229
aI227
aI199
aI4183
aF0.0
aF0.69
aF0.32
aI125
aI5
aI2078041
aI0
aa(lp655
I57
aI38
aI197
aI531
aF0.0
aF0.9444444444444444
aF0.3888888888888889
aI54
aI10
aI203908
aI0
aa(lp656
I723
aI565
aI199
aI14309
aF0.0
aF0.775
aF0.32
aI49
aI12
aI2694680
aI0
aa(lp657
I2634
aI3031
aI199
aI3383
aF0.0
aF0.55
aF0.615
aI452
aI5
aI123849
aI0
aa(lp658
I1310
aI747
aI199
aI17864
aF0.0
aF0.61
aF0.15
aI206
aI4
aI469873
aI0
aa(lp659
I114
aI341
aI93
aI768
aF0.0
aF0.365
aF0.065
aI157
aI0
aI498766
aI0
aa(lp660
I4822
aI2656
aI32
aI2425
aF0.0
aF0.3768844221105528
aF0.8190954773869347
aI103
aI128
aI2115
aI0
aa(lp661
I512
aI361
aI123
aI9617
aF0.0
aF0.5728643216080402
aF0.1306532663316583
aI538
aI2
aI947778
aI0
aa(lp662
I416
aI1001
aI197
aI30084
aF0.0
aF0.8636363636363636
aF0.2676767676767677
aI78
aI11
aI4664560
aI0
aa(lp663
I1046
aI390
aI199
aI2983
aF0.0
aF0.155
aF0.52
aI71
aI11
aI42438
aI0
aa(lp664
I905
aI535
aI199
aI48600
aF0.0
aF0.54
aF0.185
aI205
aI10
aI1783328
aI0
aa(lp665
I2963
aI2070
aI199
aI359
aF0.0
aF0.605
aF0.655
aI112
aI161
aI86995
aI0
aa(lp666
I751
aI438
aI198
aI58633
aF0.0
aF0.9296482412060302
aF0.4120603015075377
aI35
aI7
aI6425485
aI0
aa(lp667
I447
aI681
aI197
aI3479
aF0.0
aF0.9141414141414141
aF0.30303030303030304
aI26
aI1
aI4933616
aI0
aa(lp668
I275
aI1069
aI195
aI6917
aF0.0
aF0.9387755102040817
aF0.4336734693877551
aI9
aI2
aI6593634
aI0
aa(lp669
I628
aI497
aI198
aI1220
aF0.0
aF0.7437185929648241
aF0.5778894472361809
aI16
aI83
aI563763
aI0
aa(lp670
I516
aI373
aI199
aI30642
aF0.0
aF0.815
aF0.615
aI125
aI39
aI2970
aI0
aa(lp671
I1407
aI585
aI194
aI37344
aF0.0
aF0.8769230769230769
aF0.49230769230769234
aI19
aI1
aI6735599
aI0
aa(lp672
I59
aI135
aI143
aI3566
aF0.0
aF0.5376884422110553
aF0.4824120603015075
aI63
aI1
aI2379377
aI0
aa(lp673
I187
aI207
aI26
aI591
aF0.0
aF0.5303030303030303
aF0.015151515151515152
aI101
aI0
aI108512
aI0
aa(lp674
I219
aI191
aI199
aI14697
aF0.0
aF0.81
aF0.365
aI47
aI1
aI2060617
aI0
aa(lp675
I145
aI222
aI72
aI357
aF0.0
aF0.365
aF0.835
aI52
aI7
aI92773
aI0
aa(lp676
I3362
aI4098
aI199
aI36776
aF0.0
aF0.785
aF0.19
aI220
aI108
aI1257092
aI0
aa(lp677
I579
aI703
aI199
aI8595
aF0.0
aF0.84
aF0.31
aI199
aI9
aI312778
aI0
aa(lp678
I257
aI165
aI198
aI1277
aF0.0
aF0.19095477386934673
aF0.15577889447236182
aI102
aI6
aI317600
aI0
aa(lp679
I796
aI2138
aI93
aI1755
aF0.0
aF0.41
aF0.77
aI62
aI57
aI78204
aI0
aa(lp680
I1123
aI2499
aI198
aI18720
aF0.0
aF0.949748743718593
aF0.34673366834170855
aI43
aI14
aI4180996
aI0
aa(lp681
I497
aI276
aI197
aI11379
aF0.0
aF0.7171717171717171
aF0.13636363636363635
aI136
aI4
aI2560215
aI0
aa(lp682
I985
aI3189
aI199
aI23668
aF0.0
aF0.85
aF0.23
aI143
aI52
aI777239
aI0
aa(lp683
I1747
aI1327
aI199
aI8759
aF0.0
aF0.74
aF0.31
aI29
aI13
aI110660
aI0
aa(lp684
I872
aI1829
aI199
aI5622
aF0.0
aF0.37
aF0.35
aI56
aI3
aI26
aI0
aa(lp685
I558
aI443
aI190
aI33102
aF0.0
aF0.6020942408376964
aF0.09424083769633508
aI462
aI2
aI462206
aI0
aa(lp686
I337
aI282
aI199
aI22804
aF0.0
aF0.78
aF0.335
aI111
aI2
aI5295223
aI0
aa(lp687
I256
aI469
aI199
aI2362
aF0.0
aF0.95
aF0.26
aI18
aI36
aI2392646
aI0
aa(lp688
I9797
aI7542
aI199
aI84310
aF0.0
aF0.285
aF0.44
aI421
aI163
aI1737610
aI0
aa(lp689
I40
aI91
aI197
aI833
aF0.0
aF0.75
aF0.435
aI227
aI2
aI2361
aI0
aa(lp690
I360
aI195
aI193
aI1912
aF0.0
aF0.4742268041237113
aF0.44329896907216493
aI26
aI1
aI3521255
aI0
aa(lp691
I428
aI317
aI193
aI3539
aF0.0
aF0.8195876288659794
aF0.20618556701030927
aI83
aI1
aI1040823
aI0
aa(lp692
I3071
aI958
aI199
aI65160
aF0.0
aF0.695
aF0.355
aI249
aI218
aI294398
aI0
aa(lp693
I4187
aI4141
aI199
aI84314
aF0.0
aF0.975
aF0.25
aI4
aI655
aI542224
aI0
aa(lp694
I784
aI693
aI195
aI607
aF0.0
aF0.7448979591836735
aF0.3010204081632653
aI19
aI5
aI2357664
aI0
aa(lp695
I44
aI88
aI199
aI13068
aF0.0
aF0.965
aF0.33
aI53
aI0
aI92084
aI0
aa(lp696
I301
aI137
aI196
aI11445
aF0.0
aF0.6598984771573604
aF0.17258883248730963
aI929
aI0
aI1715981
aI0
aa(lp697
I618
aI460
aI197
aI3579
aF0.0
aF0.8131313131313131
aF0.46464646464646464
aI28
aI3
aI6268461
aI0
aa(lp698
I13
aI37
aI29
aI191
aF0.0
aF0.9358974358974359
aF0.0641025641025641
aI12
aI0
aI1214
aI0
aa(lp699
I269
aI462
aI16
aI7018
aF0.0
aF0.5959595959595959
aF0.21717171717171718
aI137
aI24
aI14229
aI0
aa(lp700
I1198
aI854
aI195
aI16418
aF0.0
aF0.6530612244897959
aF0.39285714285714285
aI15
aI11
aI1589499
aI0
aa(lp701
I209
aI348
aI196
aI2183
aF0.0
aF0.4619289340101523
aF0.10152284263959391
aI466
aI0
aI166075
aI0
aa(lp702
I152
aI208
aI92
aI1146
aF0.0
aF0.5303030303030303
aF0.06565656565656566
aI128
aI1
aI265386
aI0
aa(lp703
I1285
aI993
aI198
aI72570
aF0.0
aF0.9597989949748744
aF0.4321608040201005
aI18
aI9
aI6922589
aI0
aa(lp704
I456
aI802
aI26
aI478
aF0.0
aF0.78
aF0.545
aI38
aI9
aI7256
aI0
aa(lp705
I788
aI373
aI199
aI22268
aF0.0
aF0.615
aF0.09
aI318
aI6
aI531537
aI0
aa(lp706
I2144
aI590
aI93
aI3927
aF0.0
aF0.66
aF0.345
aI873
aI101
aI2899
aI0
aa(lp707
I372
aI180
aI194
aI7080
aF0.0
aF0.9333333333333333
aF0.5333333333333333
aI15
aI2
aI10990789
aI0
aa(lp708
I860
aI433
aI197
aI3412
aF0.0
aF0.5404040404040404
aF0.32323232323232326
aI46
aI28
aI1221721
aI0
aa(lp709
I440
aI344
aI199
aI10674
aF0.0
aF0.68
aF0.085
aI669
aI5
aI495187
aI0
aa(lp710
I2055
aI1796
aI198
aI19863
aF0.0
aF0.9447236180904522
aF0.25125628140703515
aI197
aI29
aI338842
aI0
aa(lp711
I1361
aI2223
aI198
aI21188
aF0.0
aF0.7839195979899497
aF0.271356783919598
aI268
aI6
aI3690818
aI0
aa(lp712
I280
aI756
aI199
aI2968
aF0.0
aF0.955
aF0.165
aI68
aI30
aI143176
aI0
aa(lp713
I2625
aI296
aI199
aI987
aF0.0
aF0.985
aF0.56
aI96
aI139
aI107503
aI0
aa(lp714
I831
aI763
aI199
aI49742
aF0.0
aF0.875
aF0.235
aI251
aI3
aI2946597
aI0
aa(lp715
I115
aI216
aI199
aI2313
aF0.0
aF0.945
aF0.13
aI76
aI4
aI1073587
aI0
aa(lp716
I16
aI106
aI199
aI39
aF0.0
aF0.69
aF0.0
aI245
aI0
aI45
aI0
aa(lp717
I404
aI468
aI197
aI9492
aF0.0
aF0.3333333333333333
aF0.18181818181818182
aI302
aI0
aI337595
aI0
aa(lp718
I1753
aI1602
aI199
aI2162
aF0.0
aF0.52
aF0.32
aI245
aI6
aI1451476
aI0
aa(lp719
I3183
aI2955
aI198
aI3810
aF0.0
aF0.628140703517588
aF0.31155778894472363
aI7
aI10
aI4328647
aI0
aa(lp720
I279
aI551
aI199
aI2001
aF0.0
aF0.73
aF0.265
aI44
aI10
aI4130508
aI0
aa(lp721
I18056
aI8884
aI199
aI7525
aF0.0
aF0.12
aF0.14
aI394
aI107
aI49560
aI0
aa(lp722
I802
aI487
aI198
aI20828
aF0.0
aF0.7437185929648241
aF0.27638190954773867
aI523
aI2
aI2998523
aI0
aa(lp723
I463
aI1051
aI199
aI8176
aF0.0
aF0.895
aF0.255
aI50
aI6
aI676156
aI0
aa(lp724
I831
aI1999
aI198
aI21602
aF0.0
aF0.38190954773869346
aF0.36683417085427134
aI120
aI20
aI8499
aI0
aa(lp725
I1591
aI1027
aI199
aI30563
aF0.0
aF0.81
aF0.245
aI462
aI3
aI3826472
aI0
aa(lp726
I90
aI307
aI44
aI3
aF0.0
aF0.17777777777777778
aF0.9111111111111111
aI4
aI0
aI9
aI0
aa(lp727
I107
aI316
aI199
aI301
aF0.0
aF0.3
aF0.025
aI56
aI0
aI3612
aI0
aa(lp728
I494
aI64
aI90
aI4056
aF0.0
aF0.7
aF0.065
aI501
aI1
aI183361
aI0
aa(lp729
I208
aI386
aI21
aI31
aF0.0
aF0.365
aF0.955
aI14
aI5
aI76
aI0
aa(lp730
I200
aI288
aI199
aI3880
aF0.0
aF0.965
aF0.18
aI262
aI7
aI2135280
aI0
aa(lp731
I1440
aI1062
aI199
aI23758
aF0.0
aF0.86
aF0.38
aI283
aI73
aI124220
aI0
aa(lp732
I374
aI682
aI102
aI7089
aF0.0
aF0.6934673366834171
aF0.06030150753768844
aI105
aI2
aI872747
aI0
aa(lp733
I2027
aI269
aI199
aI1109
aF0.0
aF0.465
aF0.35
aI181
aI169
aI142159
aI0
aa(lp734
I1143
aI1243
aI199
aI6441
aF0.0
aF0.98
aF0.355
aI68
aI24
aI363818
aI0
aa(lp735
I217
aI671
aI198
aI8523
aF0.0
aF0.6482412060301508
aF0.24120603015075376
aI56
aI4
aI1348002
aI0
aa(lp736
I24077
aI7978
aI199
aI545
aF0.0
aF0.425
aF0.17
aI28
aI54
aI588234
aI0
aa(lp737
I1589
aI686
aI197
aI30429
aF0.0
aF0.6565656565656566
aF0.12121212121212122
aI510
aI6
aI3435455
aI0
aa(lp738
I350
aI737
aI195
aI11880
aF0.0
aF0.6938775510204082
aF0.1836734693877551
aI76
aI31
aI331793
aI0
aa(lp739
I427
aI358
aI41
aI11260
aF0.0
aF0.595
aF0.155
aI170
aI4
aI143017
aI0
aa(lp740
I251
aI289
aI116
aI916
aF0.0
aF0.4472361809045226
aF0.135678391959799
aI157
aI1
aI565566
aI0
aa(lp741
I11670
aI2895
aI199
aI196302
aF0.0
aF0.725
aF0.31
aI1465
aI212
aI155318
aI0
aa(lp742
I2323
aI699
aI15
aI97
aF0.0
aF0.19597989949748743
aF0.6030150753768844
aI76
aI61
aI109
aI0
aa(lp743
I1717
aI849
aI199
aI21928
aF0.0
aF0.395
aF0.21
aI35
aI28
aI621942
aI0
aa(lp744
I1013
aI2340
aI193
aI5991
aF0.0
aF0.5824742268041238
aF0.3402061855670103
aI43
aI1
aI784381
aI0
aa(lp745
I1947
aI1359
aI199
aI15517
aF0.0
aF0.295
aF0.515
aI341
aI45
aI152236
aI0
aa(lp746
I243
aI223
aI199
aI3644
aF0.0
aF0.47
aF0.185
aI1810
aI2
aI1562088
aI0
aa(lp747
I2000
aI1090
aI196
aI17553
aF0.0
aF0.6751269035532995
aF0.41116751269035534
aI189
aI5
aI3561897
aI0
aa(lp748
I1333
aI634
aI199
aI12115
aF0.0
aF0.53
aF0.23
aI380
aI5
aI885128
aI0
aa(lp749
I633
aI1105
aI20
aI314
aF0.0
aF0.835
aF0.495
aI180
aI11
aI2577
aI0
aa(lp750
I497
aI426
aI198
aI2701
aF0.0
aF0.7688442211055276
aF0.35678391959798994
aI200
aI5
aI2068141
aI0
aa(lp751
I318
aI353
aI199
aI14724
aF0.0
aF0.725
aF0.18
aI74
aI18
aI1127090
aI0
aa(lp752
I822
aI2025
aI199
aI43016
aF0.0
aF0.69
aF0.415
aI5
aI94
aI117761
aI0
aa(lp753
I410
aI195
aI34
aI4895
aF0.0
aF0.79
aF0.39
aI120
aI39
aI54059
aI0
aa(lp754
I1337
aI2700
aI196
aI11791
aF0.0
aF0.9086294416243654
aF0.30456852791878175
aI12
aI33
aI369267
aI0
aa(lp755
I407
aI176
aI199
aI12466
aF0.0
aF0.715
aF0.28
aI128
aI25
aI309540
aI0
aa(lp756
I263
aI240
aI126
aI8995
aF0.0
aF0.8020304568527918
aF0.12690355329949238
aI258
aI4
aI965171
aI0
aa(lp757
I93083
aI865
aI199
aI1069
aF0.0
aF0.125
aF0.88
aI260
aI740
aI44381
aI1
aa(lp758
I1285
aI800
aI199
aI21787
aF0.0
aF0.475
aF0.34
aI836
aI73
aI557996
aI0
aa(lp759
I712
aI507
aI198
aI9067
aF0.0
aF0.7236180904522613
aF0.32160804020100503
aI43
aI3
aI5386258
aI0
aa(lp760
I2548
aI172
aI199
aI25062
aF0.0
aF0.905
aF0.195
aI78
aI364
aI621019
aI0
aa(lp761
I403
aI296
aI196
aI37471
aF0.0
aF0.8781725888324873
aF0.2893401015228426
aI15
aI9
aI4131897
aI0
aa(lp762
I185
aI154
aI86
aI2740
aF0.0
aF0.673469387755102
aF0.12244897959183673
aI447
aI1
aI422460
aI0
aa(lp763
I2964
aI996
aI199
aI1281
aF0.0
aF0.43
aF0.16
aI15
aI52
aI10389
aI0
aa(lp764
I294
aI195
aI199
aI4820
aF0.0
aF0.62
aF0.22
aI318
aI0
aI1943568
aI0
aa(lp765
I9
aI54
aI199
aI45
aF0.0
aF0.99
aF0.26
aI15
aI0
aI208
aI0
aa(lp766
I287
aI186
aI196
aI19838
aF0.0
aF0.6548223350253807
aF0.2436548223350254
aI75
aI1
aI10898618
aI0
aa(lp767
I133
aI583
aI199
aI6208
aF0.0
aF0.905
aF0.265
aI77
aI8
aI1171354
aI0
aa(lp768
I989
aI390
aI198
aI3804
aF0.0
aF0.4321608040201005
aF0.2914572864321608
aI0
aI6
aI2516716
aI0
aa(lp769
I1234
aI582
aI199
aI5553
aF0.0
aF0.635
aF0.275
aI235
aI1
aI313618
aI0
aa(lp770
I370
aI204
aI199
aI7153
aF0.0
aF0.605
aF0.1
aI325
aI6
aI3060664
aI0
aa(lp771
I2237
aI675
aI199
aI63772
aF0.0
aF0.76
aF0.365
aI12
aI19
aI3037323
aI0
aa(lp772
I775
aI688
aI89
aI40488
aF0.0
aF0.3768844221105528
aF0.05025125628140704
aI1289
aI3
aI25217
aI0
aa(lp773
I608
aI478
aI199
aI19280
aF0.0
aF0.8
aF0.26
aI231
aI4
aI1189645
aI0
aa(lp774
I1288
aI1244
aI199
aI1262
aF0.0
aF0.555
aF0.62
aI291
aI35
aI880
aI1
aa(lp775
I485
aI500
aI82
aI222
aF0.0
aF0.11
aF0.83
aI52
aI42
aI4
aI0
aa(lp776
I168
aI574
aI144
aI4439
aF0.0
aF0.71
aF0.29
aI73
aI7
aI2392720
aI0
aa(lp777
I878
aI675
aI199
aI17478
aF0.0
aF0.725
aF0.465
aI378
aI2
aI1931844
aI0
aa(lp778
I238
aI396
aI19
aI1221
aF0.0
aF0.3015075376884422
aF0.05527638190954774
aI183
aI2
aI387149
aI0
aa(lp779
I2832
aI944
aI199
aI5179
aF0.0
aF0.735
aF0.305
aI36
aI25
aI1938148
aI0
aa(lp780
I264
aI186
aI196
aI2820
aF0.0
aF0.7817258883248731
aF0.47715736040609136
aI11
aI3
aI5731732
aI0
aa(lp781
I1552
aI725
aI75
aI1019
aF0.0
aF0.98
aF0.395
aI309
aI26
aI3095
aI0
aa(lp782
I864
aI706
aI86
aI6946
aF0.0
aF0.7239583333333334
aF0.23958333333333334
aI197
aI5
aI1331023
aI0
aa(lp783
I557
aI438
aI199
aI4903
aF0.0
aF0.73
aF0.185
aI176
aI7
aI1627876
aI0
aa(lp784
I545
aI588
aI121
aI8048
aF0.0
aF0.5454545454545454
aF0.12121212121212122
aI378
aI4
aI579174
aI0
aa(lp785
I209
aI164
aI196
aI3896
aF0.0
aF0.9137055837563451
aF0.22842639593908629
aI108
aI8
aI17462
aI0
aa(lp786
I4545
aI200
aI199
aI100609
aF0.0
aF0.675
aF0.38
aI1762
aI201
aI677068
aI0
aa(lp787
I1602
aI1236
aI198
aI5704
aF0.0
aF0.35175879396984927
aF0.1306532663316583
aI19
aI11
aI1033033
aI0
aa(lp788
I1356
aI734
aI197
aI9661
aF0.0
aF0.9292929292929293
aF0.4090909090909091
aI57
aI1
aI5633845
aI0
aa(lp789
I820
aI965
aI198
aI5419
aF0.0
aF0.6381909547738693
aF0.3417085427135678
aI60
aI21
aI559695
aI0
aa(lp790
I4076
aI4997
aI199
aI67133
aF0.0
aF0.89
aF0.445
aI18
aI440
aI903358
aI0
aa(lp791
I22409
aI17983
aI198
aI27067
aF0.0
aF0.6834170854271356
aF0.5577889447236181
aI706
aI233
aI484461
aI0
aa(lp792
I1708
aI2582
aI199
aI14562
aF0.0
aF0.58
aF0.22
aI57
aI45
aI878320
aI0
aa(lp793
I137336
aI692
aI169
aI1643
aF0.0
aF0.63
aF0.51
aI3362
aI773
aI6150
aI1
aa(lp794
I1767
aI894
aI198
aI160763
aF0.0
aF0.7587939698492462
aF0.25125628140703515
aI402
aI6
aI4316950
aI0
aa(lp795
I2011
aI1733
aI198
aI10740
aF0.0
aF0.542713567839196
aF0.3768844221105528
aI152
aI9
aI2684222
aI0
aa(lp796
I8365
aI2039
aI175
aI4584
aF0.0
aF0.815
aF0.47
aI147
aI368
aI421
aI1
aa(lp797
I663
aI446
aI199
aI33273
aF0.0
aF0.6
aF0.255
aI243
aI2
aI1284146
aI0
aa(lp798
I455
aI517
aI196
aI9885
aF0.0
aF0.8934010152284264
aF0.5076142131979695
aI23
aI3
aI7246360
aI0
aa(lp799
I417
aI475
aI198
aI18475
aF0.0
aF0.6030150753768844
aF0.1708542713567839
aI351
aI2
aI3343791
aI0
aa(lp800
I1990
aI1678
aI199
aI1355
aF0.0
aF0.42
aF0.595
aI87
aI109
aI85563
aI0
aa(lp801
I676
aI1478
aI199
aI1259
aF0.0
aF0.775
aF0.57
aI70
aI13
aI860904
aI0
aa(lp802
I232
aI220
aI198
aI8312
aF0.0
aF0.678391959798995
aF0.05025125628140704
aI287
aI5
aI945746
aI0
aa(lp803
I589
aI801
aI196
aI10537
aF0.0
aF0.6294416243654822
aF0.18274111675126903
aI55
aI9
aI1034447
aI0
aa(lp804
I3275
aI2062
aI198
aI29504
aF0.0
aF0.9296482412060302
aF0.5276381909547738
aI68
aI5
aI4687647
aI0
aa(lp805
I3376
aI627
aI199
aI35700
aF0.0
aF0.755
aF0.18
aI211
aI42
aI2562515
aI0
aa(lp806
I305
aI141
aI73
aI7246
aF0.0
aF0.345
aF0.295
aI224
aI11
aI2073506
aI0
aa(lp807
I1187
aI1927
aI59
aI6906
aF0.0
aF0.7258064516129032
aF0.43548387096774194
aI67
aI19
aI97676
aI0
aa(lp808
I2846
aI3005
aI199
aI0
aF0.0
aF0.015
aF0.985
aI11
aI163
aI38993
aI0
aa(lp809
I768
aI389
aI117
aI11246
aF0.0
aF0.7743589743589744
aF0.22564102564102564
aI505
aI0
aI5345967
aI0
aa(lp810
I57
aI106
aI199
aI4559
aF0.0
aF0.845
aF0.19
aI251
aI3
aI422923
aI0
aa(lp811
I811
aI1745
aI199
aI10182
aF0.0
aF0.49
aF0.26
aI292
aI23
aI3383
aI0
aa(lp812
I1072
aI670
aI199
aI10552
aF0.0
aF0.85
aF0.365
aI33
aI3
aI2272592
aI0
aa(lp813
I5804
aI691
aI198
aI19986
aF0.0
aF0.5728643216080402
aF0.35175879396984927
aI2208
aI292
aI88643
aI0
aa(lp814
I727
aI428
aI49
aI1769
aF0.0
aF0.4444444444444444
aF0.045454545454545456
aI126
aI7
aI231986
aI0
aa(lp815
I357
aI950
aI199
aI19805
aF0.0
aF0.755
aF0.295
aI113
aI7
aI77090
aI0
aa(lp816
I2993
aI4994
aI199
aI849
aF0.0
aF0.63
aF0.65
aI41
aI62
aI374921
aI0
aa(lp817
I512
aI201
aI199
aI90
aF0.0
aF0.875
aF0.235
aI25
aI37
aI14
aI0
aa(lp818
I5503
aI5857
aI199
aI2982
aF0.0
aF0.88
aF0.53
aI239
aI131
aI3908178
aI0
aa(lp819
I137
aI134
aI35
aI1148
aF0.0
aF0.235
aF0.05
aI351
aI2
aI148622
aI0
aa(lp820
I156
aI149
aI81
aI1031
aF0.0
aF0.6834170854271356
aF0.23115577889447236
aI243
aI0
aI1808063
aI0
aa(lp821
I316
aI209
aI108
aI7509
aF0.0
aF0.6180904522613065
aF0.1658291457286432
aI70
aI3
aI6471984
aI0
aa(lp822
I466
aI265
aI191
aI6600
aF0.0
aF0.5364583333333334
aF0.11979166666666667
aI131
aI22
aI3375
aI0
aa(lp823
I395
aI429
aI199
aI7319
aF0.0
aF0.835
aF0.335
aI297
aI4
aI769559
aI0
aa(lp824
I85
aI222
aI199
aI834
aF0.0
aF0.55
aF0.07
aI166
aI2
aI722324
aI0
aa(lp825
I555
aI658
aI199
aI7120
aF0.0
aF0.295
aF0.185
aI520
aI7
aI197659
aI0
aa(lp826
I191
aI383
aI87
aI5363
aF0.0
aF0.74
aF0.35
aI40
aI6
aI288675
aI0
aa(lp827
I454
aI525
aI199
aI6546
aF0.0
aF0.925
aF0.205
aI169
aI10
aI124702
aI0
aa(lp828
I880
aI294
aI197
aI12244
aF0.0
aF0.7626262626262627
aF0.1111111111111111
aI291
aI4
aI61668
aI0
aa(lp829
I1386
aI866
aI199
aI1494
aF0.0
aF0.455
aF0.33
aI45
aI22
aI653810
aI0
aa(lp830
I818
aI511
aI197
aI4439
aF0.0
aF0.5959595959595959
aF0.4494949494949495
aI10
aI3
aI4176549
aI0
aa(lp831
I114
aI109
aI21
aI120
aF0.0
aF0.96
aF0.16
aI130
aI0
aI141
aI0
aa(lp832
I677
aI833
aI199
aI40416
aF0.0
aF0.975
aF0.325
aI52
aI1
aI5202099
aI0
aa(lp833
I25
aI74
aI199
aI62
aF0.0
aF0.995
aF0.135
aI35
aI1
aI13
aI0
aa(lp834
I177
aI128
aI197
aI2330
aF0.0
aF0.29797979797979796
aF0.1919191919191919
aI76
aI1
aI296582
aI0
aa(lp835
I822
aI467
aI128
aI9416
aF0.0
aF0.495
aF0.055
aI858
aI0
aI289174
aI0
aa(lp836
I4656
aI391
aI199
aI1971
aF0.0
aF0.205
aF0.66
aI736
aI91
aI8454
aI1
aa(lp837
I3283
aI2228
aI198
aI7010
aF0.0
aF0.45226130653266333
aF0.04522613065326633
aI16
aI5
aI276245
aI0
aa(lp838
I370
aI324
aI197
aI13880
aF0.0
aF0.7373737373737373
aF0.30303030303030304
aI264
aI1
aI2918309
aI0
aa(lp839
I601
aI229
aI197
aI879
aF0.0
aF0.3333333333333333
aF0.08080808080808081
aI203
aI3
aI316454
aI0
aa(lp840
I959
aI717
aI197
aI7301
aF0.0
aF0.7222222222222222
aF0.08080808080808081
aI30
aI6
aI5026565
aI0
aa(lp841
I783
aI109
aI197
aI891
aF0.0
aF0.5151515151515151
aF0.2474747474747475
aI6
aI5
aI1924133
aI0
aa(lp842
I1734
aI1208
aI199
aI20774
aF0.0
aF0.73
aF0.21
aI1098
aI54
aI34020
aI0
aa(lp843
I7611
aI878
aI199
aI6745
aF0.0
aF0.75
aF0.36
aI375
aI190
aI234592
aI1
aa(lp844
I309
aI224
aI196
aI5784
aF0.0
aF0.5583756345177665
aF0.37055837563451777
aI130
aI1
aI2033690
aI0
aa(lp845
I311
aI297
aI55
aI256
aF0.0
aF0.615
aF0.345
aI120
aI4
aI679002
aI0
aa(lp846
I310
aI571
aI146
aI2644
aF0.0
aF0.6914893617021277
aF0.4148936170212766
aI42
aI2
aI2495974
aI0
aa(lp847
I263
aI459
aI78
aI1335
aF0.0
aF0.735
aF0.155
aI287
aI27
aI2083022
aI0
aa(lp848
I3538
aI995
aI197
aI73162
aF0.0
aF0.4393939393939394
aF0.29797979797979796
aI2120
aI24
aI219308
aI0
aa(lp849
I179
aI268
aI199
aI309
aF0.0
aF0.58
aF0.07
aI63
aI0
aI393936
aI0
aa(lp850
I821
aI372
aI197
aI53351
aF0.0
aF0.6919191919191919
aF0.09595959595959595
aI614
aI4
aI211052
aI0
aa(lp851
I2432
aI2028
aI195
aI21046
aF0.0
aF0.6020408163265306
aF0.45408163265306123
aI206
aI17
aI1309376
aI0
aa(lp852
I1514
aI922
aI48
aI688
aF0.0
aF0.22
aF0.935
aI31
aI36
aI577
aI0
aa(lp853
I231
aI839
aI198
aI1980
aF0.0
aF0.6331658291457286
aF0.27638190954773867
aI168
aI4
aI2673527
aI0
aa(lp854
I768
aI2823
aI195
aI6520
aF0.0
aF0.8826530612244898
aF0.16326530612244897
aI14
aI9
aI428568
aI0
aa(lp855
I223
aI152
aI199
aI8407
aF0.0
aF0.74
aF0.29
aI94
aI27
aI680129
aI0
aa(lp856
I962
aI231
aI199
aI53521
aF0.0
aF0.75
aF0.175
aI109
aI36
aI2493720
aI0
aa(lp857
I110
aI629
aI199
aI2630
aF0.0
aF0.975
aF0.455
aI62
aI2
aI4889752
aI0
aa(lp858
I429
aI1207
aI199
aI807
aF0.0
aF0.94
aF0.565
aI189
aI27
aI616
aI0
aa(lp859
I850
aI656
aI198
aI3808
aF0.0
aF0.37185929648241206
aF0.2613065326633166
aI29
aI7
aI450809
aI0
aa(lp860
I428
aI458
aI195
aI4601
aF0.0
aF0.8571428571428571
aF0.17857142857142858
aI39
aI5
aI2240232
aI0
aa(lp861
I489
aI1176
aI197
aI14683
aF0.0
aF0.6565656565656566
aF0.35858585858585856
aI541
aI4
aI2830017
aI0
aa(lp862
I2497
aI12
aI199
aI1
aF0.0
aF0.0
aF1.0
aI11
aI143
aI9
aI0
aa(lp863
I261
aI899
aI63
aI55
aF0.0
aF0.42
aF0.51
aI33
aI53
aI181568
aI0
aa(lp864
I1738
aI2044
aI199
aI63427
aF0.0
aF0.99
aF0.31
aI7
aI6
aI835014
aI0
aa(lp865
I1032
aI652
aI199
aI19277
aF0.0
aF0.68
aF0.265
aI1031
aI4
aI703028
aI0
aa(lp866
I1248
aI941
aI102
aI5050
aF0.0
aF0.7638190954773869
aF0.12562814070351758
aI333
aI2
aI1192650
aI0
aa(lp867
I24
aI36
aI79
aI203
aF0.0
aF0.195
aF0.02
aI127
aI0
aI254688
aI0
aa(lp868
I981
aI562
aI199
aI9266
aF0.0
aF0.5
aF0.275
aI54
aI33
aI361315
aI0
aa(lp869
I31
aI129
aI119
aI809
aF0.0
aF0.835
aF0.275
aI47
aI0
aI15937
aI0
aa(lp870
I1250
aI1647
aI71
aI6265
aF0.0
aF0.615
aF0.475
aI151
aI72
aI84763
aI0
aa(lp871
I1418
aI1505
aI128
aI978
aF0.0
aF0.715
aF0.785
aI246
aI41
aI25880
aI0
aa(lp872
I695
aI576
aI198
aI810
aF0.0
aF0.4371859296482412
aF0.08542713567839195
aI127
aI17
aI19006
aI0
aa(lp873
I1890
aI676
aI197
aI24076
aF0.0
aF0.7121212121212122
aF0.2676767676767677
aI92
aI21
aI436931
aI0
aa(lp874
I473
aI359
aI199
aI6500
aF0.0
aF0.735
aF0.175
aI305
aI3
aI1321485
aI0
aa(lp875
I533
aI192
aI184
aI5121
aF0.0
aF0.732620320855615
aF0.0374331550802139
aI210
aI6
aI371937
aI0
aa(lp876
I1317
aI0
aI195
aI56215
aF0.0
aF0.37244897959183676
aF0.17346938775510204
aI261
aI31
aI241134
aI0
aa(lp877
I1420
aI117
aI199
aI6087
aF0.0
aF0.6
aF0.4
aI321
aI6
aI589395
aI0
aa(lp878
I344
aI689
aI199
aI8103
aF0.0
aF0.455
aF0.245
aI474
aI8
aI325563
aI0
aa(lp879
I588
aI53
aI198
aI9501
aF0.0
aF0.592964824120603
aF0.23115577889447236
aI37
aI13
aI850471
aI0
aa(lp880
I1132
aI145
aI198
aI4132
aF0.0
aF0.4371859296482412
aF0.1507537688442211
aI50
aI0
aI916784
aI0
aa(lp881
I84
aI32
aI199
aI3128
aF0.0
aF0.395
aF0.825
aI8
aI13
aI2
aI0
aa(lp882
I210
aI498
aI199
aI3793
aF0.0
aF0.58
aF0.425
aI181
aI16
aI1991366
aI0
aa(lp883
I1005
aI488
aI199
aI10743
aF0.0
aF0.565
aF0.245
aI163
aI9
aI754264
aI0
aa(lp884
I418
aI372
aI75
aI1334
aF0.0
aF0.7939698492462312
aF0.34673366834170855
aI126
aI13
aI1213183
aI0
aa(lp885
I1134
aI564
aI194
aI2036
aF0.0
aF0.9333333333333333
aF0.24102564102564103
aI113
aI1
aI3403639
aI0
aa(lp886
I608
aI656
aI93
aI3147
aF0.0
aF0.4696969696969697
aF0.22727272727272727
aI159
aI5
aI363402
aI0
aa(lp887
I2066
aI1566
aI199
aI5322
aF0.0
aF0.585
aF0.215
aI65
aI8
aI1503735
aI0
aa(lp888
I0
aI10
aI3
aI1
aF0.0
aF0.75
aF0.0
aI1
aI0
aI1
aI0
aa(lp889
I689
aI259
aI110
aI407
aF0.0
aF0.51
aF0.765
aI279
aI49
aI13632
aI0
aa(lp890
I136
aI94
aI199
aI4217
aF0.0
aF0.395
aF0.175
aI54
aI3
aI455221
aI0
aa(lp891
I807
aI2589
aI199
aI6193
aF0.0
aF0.96
aF0.31
aI216
aI20
aI298164
aI0
aa(lp892
I728
aI735
aI195
aI2916
aF0.0
aF0.5255102040816326
aF0.23469387755102042
aI16
aI2
aI1467260
aI0
aa(lp893
I50
aI65
aI198
aI812
aF0.0
aF0.6231155778894473
aF0.17587939698492464
aI722
aI2
aI60707
aI0
aa(lp894
I672
aI692
aI196
aI8538
aF0.0
aF0.5329949238578681
aF0.17258883248730963
aI228
aI3
aI2914665
aI0
aa(lp895
I1083
aI513
aI197
aI85690
aF0.0
aF0.7272727272727273
aF0.17676767676767677
aI135
aI5
aI1167846
aI0
aa(lp896
I398
aI1110
aI57
aI1685
aF0.0
aF0.495
aF0.095
aI623
aI2
aI1532973
aI0
aa(lp897
I164
aI604
aI100
aI3804
aF0.0
aF0.7360406091370558
aF0.07614213197969544
aI144
aI2
aI825216
aI0
aa(lp898
I4288
aI4903
aI199
aI32591
aF0.0
aF0.895
aF0.195
aI281
aI51
aI1535562
aI0
aa(lp899
I3155
aI4644
aI199
aI88
aF0.0
aF0.825
aF0.19
aI185
aI33
aI231450
aI0
aa(lp900
I56
aI26
aI167
aI2
aF0.0
aF0.04
aF0.99
aI20
aI4
aI8
aI0
aa(lp901
I4186
aI982
aI199
aI1468
aF0.0
aF0.52
aF0.79
aI43
aI119
aI1927
aI0
aa(lp902
I2928
aI3571
aI199
aI57
aF0.0
aF0.85
aF0.33
aI8
aI31
aI349531
aI0
aa(lp903
I184
aI132
aI199
aI1825
aF0.0
aF0.6
aF0.215
aI26
aI6
aI1576560
aI0
aa(lp904
I451
aI1145
aI198
aI15239
aF0.0
aF0.8492462311557789
aF0.25125628140703515
aI179
aI15
aI4130953
aI0
aa(lp905
I128
aI335
aI108
aI71
aF0.0
aF0.45
aF0.655
aI79
aI1
aI1058
aI0
aa(lp906
I1667
aI759
aI198
aI783
aF0.0
aF0.5376884422110553
aF0.3015075376884422
aI82
aI6
aI1687025
aI0
aa(lp907
I7422
aI599
aI89
aI678
aF0.0
aF0.65
aF0.32
aI1440
aI70
aI44952
aI0
aa(lp908
I278
aI173
aI199
aI14656
aF0.0
aF0.77
aF0.29
aI166
aI1
aI2490980
aI0
aa(lp909
I2618
aI1939
aI199
aI60391
aF0.0
aF0.87
aF0.305
aI132
aI122
aI28232
aI0
aa(lp910
I1228
aI770
aI199
aI21724
aF0.0
aF0.835
aF0.175
aI1154
aI5
aI3518072
aI0
aa(lp911
I3741
aI5000
aI191
aI116310
aF0.0
aF0.9947916666666666
aF0.3697916666666667
aI2
aI937
aI802891
aI0
aa(lp912
I628
aI258
aI199
aI18731
aF0.0
aF0.42
aF0.165
aI555
aI4
aI122321
aI0
aa(lp913
I118
aI177
aI52
aI4756
aF0.0
aF0.3147208121827411
aF0.015228426395939087
aI84
aI2
aI275085
aI0
aa(lp914
I252
aI173
aI197
aI11309
aF0.0
aF0.7424242424242424
aF0.1111111111111111
aI180
aI3
aI5034917
aI0
aa(lp915
I1918
aI762
aI199
aI39802
aF0.0
aF0.765
aF0.25
aI523
aI22
aI871
aI0
aa(lp916
I865
aI567
aI180
aI5876
aF0.0
aF0.5728643216080402
aF0.07035175879396985
aI793
aI4
aI1271974
aI0
aa(lp917
I1154
aI209
aI199
aI44580
aF0.0
aF0.945
aF0.375
aI43
aI442
aI604092
aI0
aa(lp918
I1334
aI1493
aI195
aI24905
aF0.0
aF0.6836734693877551
aF0.18877551020408162
aI22
aI41
aI43475
aI0
aa(lp919
I145
aI94
aI199
aI2018
aF0.0
aF0.385
aF0.13
aI75
aI4
aI1015099
aI0
aa(lp920
I1333
aI1054
aI162
aI1184
aF0.0
aF0.715
aF0.645
aI243
aI29
aI507193
aI0
aa(lp921
I2182
aI899
aI199
aI868
aF0.0
aF0.89
aF0.415
aI118
aI170
aI122143
aI0
aa(lp922
I917
aI397
aI199
aI2070
aF0.0
aF1.0
aF0.205
aI6
aI131
aI155834
aI0
aa(lp923
I371
aI327
aI58
aI6559
aF0.0
aF0.7202072538860104
aF0.2538860103626943
aI191
aI1
aI4465184
aI0
aa(lp924
I898
aI306
aI193
aI13739
aF0.0
aF0.6649484536082474
aF0.14432989690721648
aI917
aI4
aI3302835
aI0
aa(lp925
I551
aI341
aI195
aI5206
aF0.0
aF0.6326530612244898
aF0.15306122448979592
aI156
aI1
aI2789613
aI0
aa(lp926
I1289
aI857
aI199
aI7282
aF0.0
aF0.64
aF0.305
aI20
aI8
aI1927791
aI0
aa(lp927
I369
aI318
aI148
aI23353
aF0.0
aF0.6701030927835051
aF0.18041237113402062
aI170
aI1
aI1477081
aI0
aa(lp928
I610
aI2040
aI199
aI19768
aF0.0
aF0.96
aF0.24
aI57
aI18
aI906516
aI0
aa(lp929
I660
aI483
aI199
aI27347
aF0.0
aF0.455
aF0.295
aI212
aI77
aI72352
aI0
aa(lp930
I389
aI490
aI197
aI6683
aF0.0
aF0.8636363636363636
aF0.43434343434343436
aI237
aI1
aI7858974
aI0
aa(lp931
I259
aI239
aI198
aI5372
aF0.0
aF0.7738693467336684
aF0.2964824120603015
aI128
aI3
aI5129454
aI0
aa(lp932
I351
aI171
aI197
aI47098
aF0.0
aF0.8080808080808081
aF0.2222222222222222
aI210
aI0
aI5020413
aI0
aa(lp933
I14
aI23
aI76
aI76
aF0.0
aF0.41
aF0.595
aI44
aI1
aI53240
aI0
aa(lp934
I187
aI702
aI197
aI858
aF0.0
aF0.9545454545454546
aF0.29292929292929293
aI89
aI10
aI955147
aI0
aa(lp935
I915
aI370
aI198
aI17526
aF0.0
aF0.6381909547738693
aF0.1658291457286432
aI4832
aI8
aI1259853
aI0
aa(lp936
I499
aI680
aI121
aI5046
aF0.0
aF0.8418367346938775
aF0.37755102040816324
aI74
aI5
aI6519953
aI0
aa(lp937
I171
aI99
aI199
aI4796
aF0.0
aF0.28
aF0.01
aI59
aI0
aI137707
aI0
aa(lp938
I670
aI611
aI198
aI16719
aF0.0
aF0.44221105527638194
aF0.15577889447236182
aI353
aI9
aI617989
aI0
aa(lp939
I404
aI701
aI199
aI11613
aF0.0
aF0.475
aF0.2
aI309
aI1
aI1545686
aI0
aa(lp940
I616
aI284
aI198
aI558
aF0.0
aF0.5477386934673367
aF0.1507537688442211
aI19
aI13
aI1875668
aI0
aa(lp941
I1131
aI168
aI199
aI13509
aF0.0
aF0.57
aF0.275
aI168
aI6
aI911448
aI0
aa(lp942
I422
aI305
aI196
aI2696
aF0.0
aF0.8883248730964467
aF0.16751269035532995
aI100
aI1
aI2055125
aI0
aa(lp943
I623
aI1985
aI199
aI1254
aF0.0
aF0.6
aF0.48
aI6
aI76
aI1480594
aI0
aa(lp944
I962
aI274
aI198
aI22725
aF0.0
aF0.8844221105527639
aF0.23618090452261306
aI121
aI1
aI2622321
aI0
aa(lp945
I7553
aI7577
aI199
aI7529
aF0.0
aF0.495
aF0.58
aI74
aI30
aI8622
aI0
aa(lp946
I2258
aI344
aI199
aI15994
aF0.0
aF0.745
aF0.195
aI36
aI29
aI593308
aI0
aa(lp947
I390
aI694
aI199
aI8316
aF0.0
aF0.94
aF0.275
aI28
aI5
aI2424952
aI0
aa(lp948
I1357
aI659
aI87
aI2365
aF0.0
aF0.425
aF0.135
aI104
aI167
aI24457
aI0
aa(lp949
I4763
aI4118
aI198
aI14823
aF0.0
aF0.8894472361809045
aF0.3015075376884422
aI134
aI29
aI185811
aI0
aa(lp950
I227
aI268
aI199
aI26570
aF0.0
aF0.72
aF0.33
aI498
aI5
aI131592
aI0
aa(lp951
I751
aI484
aI199
aI12858
aF0.0
aF0.645
aF0.1
aI111
aI8
aI1554837
aI0
aa(lp952
I366
aI245
aI195
aI2424
aF0.0
aF0.5153061224489796
aF0.27040816326530615
aI460
aI0
aI3314554
aI0
aa(lp953
I555
aI198
aI198
aI17080
aF0.0
aF0.31155778894472363
aF0.18090452261306533
aI602
aI5
aI444261
aI0
aa(lp954
I299
aI294
aI197
aI784
aF0.0
aF0.31313131313131315
aF0.31313131313131315
aI129
aI0
aI268454
aI0
aa(lp955
I2154
aI1508
aI83
aI2744
aF0.0
aF0.755
aF0.585
aI571
aI90
aI2378
aI0
aa(lp956
I45
aI75
aI66
aI190
aF0.0
aF0.5
aF0.12318840579710146
aI131
aI0
aI1916457
aI0
aa(lp957
I120
aI125
aI198
aI487
aF0.0
aF0.7738693467336684
aF0.35175879396984927
aI58
aI1
aI4302569
aI0
aa(lp958
I1685
aI1466
aI199
aI23677
aF0.0
aF0.625
aF0.415
aI130
aI55
aI435068
aI0
aa(lp959
I709
aI463
aI198
aI29782
aF0.0
aF0.9095477386934674
aF0.36683417085427134
aI44
aI5
aI8582324
aI0
aa(lp960
I531
aI259
aI198
aI14453
aF0.0
aF0.7286432160804021
aF0.22110552763819097
aI120
aI0
aI1905563
aI0
aa(lp961
I331
aI315
aI83
aI5760
aF0.0
aF0.25
aF0.05
aI182
aI0
aI547390
aI0
aa(lp962
I617
aI551
aI199
aI4964
aF0.0
aF0.975
aF0.255
aI6
aI2
aI2251182
aI0
aa(lp963
I971
aI981
aI199
aI949
aF0.0
aF0.195
aF0.01
aI3
aI16
aI48490
aI0
aa(lp964
I750
aI452
aI198
aI59198
aF0.0
aF0.8241206030150754
aF0.1708542713567839
aI704
aI27
aI2479392
aI0
aa(lp965
I216
aI220
aI199
aI54969
aF0.0
aF0.995
aF0.345
aI291
aI5
aI2041
aI0
aa(lp966
I88
aI455
aI199
aI1438
aF0.0
aF0.98
aF0.235
aI9
aI2
aI2196072
aI0
aa(lp967
I11308
aI4772
aI199
aI8527
aF0.0
aF0.375
aF0.2
aI102
aI380
aI438967
aI0
aa(lp968
I2324
aI892
aI199
aI1823
aF0.0
aF0.42
aF0.305
aI33
aI19
aI296295
aI0
aa(lp969
I73
aI137
aI199
aI813
aF0.0
aF0.46
aF0.095
aI131
aI5
aI661663
aI0
aa(lp970
I232
aI476
aI198
aI17486
aF0.0
aF0.9899497487437185
aF0.1457286432160804
aI29
aI28
aI5371432
aI0
aa(lp971
I1446
aI793
aI197
aI28634
aF0.0
aF0.5858585858585859
aF0.11616161616161616
aI339
aI2
aI1737245
aI0
aa(lp972
I543
aI1453
aI199
aI5637
aF0.0
aF0.58
aF0.22
aI39
aI1
aI427647
aI0
aa(lp973
I1999
aI1493
aI199
aI13365
aF0.0
aF0.905
aF0.27
aI70
aI10
aI4640503
aI0
aa(lp974
I310
aI546
aI197
aI10522
aF0.0
aF0.6313131313131313
aF0.1414141414141414
aI77
aI3
aI1894331
aI0
aa(lp975
I428
aI519
aI199
aI1100
aF0.0
aF0.545
aF0.17
aI552
aI2
aI1003156
aI0
aa(lp976
I234
aI54
aI199
aI71
aF0.0
aF0.085
aF0.055
aI42
aI1
aI111698
aI0
aa(lp977
I525
aI246
aI53
aI5956
aF0.0
aF0.345
aF0.28
aI124
aI29
aI38227
aI0
aa(lp978
I234
aI178
aI31
aI1946
aF0.0
aF0.195
aF0.18
aI846
aI1
aI6283
aI0
aa(lp979
I1602
aI224
aI199
aI13641
aF0.0
aF0.535
aF0.255
aI28
aI9
aI3361830
aI0
aa(lp980
I441
aI182
aI199
aI8577
aF0.0
aF0.75
aF0.115
aI210
aI10
aI1515837
aI0
aa(lp981
I837
aI266
aI199
aI19074
aF0.0
aF0.835
aF0.2
aI319
aI8
aI3624582
aI0
aa(lp982
I94
aI736
aI199
aI4784
aF0.0
aF0.965
aF0.325
aI105
aI6
aI2274
aI0
aa(lp983
I503
aI311
aI162
aI237
aF0.0
aF0.265
aF0.91
aI123
aI25
aI159
aI0
aa(lp984
I455
aI418
aI199
aI7427
aF0.0
aF0.695
aF0.18
aI446
aI20
aI547888
aI0
aa(lp985
I168
aI64
aI48
aI9550
aF0.0
aF0.5276381909547738
aF0.04020100502512563
aI271
aI0
aI384282
aI0
aa(lp986
I391
aI52
aI194
aI7124
aF0.0
aF0.9282051282051282
aF0.4
aI36
aI1
aI9133220
aI0
aa(lp987
I939
aI2202
aI33
aI42
aF0.0
aF0.305
aF0.845
aI109
aI59
aI736
aI0
aa(lp988
I13
aI44
aI1
aI8
aF0.0
aF0.7407407407407407
aF0.037037037037037035
aI1
aI0
aI24712
aI0
aa(lp989
I31175
aI1187
aI199
aI1648
aF0.0
aF0.72
aF0.39
aI8532
aI827
aI2154185
aI1
aa(lp990
I17320
aI1879
aI199
aI544
aF0.0
aF0.4
aF0.515
aI3759
aI745
aI2786610
aI1
aa(lp991
I12275
aI385
aI95
aI186
aF0.0
aF0.505
aF0.545
aI1613
aI169
aI214494
aI0
aa(lp992
I563
aI966
aI199
aI24254
aF0.0
aF0.94
aF0.24
aI283
aI20
aI420321
aI0
aa(lp993
I160
aI265
aI197
aI1229
aF0.0
aF0.7727272727272727
aF0.4090909090909091
aI33
aI0
aI6747154
aI0
aa(lp994
I467
aI426
aI199
aI29735
aF0.0
aF0.6
aF0.13
aI213
aI28
aI1247353
aI0
aa(lp995
I470
aI95
aI199
aI18331
aF0.0
aF0.965
aF0.645
aI2
aI3
aI6663002
aI0
aa(lp996
I69
aI439
aI199
aI4098
aF0.0
aF0.3
aF0.03
aI10
aI1
aI235221
aI0
aa(lp997
I853
aI2256
aI177
aI65
aF0.0
aF0.545
aF0.795
aI232
aI17
aI161710
aI0
aa(lp998
I136
aI101
aI36
aI107
aF0.0
aF0.33
aF0.08
aI17
aI4
aI354195
aI0
aa(lp999
I158
aI759
aI20
aI327
aF0.0
aF0.285
aF0.835
aI30
aI11
aI50929
aI0
aa(lp1000
I1080
aI251
aI198
aI96228
aF0.0
aF0.8190954773869347
aF0.21608040201005024
aI9
aI44
aI281835
aI0
aa(lp1001
I1864
aI1538
aI188
aI2948
aF0.0
aF0.7525252525252525
aF0.16161616161616163
aI91
aI13
aI2584084
aI0
aa(lp1002
I731
aI1786
aI199
aI1505
aF0.0
aF0.83
aF0.125
aI65
aI15
aI20624
aI0
aa(lp1003
I303
aI299
aI132
aI2549
aF0.0
aF0.5989847715736041
aF0.04060913705583756
aI637
aI1
aI616410
aI0
aa(lp1004
I577
aI213
aI197
aI19349
aF0.0
aF0.9292929292929293
aF0.10101010101010101
aI70
aI1
aI2090905
aI0
aa(lp1005
I716
aI683
aI198
aI12611
aF0.0
aF0.6432160804020101
aF0.1708542713567839
aI35
aI4
aI1461235
aI0
aa(lp1006
I70
aI235
aI10
aI2541
aF0.0
aF0.9949748743718593
aF0.05527638190954774
aI48
aI2
aI78344
aI0
aa(lp1007
I1944
aI1845
aI198
aI2991
aF0.0
aF0.7185929648241206
aF0.45226130653266333
aI16
aI13
aI3820507
aI0
aa(lp1008
I766
aI625
aI198
aI32338
aF0.0
aF0.7638190954773869
aF0.22613065326633167
aI94
aI5
aI6351092
aI0
aa(lp1009
I174
aI181
aI198
aI85
aF0.0
aF0.9949748743718593
aF0.271356783919598
aI193
aI5
aI6816684
aI0
aa(lp1010
I347
aI521
aI196
aI1762
aF0.0
aF0.5228426395939086
aF0.06091370558375635
aI68
aI0
aI572014
aI0
aa(lp1011
I94
aI217
aI60
aI1428
aF0.0
aF0.7788944723618091
aF0.2613065326633166
aI76
aI8
aI182870
aI0
aa(lp1012
I269
aI375
aI196
aI6660
aF0.0
aF0.7360406091370558
aF0.2182741116751269
aI40
aI2
aI3188682
aI0
aa(lp1013
I441
aI1041
aI133
aI3490
aF0.0
aF0.5284974093264249
aF0.05699481865284974
aI219
aI2
aI377663
aI0
aa(lp1014
I1295
aI397
aI199
aI5171
aF0.0
aF0.585
aF0.66
aI100
aI63
aI153550
aI0
aa(lp1015
I482
aI798
aI199
aI10056
aF0.0
aF0.245
aF0.005
aI844
aI5
aI64066
aI0
aa(lp1016
I777
aI1155
aI198
aI13401
aF0.0
aF0.949748743718593
aF0.2613065326633166
aI42
aI23
aI493390
aI0
aa(lp1017
I855
aI391
aI199
aI18938
aF0.0
aF0.525
aF0.145
aI542
aI9
aI246482
aI0
aa(lp1018
I28
aI39
aI6
aI26
aF0.0
aF0.8484848484848485
aF0.06060606060606061
aI12
aI0
aI46
aI0
aa(lp1019
I115
aI283
aI199
aI10620
aF0.0
aF0.365
aF0.13
aI44
aI4
aI1680914
aI0
aa(lp1020
I659
aI374
aI199
aI6086
aF0.0
aF0.675
aF0.19
aI217
aI3
aI1839785
aI0
aa(lp1021
I778
aI1563
aI198
aI10525
aF0.0
aF0.5326633165829145
aF0.18592964824120603
aI412
aI5
aI1149027
aI0
aa(lp1022
I964
aI222
aI198
aI42420
aF0.0
aF0.46733668341708545
aF0.24623115577889448
aI668
aI15
aI388098
aI0
aa(lp1023
I58
aI699
aI61
aI37
aF0.0
aF1.0
aF0.0
aI74
aI0
aI44
aI0
aa(lp1024
I166
aI470
aI199
aI516
aF0.0
aF0.935
aF0.735
aI28
aI4
aI30
aI0
aa(lp1025
I407
aI1191
aI199
aI3467
aF0.0
aF0.755
aF0.495
aI77
aI15
aI632804
aI0
aa(lp1026
I365
aI316
aI120
aI872
aF0.0
aF0.375
aF0.19
aI125
aI10
aI1522
aI0
aa(lp1027
I347
aI299
aI199
aI29088
aF0.0
aF0.88
aF0.475
aI144
aI102
aI337744
aI0
aa(lp1028
I666
aI466
aI199
aI33180
aF0.0
aF0.87
aF0.405
aI145
aI10
aI3158022
aI0
aa(lp1029
I129
aI771
aI188
aI65
aF0.0
aF0.4074074074074074
aF0.14814814814814814
aI16
aI2
aI75086
aI0
aa(lp1030
I903
aI854
aI35
aI106
aF0.0
aF0.19597989949748743
aF0.6080402010050251
aI75
aI69
aI21
aI0
aa(lp1031
I16
aI69
aI199
aI17
aF0.0
aF0.51
aF0.0
aI4
aI2
aI1
aI0
aa(lp1032
I114
aI133
aI99
aI2592
aF0.0
aF0.5918367346938775
aF0.10204081632653061
aI192
aI0
aI1867834
aI0
aa(lp1033
I446
aI257
aI190
aI31800
aF0.0
aF0.5863874345549738
aF0.14136125654450263
aI240
aI6
aI4726086
aI0
aa(lp1034
I4288
aI652
aI199
aI9355
aF0.0
aF0.33
aF0.205
aI319
aI22
aI65088
aI0
aa(lp1035
I932
aI585
aI197
aI20965
aF0.0
aF0.803030303030303
aF0.12626262626262627
aI248
aI0
aI1125568
aI0
aa(lp1036
I834
aI1364
aI199
aI17155
aF0.0
aF0.995
aF0.76
aI50
aI55
aI22336
aI0
aa(lp1037
I3102
aI2204
aI196
aI4198
aF0.0
aF0.8274111675126904
aF0.49238578680203043
aI25
aI22
aI1977439
aI0
aa(lp1038
I418
aI1110
aI57
aI724
aF0.0
aF0.785
aF0.195
aI172
aI20
aI451032
aI0
aa(lp1039
I285
aI188
aI199
aI735
aF0.0
aF0.31
aF0.12
aI13
aI2
aI539230
aI0
aa(lp1040
I179
aI616
aI54
aI2833
aF0.0
aF0.745
aF0.31
aI44
aI33
aI296048
aI0
aa(lp1041
I1592
aI1285
aI199
aI17368
aF0.0
aF0.905
aF0.315
aI126
aI11
aI186302
aI0
aa(lp1042
I541
aI413
aI198
aI4004
aF0.0
aF0.8994974874371859
aF0.1708542713567839
aI32
aI2
aI2364721
aI0
aa(lp1043
I5134
aI5158
aI198
aI33833
aF0.0
aF0.9748743718592965
aF0.21105527638190955
aI16
aI69
aI575509
aI0
aa(lp1044
I160
aI48
aI199
aI96
aF0.0
aF1.0
aF0.035
aI61
aI20
aI24
aI0
aa(lp1045
I17212
aI308
aI199
aI35711
aF0.0
aF0.85
aF0.35
aI128
aI180
aI1207045
aI0
aa(lp1046
I685
aI278
aI197
aI24820
aF0.0
aF0.803030303030303
aF0.2727272727272727
aI122
aI4
aI2887600
aI0
aa(lp1047
I1093
aI457
aI198
aI2898
aF0.0
aF0.47738693467336685
aF0.10050251256281408
aI269
aI3
aI991001
aI0
aa(lp1048
I217
aI337
aI78
aI2508
aF0.0
aF0.65
aF0.195
aI185
aI7
aI4969583
aI0
aa(lp1049
I420
aI272
aI196
aI12503
aF0.0
aF0.9543147208121827
aF0.6142131979695431
aI4
aI1
aI8834551
aI0
aa(lp1050
I2138
aI1884
aI198
aI2361
aF0.0
aF0.8291457286432161
aF0.49748743718592964
aI33
aI15
aI4934383
aI0
aa(lp1051
I135
aI209
aI197
aI4250
aF0.0
aF0.8333333333333334
aF0.2777777777777778
aI47
aI2
aI5631854
aI0
aa(lp1052
I353
aI452
aI127
aI58086
aF0.0
aF0.735
aF0.095
aI163
aI8
aI1228432
aI0
aa(lp1053
I311
aI239
aI198
aI2882
aF0.0
aF0.8542713567839196
aF0.22613065326633167
aI48
aI0
aI3180839
aI0
aa(lp1054
I166
aI187
aI120
aI2953
aF0.0
aF0.385
aF0.085
aI154
aI0
aI163938
aI0
aa(lp1055
I809
aI1033
aI199
aI34753
aF0.0
aF0.91
aF0.175
aI403
aI19
aI26682
aI0
aa(lp1056
I496
aI331
aI199
aI1088
aF0.0
aF0.655
aF0.135
aI317
aI8
aI162959
aI0
aa(lp1057
I4407
aI332
aI199
aI2603
aF0.0
aF0.8
aF0.215
aI164
aI10
aI978921
aI0
aa(lp1058
I776
aI677
aI197
aI7958
aF0.0
aF0.5505050505050505
aF0.10101010101010101
aI347
aI6
aI574444
aI0
aa(lp1059
I2671
aI690
aI198
aI7865
aF0.0
aF0.5577889447236181
aF0.18592964824120603
aI702
aI32
aI734149
aI0
aa(lp1060
I890
aI832
aI196
aI10948
aF0.0
aF0.7715736040609137
aF0.3604060913705584
aI21
aI2
aI2924374
aI0
aa(lp1061
I284
aI345
aI40
aI2406
aF0.0
aF0.34594594594594597
aF0.15135135135135136
aI403
aI1
aI62607
aI0
aa(lp1062
I143
aI86
aI199
aI5331
aF0.0
aF0.97
aF0.745
aI13
aI0
aI44766
aI0
aa(lp1063
I1763
aI994
aI195
aI71654
aF0.0
aF0.9336734693877551
aF0.2653061224489796
aI32
aI10
aI4077062
aI0
aa(lp1064
I429
aI1224
aI198
aI585
aF0.0
aF0.9045226130653267
aF0.21105527638190955
aI15
aI19
aI1204950
aI0
aa(lp1065
I22
aI74
aI192
aI67
aF0.0
aF0.75
aF0.715
aI58
aI2
aI60762
aI0
aa(lp1066
I192
aI236
aI197
aI1843
aF0.0
aF0.803030303030303
aF0.2676767676767677
aI122
aI2
aI7174744
aI0
aa(lp1067
I457
aI163
aI86
aI26663
aF0.0
aF0.41919191919191917
aF0.07575757575757576
aI667
aI1
aI462057
aI0
aa(lp1068
I250
aI180
aI92
aI2754
aF0.0
aF0.7846153846153846
aF0.19487179487179487
aI50
aI0
aI3648305
aI0
aa(lp1069
I563
aI630
aI148
aI12807
aF0.0
aF0.6134020618556701
aF0.38144329896907214
aI202
aI3
aI2224821
aI0
aa(lp1070
I199
aI680
aI199
aI404
aF0.0
aF0.96
aF0.555
aI53
aI15
aI32820
aI0
aa(lp1071
I6631
aI422
aI198
aI11525
aF0.0
aF0.7939698492462312
aF0.49748743718592964
aI3321
aI21
aI1335922
aI0
aa(lp1072
I5766
aI5953
aI198
aI40171
aF0.0
aF0.7638190954773869
aF0.542713567839196
aI2
aI99
aI106590
aI0
aa(lp1073
I261
aI96
aI197
aI9348
aF0.0
aF0.41919191919191917
aF0.06060606060606061
aI18
aI4
aI990300
aI0
aa(lp1074
I702
aI1007
aI198
aI25554
aF0.0
aF0.9095477386934674
aF0.32160804020100503
aI26
aI48
aI419021
aI0
aa(lp1075
I1466
aI2032
aI199
aI5158
aF0.0
aF0.945
aF0.47
aI29
aI181
aI469474
aI0
aa(lp1076
I4611
aI461
aI199
aI14859
aF0.0
aF0.61
aF0.155
aI435
aI15
aI883810
aI0
aa(lp1077
I47937
aI1800
aI199
aI18602
aF0.0
aF0.615
aF0.41
aI8292
aI1342
aI253063
aI0
aa(lp1078
I479
aI336
aI196
aI12515
aF0.0
aF0.5786802030456852
aF0.29441624365482233
aI438
aI3
aI3174726
aI0
aa(lp1079
I588
aI457
aI199
aI83312
aF0.0
aF0.81
aF0.18
aI100
aI59
aI184084
aI0
aa(lp1080
I347
aI376
aI199
aI15720
aF0.0
aF0.685
aF0.145
aI190
aI14
aI736685
aI0
aa(lp1081
I2138
aI2280
aI199
aI53906
aF0.0
aF1.0
aF0.31
aI14
aI3
aI656385
aI0
aa(lp1082
I287
aI125
aI110
aI11179
aF0.0
aF0.7883597883597884
aF0.164021164021164
aI187
aI0
aI4705003
aI0
aa(lp1083
I334
aI615
aI148
aI3348
aF0.0
aF0.5276381909547738
aF0.035175879396984924
aI677
aI3
aI145629
aI0
aa(lp1084
I66
aI371
aI33
aI54
aF0.0
aF0.40425531914893614
aF0.3404255319148936
aI39
aI0
aI16655
aI0
aa(lp1085
I78
aI88
aI148
aI1880
aF0.0
aF0.6565656565656566
aF0.4393939393939394
aI46
aI2
aI2376294
aI0
aa(lp1086
I2034
aI1452
aI196
aI17621
aF0.0
aF0.8223350253807107
aF0.4416243654822335
aI298
aI10
aI6356768
aI0
aa(lp1087
I1761
aI1630
aI197
aI6627
aF0.0
aF0.8232323232323232
aF0.5
aI26
aI13
aI4058183
aI0
aa(lp1088
I665
aI722
aI187
aI20053
aF0.0
aF0.9627659574468085
aF0.31382978723404253
aI49
aI1
aI7042058
aI0
aa(lp1089
I2195
aI661
aI198
aI22602
aF0.0
aF0.8190954773869347
aF0.24120603015075376
aI970
aI49
aI1532084
aI0
aa(lp1090
I2229
aI1000
aI199
aI5931
aF0.0
aF0.42
aF0.1
aI104
aI5
aI259257
aI0
aa(lp1091
I1292
aI501
aI199
aI15432
aF0.0
aF0.705
aF0.185
aI314
aI2
aI218950
aI0
aa(lp1092
I399
aI766
aI199
aI1134
aF0.0
aF0.775
aF0.395
aI148
aI6
aI42
aI0
aa(lp1093
I61431
aI234
aI199
aI7756
aF0.0
aF0.54
aF0.625
aI1265
aI481
aI821
aI0
aa(lp1094
I469
aI374
aI111
aI5015
aF0.0
aF0.585
aF0.265
aI560
aI5
aI501623
aI0
aa(lp1095
I385
aI620
aI199
aI1566
aF0.0
aF0.955
aF0.22
aI27
aI6
aI1593740
aI0
aa(lp1096
I3072
aI4946
aI192
aI33295
aF0.0
aF0.7512953367875648
aF0.46113989637305697
aI102
aI18
aI115931
aI0
aa(lp1097
I269
aI250
aI199
aI4235
aF0.0
aF0.5
aF0.15
aI286
aI0
aI973977
aI0
aa(lp1098
I56
aI125
aI2
aI164
aF0.0
aF0.395
aF0.33
aI49
aI1
aI376878
aI0
aa(lp1099
I202
aI208
aI199
aI417
aF0.0
aF0.89
aF0.24
aI74
aI10
aI11108
aI0
aa(lp1100
I529
aI301
aI198
aI22032
aF0.0
aF0.5778894472361809
aF0.44221105527638194
aI222
aI3
aI3542926
aI0
aa(lp1101
I601
aI270
aI199
aI1816
aF0.0
aF0.13
aF0.01
aI3
aI6
aI21572
aI0
aa(lp1102
I1224
aI400
aI199
aI13058
aF0.0
aF0.455
aF0.295
aI106
aI17
aI986538
aI0
aa(lp1103
I1597
aI1185
aI199
aI14760
aF0.0
aF0.885
aF0.37
aI121
aI140
aI735206
aI0
aa(lp1104
I316
aI616
aI199
aI5348
aF0.0
aF0.33
aF0.04
aI2766
aI4
aI38858
aI0
aa(lp1105
I1224
aI810
aI197
aI1825
aF0.0
aF0.5202020202020202
aF0.23232323232323232
aI33
aI7
aI2152653
aI0
aa(lp1106
I485
aI256
aI198
aI7916
aF0.0
aF0.6633165829145728
aF0.24120603015075376
aI201
aI5
aI805747
aI0
aa(lp1107
I378
aI307
aI182
aI19930
aF0.0
aF0.7628865979381443
aF0.26804123711340205
aI84
aI3
aI7698655
aI0
aa(lp1108
I1281
aI1202
aI199
aI5696
aF0.0
aF0.785
aF0.44
aI160
aI31
aI2245268
aI0
aa(lp1109
I277
aI649
aI199
aI5169
aF0.0
aF0.375
aF0.225
aI48
aI9
aI535951
aI0
aa(lp1110
I347
aI173
aI195
aI5902
aF0.0
aF0.8673469387755102
aF0.22448979591836735
aI25
aI4
aI3059615
aI0
aa(lp1111
I420
aI210
aI198
aI25222
aF0.0
aF0.8341708542713567
aF0.22110552763819097
aI218
aI1
aI4913650
aI0
aa(lp1112
I408
aI354
aI198
aI3691
aF0.0
aF0.5879396984924623
aF0.1457286432160804
aI263
aI0
aI709674
aI0
aa(lp1113
I231
aI172
aI199
aI2191
aF0.0
aF0.46
aF0.18
aI140
aI7
aI2842231
aI0
aa(lp1114
I1751
aI362
aI199
aI46823
aF0.0
aF0.105
aF0.235
aI32
aI1
aI11726
aI0
aa(lp1115
I414
aI272
aI196
aI24372
aF0.0
aF0.766497461928934
aF0.39086294416243655
aI193
aI2
aI2286840
aI0
aa(lp1116
I137
aI242
aI199
aI493
aF0.0
aF0.725
aF0.115
aI27
aI4
aI1626742
aI0
aa(lp1117
I395
aI1093
aI199
aI6280
aF0.0
aF0.535
aF0.03
aI8
aI10
aI1459341
aI0
aa(lp1118
I337
aI438
aI198
aI6594
aF0.0
aF0.7537688442211056
aF0.20603015075376885
aI36
aI7
aI4461372
aI0
aa(lp1119
I3040
aI62
aI137
aI6028
aF0.0
aF0.585
aF0.45
aI349
aI52
aI103183
aI0
aa(lp1120
I8560
aI9345
aI199
aI18968
aF0.0
aF0.775
aF0.445
aI77
aI122
aI270715
aI0
aa(lp1121
I5
aI189
aI7
aI289
aF0.0
aF0.7586206896551724
aF0.13793103448275862
aI30
aI0
aI142
aI0
aa(lp1122
I1455
aI2457
aI180
aI14181
aF0.0
aF0.895
aF0.195
aI221
aI31
aI295650
aI0
aa(lp1123
I232
aI971
aI199
aI22134
aF0.0
aF0.565
aF0.405
aI223
aI5
aI727792
aI0
aa(lp1124
I2263
aI1006
aI199
aI2484
aF0.0
aF0.29
aF0.865
aI251
aI62
aI77
aI0
aa(lp1125
I778
aI518
aI199
aI535
aF0.0
aF0.565
aF0.155
aI105
aI19
aI1618207
aI0
aa(lp1126
I26
aI8
aI196
aI1503
aF0.0
aF0.8527918781725888
aF0.050761421319796954
aI9
aI3
aI399235
aI0
aa(lp1127
I660
aI609
aI199
aI10352
aF0.0
aF0.845
aF0.075
aI333
aI2
aI2148135
aI0
aa(lp1128
I339
aI608
aI199
aI15019
aF0.0
aF0.975
aF0.385
aI24
aI18
aI1476987
aI0
aa(lp1129
I241
aI347
aI154
aI807
aF0.0
aF0.51
aF0.045
aI186
aI2
aI832581
aI0
aa(lp1130
I2293
aI395
aI197
aI35934
aF0.0
aF0.6565656565656566
aF0.08585858585858586
aI1811
aI3
aI470325
aI0
aa(lp1131
I930
aI634
aI199
aI16386
aF0.0
aF0.785
aF0.315
aI95
aI7
aI1841688
aI0
aa(lp1132
I2834
aI2085
aI199
aI17
aF0.0
aF0.695
aF0.155
aI91
aI17
aI163604
aI0
aa(lp1133
I987
aI793
aI139
aI6135
aF0.0
aF0.5897435897435898
aF0.19487179487179487
aI506
aI0
aI1738138
aI0
aa(lp1134
I1293
aI452
aI85
aI966
aF0.0
aF0.815
aF0.39
aI240
aI47
aI870
aI0
aa(lp1135
I879
aI507
aI199
aI3482
aF0.0
aF0.86
aF0.525
aI76
aI95
aI116611
aI0
aa(lp1136
I1281
aI2271
aI199
aI27330
aF0.0
aF0.61
aF0.205
aI172
aI51
aI1060502
aI0
aa(lp1137
I261
aI236
aI197
aI4411
aF0.0
aF0.8535353535353535
aF0.20707070707070707
aI374
aI4
aI2305764
aI0
aa(lp1138
I619
aI333
aI195
aI15319
aF0.0
aF0.8673469387755102
aF0.4336734693877551
aI14
aI4
aI6321209
aI0
aa(lp1139
I477
aI102
aI140
aI6743
aF0.0
aF0.43
aF0.115
aI773
aI1
aI1851735
aI0
aa(lp1140
I39
aI59
aI199
aI13103
aF0.0
aF0.86
aF0.345
aI9
aI232
aI467877
aI0
aa(lp1141
I154
aI383
aI147
aI5587
aF0.0
aF0.9187817258883249
aF0.28426395939086296
aI28
aI5
aI2270886
aI0
aa(lp1142
I773
aI756
aI199
aI336
aF0.0
aF0.5
aF0.125
aI26
aI54
aI303872
aI0
aa(lp1143
I1734
aI1195
aI129
aI2567
aF0.0
aF0.945
aF0.27
aI154
aI48
aI2372217
aI0
aa(lp1144
I217
aI244
aI199
aI11605
aF0.0
aF0.855
aF0.42
aI23
aI2
aI6250551
aI0
aa(lp1145
I47
aI88
aI199
aI769
aF0.0
aF0.295
aF0.18
aI93
aI5
aI613
aI0
aa(lp1146
I211
aI170
aI22
aI1464
aF0.0
aF0.7446808510638298
aF0.15425531914893617
aI138
aI1
aI1386710
aI0
aa(lp1147
I48
aI31
aI199
aI406
aF0.0
aF0.7
aF0.165
aI195
aI0
aI2336
aI0
aa(lp1148
I5725
aI5370
aI199
aI394
aF0.0
aF0.915
aF0.35
aI25
aI260
aI1040107
aI0
aa(lp1149
I1304
aI935
aI197
aI33522
aF0.0
aF0.8838383838383839
aF0.2828282828282828
aI7
aI1
aI4925710
aI0
aa(lp1150
I2769
aI915
aI199
aI39069
aF0.0
aF0.615
aF0.405
aI180
aI49
aI386219
aI0
aa(lp1151
I445
aI306
aI75
aI594
aF0.0
aF0.75
aF0.345
aI217
aI26
aI2823
aI1
aa(lp1152
I266
aI628
aI177
aI11769
aF0.0
aF0.22842639593908629
aF0.08121827411167512
aI412
aI2
aI99077
aI0
aa(lp1153
I1492
aI707
aI199
aI74071
aF0.0
aF0.84
aF0.47
aI37
aI7
aI6661891
aI0
aa(lp1154
I332
aI292
aI199
aI5132
aF0.0
aF0.87
aF0.18
aI23
aI11
aI146910
aI0
aa(lp1155
I175
aI122
aI199
aI4291
aF0.0
aF0.42
aF0.21
aI19
aI5
aI1333781
aI0
aa(lp1156
I1376
aI839
aI198
aI32177
aF0.0
aF0.7939698492462312
aF0.37185929648241206
aI470
aI3
aI2776726
aI0
aa(lp1157
I1543
aI4998
aI199
aI97517
aF0.0
aF0.96
aF0.27
aI3
aI549
aI11953
aI0
aa(lp1158
I152
aI407
aI13
aI248
aF0.0
aF0.765
aF0.185
aI253
aI10
aI2686
aI0
aa(lp1159
I1326
aI2314
aI195
aI11218
aF0.0
aF0.8316326530612245
aF0.05102040816326531
aI151
aI3
aI1908172
aI0
aa(lp1160
I1268
aI1990
aI199
aI19609
aF0.0
aF0.775
aF0.39
aI67
aI155
aI299478
aI0
aa(lp1161
I726
aI236
aI197
aI4248
aF0.0
aF0.601010101010101
aF0.08585858585858586
aI611
aI0
aI177548
aI0
aa(lp1162
I384
aI331
aI199
aI20698
aF0.0
aF0.59
aF0.16
aI84
aI1
aI2673240
aI0
aa(lp1163
I754
aI275
aI115
aI1831
aF0.0
aF0.73
aF0.58
aI224
aI32
aI22453
aI0
aa(lp1164
I878
aI1053
aI199
aI3444
aF0.0
aF0.54
aF0.285
aI170
aI4
aI1241402
aI0
aa(lp1165
I282
aI238
aI196
aI994
aF0.0
aF0.6395939086294417
aF0.07614213197969544
aI791
aI0
aI3361795
aI0
aa(lp1166
I4991
aI713
aI199
aI54666
aF0.0
aF0.435
aF0.195
aI1345
aI73
aI29481
aI0
aa(lp1167
I78
aI550
aI199
aI1582
aF0.0
aF0.94
aF0.505
aI75
aI2
aI327387
aI0
aa(lp1168
I336
aI737
aI199
aI20192
aF0.0
aF0.445
aF0.18
aI70
aI70
aI11734
aI0
aa(lp1169
I952
aI462
aI198
aI20854
aF0.0
aF0.8241206030150754
aF0.22613065326633167
aI548
aI7
aI4865751
aI0
aa(lp1170
I835
aI330
aI199
aI18702
aF0.0
aF0.545
aF0.18
aI398
aI11
aI2924280
aI0
aa(lp1171
I3882
aI2918
aI199
aI39142
aF0.0
aF0.745
aF0.4
aI44
aI146
aI1184414
aI0
aa(lp1172
I20902
aI15151
aI199
aI4340
aF0.0
aF0.225
aF0.49
aI181
aI635
aI32649
aI0
aa(lp1173
I3536
aI4256
aI198
aI10409
aF0.0
aF0.6080402010050251
aF0.20603015075376885
aI45
aI8
aI621982
aI0
aa(lp1174
I173
aI138
aI199
aI4290
aF0.0
aF0.765
aF0.135
aI43
aI10
aI2394585
aI0
aa(lp1175
I655
aI1586
aI159
aI12385
aF0.0
aF0.6666666666666666
aF0.06060606060606061
aI635
aI3
aI1929397
aI0
aa(lp1176
I1299
aI140
aI199
aI36547
aF0.0
aF0.82
aF0.025
aI303
aI20
aI106
aI0
aa(lp1177
I342
aI283
aI199
aI747
aF0.0
aF0.505
aF0.22
aI105
aI44
aI286337
aI0
aa(lp1178
I1325
aI730
aI25
aI49461
aF0.0
aF0.82
aF0.065
aI479
aI5
aI1343191
aI0
aa(lp1179
I1002
aI414
aI199
aI30133
aF0.0
aF0.38
aF0.17
aI95
aI4
aI1331739
aI0
aa(lp1180
I11984
aI4064
aI199
aI12687
aF0.0
aF0.455
aF0.025
aI451
aI21
aI64488
aI0
aa(lp1181
I528
aI715
aI196
aI2203
aF0.0
aF0.6598984771573604
aF0.24873096446700507
aI143
aI2
aI1375292
aI0
aa(lp1182
I532
aI577
aI199
aI2200
aF0.0
aF0.77
aF0.2
aI329
aI12
aI149435
aI0
aa(lp1183
I19
aI9
aI199
aI1186
aF0.0
aF0.795
aF0.23
aI29
aI1
aI542545
aI0
aa(lp1184
I642
aI415
aI198
aI6251
aF0.0
aF0.7839195979899497
aF0.1708542713567839
aI1103
aI6
aI792681
aI0
aa(lp1185
I34
aI177
aI4
aI207
aF0.0
aF0.3076923076923077
aF0.8051282051282052
aI30
aI0
aI28005
aI0
aa(lp1186
I742
aI825
aI199
aI13317
aF0.0
aF0.75
aF0.23
aI94
aI15
aI2404584
aI0
aa(lp1187
I613
aI471
aI199
aI22277
aF0.0
aF0.555
aF0.03
aI296
aI2
aI1001900
aI0
aa(lp1188
I1615
aI1004
aI198
aI11084
aF0.0
aF0.46733668341708545
aF0.4723618090452261
aI49
aI6
aI1537205
aI0
aa(lp1189
I549
aI366
aI102
aI4115
aF0.0
aF0.505
aF0.215
aI519
aI8
aI45457
aI0
aa(lp1190
I801
aI1173
aI199
aI16786
aF0.0
aF0.57
aF0.535
aI137
aI50
aI523509
aI0
aa(lp1191
I1041
aI214
aI199
aI35169
aF0.0
aF0.78
aF0.285
aI79
aI1
aI4654862
aI0
aa(lp1192
I190
aI240
aI198
aI2399
aF0.0
aF0.7236180904522613
aF0.2964824120603015
aI77
aI1
aI838254
aI0
aa(lp1193
I316
aI88
aI198
aI1289
aF0.0
aF0.6834170854271356
aF0.17587939698492464
aI165
aI5
aI2235428
aI0
aa(lp1194
I768
aI872
aI163
aI14523
aF0.0
aF0.7222222222222222
aF0.19696969696969696
aI401
aI39
aI1704228
aI0
aa(lp1195
I1667
aI782
aI199
aI65976
aF0.0
aF0.97
aF0.105
aI711
aI21
aI52247
aI0
aa(lp1196
I27301
aI1092
aI199
aI4615
aF0.0
aF0.9
aF0.64
aI69
aI29
aI113328
aI0
aa(lp1197
I4504
aI3202
aI199
aI55728
aF0.0
aF0.975
aF0.745
aI467
aI37
aI1580
aI0
aa(lp1198
I1312
aI1577
aI199
aI601
aF0.0
aF0.645
aF0.6
aI206
aI51
aI67954
aI1
aa(lp1199
I618
aI626
aI198
aI26323
aF0.0
aF0.6633165829145728
aF0.2663316582914573
aI142
aI8
aI2550823
aI0
aa(lp1200
I2353
aI4688
aI199
aI17123
aF0.0
aF0.97
aF0.095
aI46
aI94
aI53212
aI0
aa(lp1201
I378
aI229
aI199
aI7349
aF0.0
aF0.555
aF0.215
aI75
aI44
aI411380
aI0
aa(lp1202
I501
aI340
aI199
aI13653
aF0.0
aF0.87
aF0.185
aI346
aI20
aI3425359
aI0
aa(lp1203
I545
aI430
aI193
aI5498
aF0.0
aF0.9484536082474226
aF0.4072164948453608
aI17
aI3
aI8802028
aI0
aa(lp1204
I1326
aI1064
aI199
aI2325
aF0.0
aF0.715
aF0.305
aI9
aI25
aI533780
aI0
aa(lp1205
I267
aI554
aI199
aI19192
aF0.0
aF0.585
aF0.07
aI452
aI11
aI936611
aI0
aa(lp1206
I299
aI984
aI127
aI2863
aF0.0
aF0.8307692307692308
aF0.3641025641025641
aI31
aI9
aI67160
aI0
aa(lp1207
I1217
aI794
aI199
aI67015
aF0.0
aF0.59
aF0.19
aI1521
aI15
aI153702
aI0
aa(lp1208
I306
aI1229
aI67
aI109
aF0.0
aF0.915
aF0.225
aI201
aI1
aI1214864
aI0
aa(lp1209
I4001
aI4909
aI199
aI124676
aF0.0
aF0.945
aF0.405
aI16
aI355
aI91421
aI0
aa(lp1210
I264
aI326
aI198
aI7247
aF0.0
aF0.5527638190954773
aF0.21608040201005024
aI170
aI0
aI2068706
aI0
aa(lp1211
I13
aI52
aI3
aI488
aF0.0
aF0.52
aF0.56
aI3
aI2
aI10407
aI0
aa(lp1212
I1348
aI881
aI195
aI7943
aF0.0
aF0.49489795918367346
aF0.3010204081632653
aI41
aI4
aI4129164
aI0
aa(lp1213
I115
aI86
aI196
aI917
aF0.0
aF0.8375634517766497
aF0.39593908629441626
aI18
aI5
aI4866316
aI0
aa(lp1214
I97
aI218
aI106
aI763
aF0.0
aF0.6532663316582915
aF0.19597989949748743
aI80
aI2
aI316090
aI0
aa(lp1215
I411
aI329
aI199
aI10119
aF0.0
aF0.635
aF0.315
aI67
aI1
aI2291793
aI0
aa(lp1216
I3671
aI1154
aI198
aI738
aF0.0
aF0.4623115577889447
aF0.36180904522613067
aI174
aI11
aI445159
aI0
aa(lp1217
I71
aI253
aI199
aI5045
aF0.0
aF0.96
aF0.39
aI187
aI2
aI91427
aI0
aa(lp1218
I34
aI219
aI16
aI1130
aF0.0
aF1.0
aF0.11764705882352941
aI1
aI0
aI0
aI0
aa(lp1219
I1842
aI587
aI198
aI26450
aF0.0
aF0.9597989949748744
aF0.46733668341708545
aI7
aI18
aI6197664
aI0
aa(lp1220
I195
aI192
aI199
aI2307
aF0.0
aF0.64
aF0.235
aI81
aI2
aI1284714
aI0
aa(lp1221
I7932
aI4664
aI84
aI1079
aF0.0
aF0.645
aF0.995
aI69
aI94
aI7
aI0
aa(lp1222
I214
aI183
aI43
aI105
aF0.0
aF0.1414141414141414
aF0.8838383838383839
aI16
aI6
aI28280
aI0
aa(lp1223
I730
aI1815
aI199
aI10231
aF0.0
aF0.895
aF0.445
aI373
aI18
aI584199
aI0
aa(lp1224
I666
aI66
aI103
aI17714
aF0.0
aF0.7717391304347826
aF0.16304347826086957
aI233
aI1
aI863983
aI0
aa(lp1225
I96
aI255
aI199
aI892
aF0.0
aF0.96
aF0.475
aI53
aI8
aI11923
aI0
aa(lp1226
I532
aI399
aI37
aI3552
aF0.0
aF0.9278350515463918
aF0.041237113402061855
aI179
aI1
aI970358
aI0
aa(lp1227
I228
aI176
aI199
aI6522
aF0.0
aF0.215
aF0.805
aI46
aI5
aI248285
aI0
aa(lp1228
I343
aI241
aI199
aI1140
aF0.0
aF0.325
aF0.17
aI29
aI13
aI880863
aI0
aa(lp1229
I218
aI624
aI198
aI26081
aF0.0
aF0.9698492462311558
aF0.24120603015075376
aI8
aI2
aI1086518
aI0
aa(lp1230
I4916
aI2607
aI199
aI4745
aF0.0
aF0.69
aF0.215
aI110
aI10
aI268594
aI0
aa(lp1231
I1612
aI883
aI199
aI33847
aF0.0
aF0.63
aF0.23
aI329
aI21
aI326197
aI0
aa(lp1232
I551
aI305
aI199
aI7262
aF0.0
aF0.62
aF0.395
aI88
aI0
aI2800099
aI0
aa(lp1233
I68
aI156
aI30
aI83
aF0.0
aF0.505
aF0.16
aI113
aI1
aI218096
aI0
aa(lp1234
I1666
aI872
aI199
aI35
aF0.0
aF0.48
aF0.165
aI23
aI5
aI1179031
aI0
aa(lp1235
I221
aI1303
aI199
aI1179
aF0.0
aF0.835
aF0.315
aI47
aI5
aI1076337
aI0
aa(lp1236
I938
aI1532
aI199
aI596
aF0.0
aF0.08
aF0.15
aI4
aI111
aI18879
aI0
aa(lp1237
I60
aI73
aI199
aI1736
aF0.0
aF0.695
aF0.46
aI27
aI8
aI771308
aI0
aa(lp1238
I4991
aI994
aI199
aI7401
aF0.0
aF0.7
aF0.26
aI21
aI33
aI1404045
aI0
aa(lp1239
I1239
aI527
aI198
aI30311
aF0.0
aF0.628140703517588
aF0.20603015075376885
aI82
aI22
aI3343252
aI0
aa(lp1240
I1372
aI388
aI0
aI707
aF0.0
aF0.415
aF0.615
aI75
aI64
aI83953
aI0
aa(lp1241
I494
aI1387
aI199
aI887
aF0.0
aF0.71
aF0.175
aI85
aI17
aI2848040
aI0
aa(lp1242
I91
aI52
aI199
aI2202
aF0.0
aF0.275
aF0.06
aI10
aI4
aI279855
aI0
aa(lp1243
I1108
aI2051
aI196
aI25623
aF0.0
aF0.49746192893401014
aF0.14213197969543148
aI58
aI34
aI373383
aI0
aa(lp1244
I1216
aI643
aI199
aI5671
aF0.0
aF0.61
aF0.25
aI33
aI39
aI373337
aI0
aa(lp1245
I107
aI181
aI1
aI42
aF0.0
aF0.6351351351351351
aF0.3108108108108108
aI8
aI1
aI592
aI0
aa(lp1246
I1003
aI787
aI199
aI2689
aF0.0
aF0.275
aF0.05
aI5
aI3
aI236451
aI0
aa(lp1247
I1148
aI829
aI199
aI12557
aF0.0
aF0.98
aF0.23
aI23
aI125
aI3225715
aI0
aa(lp1248
I1286
aI2935
aI199
aI10895
aF0.0
aF0.715
aF0.265
aI175
aI51
aI1076001
aI0
aa(lp1249
I1189
aI3903
aI199
aI3923
aF0.0
aF0.32
aF0.3
aI3
aI153
aI7858
aI0
aa(lp1250
I540
aI277
aI197
aI8956
aF0.0
aF0.9696969696969697
aF0.31313131313131315
aI3
aI1
aI2357489
aI0
aa(lp1251
I598
aI435
aI198
aI46927
aF0.0
aF0.5879396984924623
aF0.3969849246231156
aI214
aI6
aI2683025
aI0
aa(lp1252
I289
aI191
aI199
aI6606
aF0.0
aF0.65
aF0.405
aI113
aI19
aI1611644
aI0
aa(lp1253
I456
aI131
aI199
aI5177
aF0.0
aF0.495
aF0.145
aI244
aI19
aI1247209
aI0
aa(lp1254
I146
aI144
aI198
aI5556
aF0.0
aF0.5778894472361809
aF0.22110552763819097
aI50
aI8
aI1529769
aI0
aa(lp1255
I1321
aI409
aI199
aI26949
aF0.0
aF0.685
aF0.25
aI174
aI40
aI1539251
aI0
aa(lp1256
I4945
aI713
aI140
aI23
aF0.0
aF0.38
aF0.49
aI2929
aI158
aI4105
aI1
aa(lp1257
I153
aI596
aI199
aI4634
aF0.0
aF0.99
aF0.135
aI75
aI26
aI34928
aI0
aa(lp1258
I127
aI126
aI198
aI2544
aF0.0
aF0.34
aF0.055
aI37
aI1
aI13830
aI0
aa(lp1259
I380
aI265
aI199
aI10530
aF0.0
aF0.54
aF0.125
aI213
aI19
aI1747645
aI0
aa(lp1260
I2120
aI820
aI199
aI19548
aF0.0
aF0.635
aF0.1
aI397
aI12
aI461673
aI0
aa(lp1261
I1441
aI1242
aI198
aI14855
aF0.0
aF0.38190954773869346
aF0.06030150753768844
aI701
aI9
aI989839
aI0
aa(lp1262
I276
aI187
aI43
aI9725
aF0.0
aF0.34673366834170855
aF0.05025125628140704
aI108
aI3
aI122255
aI0
aa(lp1263
I263
aI248
aI48
aI5539
aF0.0
aF0.8
aF0.085
aI805
aI0
aI1634273
aI0
aa(lp1264
I410
aI322
aI42
aI6942
aF0.0
aF0.8080808080808081
aF0.11616161616161616
aI542
aI2
aI303430
aI0
aa(lp1265
I258
aI932
aI198
aI16993
aF0.0
aF0.7537688442211056
aF0.23115577889447236
aI188
aI10
aI755886
aI0
aa(lp1266
I1297
aI1999
aI149
aI802
aF0.0
aF0.67
aF0.585
aI187
aI14
aI72
aI0
aa(lp1267
I201
aI188
aI122
aI10763
aF0.0
aF0.7883597883597884
aF0.1164021164021164
aI68
aI7
aI4566448
aI0
aa(lp1268
I875
aI423
aI199
aI37047
aF0.0
aF0.665
aF0.18
aI191
aI14
aI1427586
aI0
aa(lp1269
I511
aI460
aI198
aI8271
aF0.0
aF0.5276381909547738
aF0.135678391959799
aI430
aI6
aI285295
aI0
aa(lp1270
I388
aI484
aI198
aI16799
aF0.0
aF0.9246231155778895
aF0.1407035175879397
aI116
aI2
aI2718332
aI0
aa(lp1271
I1137
aI522
aI199
aI7771
aF0.0
aF0.565
aF0.315
aI56
aI14
aI1776410
aI0
aa(lp1272
I690
aI406
aI195
aI25147
aF0.0
aF0.6632653061224489
aF0.12755102040816327
aI754
aI4
aI534867
aI0
aa(lp1273
I1168
aI2057
aI199
aI8798
aF0.0
aF0.54
aF0.335
aI249
aI53
aI119553
aI0
aa(lp1274
I1614
aI1462
aI199
aI5301
aF0.0
aF0.715
aF0.175
aI676
aI38
aI91278
aI0
aa(lp1275
I12264
aI829
aI199
aI12795
aF0.0
aF0.945
aF0.275
aI266
aI155
aI302644
aI1
aa(lp1276
I348
aI710
aI199
aI1418
aF0.0
aF0.905
aF0.565
aI430
aI8
aI91
aI0
aa(lp1277
I3456
aI683
aI143
aI4088
aF0.0
aF0.535
aF0.77
aI441
aI94
aI1946
aI0
aa(lp1278
I577
aI467
aI198
aI69759
aF0.0
aF0.6080402010050251
aF0.1407035175879397
aI36
aI17
aI811939
aI0
aa(lp1279
I924
aI755
aI199
aI314
aF0.0
aF0.335
aF0.87
aI211
aI38
aI593
aI0
aa(lp1280
I972
aI2080
aI146
aI920
aF0.0
aF0.705
aF0.385
aI153
aI31
aI9065
aI0
aa(lp1281
I1743
aI672
aI199
aI35
aF0.0
aF0.45
aF0.655
aI326
aI82
aI630
aI0
aa(lp1282
I1896
aI815
aI199
aI28281
aF0.0
aF0.605
aF0.115
aI298
aI51
aI57993
aI0
aa(lp1283
I148
aI291
aI11
aI448
aF0.0
aF0.42
aF0.235
aI358
aI2
aI110377
aI0
aa(lp1284
I270
aI192
aI198
aI3739
aF0.0
aF0.7688442211055276
aF0.33668341708542715
aI77
aI1
aI5402493
aI0
aa(lp1285
I194
aI365
aI198
aI1080
aF0.0
aF0.45226130653266333
aF0.20603015075376885
aI118
aI1
aI274641
aI0
aa(lp1286
I273
aI665
aI199
aI13180
aF0.0
aF0.95
aF0.17
aI64
aI12
aI3801464
aI0
aa(lp1287
I2851
aI356
aI199
aI41138
aF0.0
aF0.73
aF0.33
aI9
aI27
aI1902479
aI0
aa(lp1288
I2214
aI2161
aI198
aI10749
aF0.0
aF0.7437185929648241
aF0.46733668341708545
aI33
aI11
aI2989407
aI0
aa(lp1289
I1129
aI649
aI196
aI14670
aF0.0
aF0.817258883248731
aF0.13705583756345177
aI101
aI10
aI1867051
aI0
aa(lp1290
I312
aI527
aI91
aI9354
aF0.0
aF0.685
aF0.15
aI251
aI2
aI422557
aI0
aa(lp1291
I174
aI210
aI184
aI898
aF0.0
aF0.645
aF0.055
aI585
aI7
aI108685
aI0
aa(lp1292
I8287
aI4846
aI37
aI25697
aF0.0
aF0.35678391959798994
aF0.22110552763819097
aI3030
aI184
aI467623
aI0
aa(lp1293
I730
aI557
aI197
aI16796
aF0.0
aF0.6919191919191919
aF0.29292929292929293
aI106
aI7
aI1726042
aI0
aa(lp1294
I359
aI188
aI108
aI12582
aF0.0
aF0.7939698492462312
aF0.06532663316582915
aI358
aI0
aI1543712
aI0
aa(lp1295
I363
aI150
aI198
aI4573
aF0.0
aF0.7336683417085427
aF0.32663316582914576
aI144
aI0
aI1639515
aI0
aa(lp1296
I436
aI157
aI199
aI19707
aF0.0
aF0.63
aF0.255
aI217
aI7
aI2949195
aI0
aa(lp1297
I260
aI243
aI195
aI13825
aF0.0
aF0.8112244897959183
aF0.17857142857142858
aI213
aI2
aI2160319
aI0
aa(lp1298
I338
aI252
aI199
aI2163
aF0.0
aF0.835
aF0.15
aI99
aI5
aI396162
aI0
aa(lp1299
I536
aI397
aI199
aI6252
aF0.0
aF0.63
aF0.155
aI136
aI9
aI1536776
aI0
aa(lp1300
I235
aI195
aI198
aI4192
aF0.0
aF0.3417085427135678
aF0.1306532663316583
aI157
aI5
aI530928
aI0
aa(lp1301
I66
aI111
aI78
aI740
aF0.0
aF0.805
aF0.265
aI200
aI1
aI9192
aI0
aa(lp1302
I2127
aI3751
aI199
aI15576
aF0.0
aF0.95
aF0.28
aI312
aI38
aI481958
aI0
aa(lp1303
I2175
aI846
aI112
aI2791
aF0.0
aF0.885
aF0.285
aI468
aI70
aI5837
aI0
aa(lp1304
I1088
aI970
aI97
aI2778
aF0.0
aF0.467005076142132
aF0.06598984771573604
aI20
aI2
aI508570
aI0
aa(lp1305
I3825
aI793
aI199
aI2650
aF0.0
aF0.705
aF0.875
aI96
aI329
aI47082
aI0
aa(lp1306
I441
aI946
aI199
aI2190
aF0.0
aF0.915
aF0.435
aI38
aI13
aI265083
aI0
aa(lp1307
I494
aI707
aI199
aI7822
aF0.0
aF0.97
aF0.26
aI30
aI30
aI821942
aI0
aa(lp1308
I4123
aI3193
aI199
aI7740
aF0.0
aF0.795
aF0.46
aI9
aI2
aI1961990
aI0
aa(lp1309
I813
aI638
aI16
aI1141
aF0.0
aF0.30303030303030304
aF0.07575757575757576
aI89
aI0
aI844119
aI0
aa(lp1310
I202
aI266
aI199
aI4083
aF0.0
aF0.28
aF0.095
aI54
aI4
aI1826043
aI0
aa(lp1311
I1028
aI674
aI199
aI1396
aF0.0
aF0.14
aF0.875
aI33
aI26
aI322569
aI0
aa(lp1312
I8481
aI8456
aI199
aI16099
aF0.0
aF0.975
aF0.405
aI1093
aI124
aI2013
aI0
aa(lp1313
I4007
aI5001
aI199
aI17335
aF0.0
aF0.93
aF0.42
aI118
aI204
aI29088
aI1
aa(lp1314
I282
aI193
aI197
aI8688
aF0.0
aF0.6868686868686869
aF0.2727272727272727
aI96
aI5
aI5345956
aI0
aa(lp1315
I1953
aI919
aI199
aI2734
aF0.0
aF0.64
aF0.26
aI13
aI21
aI654705
aI0
aa(lp1316
I1054
aI5000
aI199
aI8374
aF0.0
aF0.155
aF0.57
aI5
aI19
aI28016
aI0
aa(lp1317
I541
aI280
aI199
aI754
aF0.0
aF0.665
aF0.39
aI108
aI17
aI90387
aI0
aa(lp1318
I1652
aI1656
aI198
aI9058
aF0.0
aF0.33668341708542715
aF0.22110552763819097
aI131
aI10
aI1011459
aI0
aa(lp1319
I27331
aI29011
aI199
aI53300
aF0.0
aF0.895
aF0.315
aI694
aI89
aI107857
aI0
aa(lp1320
I2852
aI2681
aI199
aI335
aF0.0
aF0.51
aF0.765
aI58
aI71
aI15892
aI0
aa(lp1321
I316624
aI13057
aI165
aI5950
aF0.0
aF0.645
aF0.42
aI255
aI188
aI879658
aI0
aa(lp1322
I4146
aI4987
aI199
aI39356
aF0.0
aF1.0
aF0.155
aI109
aI152
aI203335
aI0
aa(lp1323
I513
aI977
aI143
aI5151
aF0.0
aF0.595
aF0.09
aI92
aI7
aI1628506
aI0
aa(lp1324
I636
aI508
aI196
aI13686
aF0.0
aF0.8527918781725888
aF0.38578680203045684
aI90
aI5
aI10269395
aI0
aa(lp1325
I5341
aI1624
aI199
aI16376
aF0.0
aF0.7
aF0.515
aI1029
aI233
aI6432
aI1
aa(lp1326
I959
aI462
aI199
aI2405
aF0.0
aF0.625
aF0.27
aI400
aI21
aI313983
aI0
aa(lp1327
I84306
aI656
aI199
aI3786
aF0.0
aF0.7
aF0.465
aI132
aI794
aI500
aI1
aa(lp1328
I374
aI270
aI173
aI4823
aF0.0
aF0.59
aF0.22
aI486
aI3
aI1338606
aI0
aa(lp1329
I474
aI362
aI199
aI3878
aF0.0
aF0.68
aF0.145
aI169
aI6
aI798234
aI0
aa(lp1330
I538
aI858
aI199
aI3463
aF0.0
aF0.96
aF0.13
aI101
aI9
aI591770
aI0
aa(lp1331
I2909
aI1953
aI199
aI584
aF0.0
aF0.745
aF0.32
aI848
aI108
aI4942
aI1
aa(lp1332
I326
aI32
aI199
aI5849
aF0.0
aF0.81
aF0.485
aI73
aI94
aI12
aI0
aa(lp1333
I10134
aI9181
aI199
aI18856
aF0.0
aF0.89
aF0.38
aI567
aI262
aI773920
aI0
aa(lp1334
I11885
aI6252
aI197
aI53850
aF0.0
aF0.7777777777777778
aF0.2828282828282828
aI365
aI98
aI932275
aI0
aa(lp1335
I1942
aI1242
aI199
aI46118
aF0.0
aF0.79
aF0.36
aI195
aI17
aI27697
aI0
aa(lp1336
I2362
aI409
aI199
aI1540
aF0.0
aF0.815
aF0.655
aI610
aI109
aI4855
aI0
aa(lp1337
I19588
aI1206
aI199
aI12885
aF0.0
aF0.57
aF0.26
aI1930
aI36
aI128217
aI0
aa(lp1338
I1266
aI523
aI198
aI19954
aF0.0
aF0.7236180904522613
aF0.3065326633165829
aI221
aI4
aI4972280
aI0
aa(lp1339
I1428
aI1036
aI199
aI1949
aF0.0
aF0.94
aF0.94
aI110
aI92
aI232
aI0
aa(lp1340
I3115
aI1913
aI199
aI124436
aF0.0
aF0.805
aF0.455
aI67
aI49
aI4118196
aI0
aa(lp1341
I107
aI107
aI15
aI1698
aF0.0
aF0.17
aF0.0
aI109
aI1
aI15192
aI0
aa(lp1342
I483
aI998
aI197
aI7925
aF0.0
aF0.494949494949495
aF0.16161616161616163
aI61
aI12
aI1118027
aI0
aa(lp1343
I878
aI106
aI199
aI50142
aF0.0
aF0.86
aF0.21
aI5
aI10
aI3069517
aI0
aa(lp1344
I6440
aI1860
aI199
aI764
aF0.0
aF0.6
aF0.86
aI286
aI243
aI2163
aI0
aa(lp1345
I128
aI561
aI199
aI5691
aF0.0
aF0.72
aF0.295
aI32
aI27
aI1764613
aI0
aa(lp1346
I577
aI266
aI199
aI317
aF0.0
aF0.565
aF0.125
aI37
aI4
aI1383799
aI0
aa(lp1347
I294
aI701
aI199
aI2992
aF0.0
aF0.525
aF0.675
aI105
aI5
aI9735
aI0
aa(lp1348
I1286
aI212
aI65
aI116
aF0.0
aF0.73
aF0.8
aI37
aI53
aI87129
aI0
aa(lp1349
I1004
aI623
aI199
aI1795
aF0.0
aF0.63
aF0.52
aI159
aI38
aI520100
aI1
aa(lp1350
I1199
aI780
aI199
aI6950
aF0.0
aF0.83
aF0.37
aI35
aI69
aI213128
aI0
aa(lp1351
I126
aI190
aI199
aI2087
aF0.0
aF0.235
aF0.025
aI66
aI8
aI759167
aI0
aa(lp1352
I3033
aI1353
aI199
aI1393
aF0.0
aF0.605
aF0.555
aI757
aI62
aI1346
aI0
aa(lp1353
I1589
aI2230
aI199
aI2137
aF0.0
aF0.565
aF0.54
aI1690
aI16
aI210003
aI0
aa(lp1354
I548
aI405
aI31
aI21483
aF0.0
aF0.8087431693989071
aF0.07103825136612021
aI828
aI3
aI1130128
aI0
aa(lp1355
I939
aI627
aI198
aI5027
aF0.0
aF0.44221105527638194
aF0.31155778894472363
aI42
aI11
aI423000
aI0
aa(lp1356
I49392
aI12100
aI198
aI18839
aF0.0
aF0.8693467336683417
aF0.34673366834170855
aI2392
aI754
aI2401932
aI1
aa(lp1357
I1042
aI898
aI128
aI15989
aF0.0
aF0.825
aF0.335
aI451
aI10
aI460015
aI0
aa(lp1358
I647
aI653
aI199
aI7033
aF0.0
aF0.51
aF0.11
aI531
aI2
aI72983
aI0
aa(lp1359
I793
aI630
aI197
aI42497
aF0.0
aF0.8383838383838383
aF0.25252525252525254
aI335
aI0
aI3222629
aI0
aa(lp1360
I545
aI272
aI198
aI3396
aF0.0
aF0.2914572864321608
aF0.10552763819095477
aI184
aI3
aI380317
aI0
aa(lp1361
I1183
aI826
aI199
aI37414
aF0.0
aF0.92
aF0.225
aI64
aI35
aI3812599
aI0
aa(lp1362
I816
aI1357
aI150
aI5569
aF0.0
aF0.20603015075376885
aF0.6884422110552764
aI22
aI25
aI856799
aI0
aa(lp1363
I0
aI0
aI4
aI0
aF0.0
aF0.0
aF0.0
aI2
aI0
aI2
aI0
aa(lp1364
I1921
aI2137
aI199
aI52342
aF0.0
aF0.92
aF0.365
aI127
aI9
aI6753110
aI0
aa(lp1365
I170
aI134
aI199
aI9
aF0.0
aF0.805
aF0.395
aI106
aI7
aI9
aI0
aa(lp1366
I657
aI529
aI42
aI123
aF0.0
aF0.66
aF0.51
aI64
aI35
aI33759
aI0
aa(lp1367
I5492
aI675
aI199
aI6660
aF0.0
aF0.285
aF0.455
aI66
aI120
aI464
aI0
aa(lp1368
I1202
aI1082
aI199
aI11015
aF0.0
aF0.67
aF0.23
aI99
aI81
aI169885
aI0
aa(lp1369
I433
aI335
aI199
aI3686
aF0.0
aF0.08
aF0.895
aI15
aI24
aI44957
aI0
aa(lp1370
I2032
aI921
aI198
aI2214
aF0.0
aF0.8291457286432161
aF0.36683417085427134
aI83
aI33
aI423124
aI0
aa(lp1371
I1085
aI1358
aI199
aI17740
aF0.0
aF0.08
aF0.49
aI70
aI10
aI63366
aI0
aa(lp1372
I142
aI78
aI144
aI1105
aF0.0
aF0.2613065326633166
aF0.11557788944723618
aI804
aI0
aI141727
aI0
aa(lp1373
I119
aI114
aI3
aI272
aF0.0
aF0.691358024691358
aF0.037037037037037035
aI238
aI0
aI227970
aI0
aa(lp1374
I66
aI280
aI199
aI877
aF0.0
aF0.66
aF0.225
aI77
aI9
aI23714
aI0
aa(lp1375
I138
aI364
aI199
aI421
aF0.0
aF0.945
aF0.295
aI72
aI3
aI623119
aI0
aa(lp1376
I1012
aI494
aI123
aI9691
aF0.0
aF0.5743589743589743
aF0.2358974358974359
aI1064
aI0
aI749751
aI0
aa(lp1377
I337
aI779
aI199
aI15109
aF0.0
aF0.94
aF0.255
aI9
aI1
aI742479
aI0
aa(lp1378
I1107
aI695
aI199
aI7286
aF0.0
aF0.915
aF0.495
aI260
aI107
aI249657
aI0
aa(lp1379
I438
aI370
aI171
aI3033
aF0.0
aF0.4
aF0.155
aI245
aI0
aI1498118
aI0
aa(lp1380
I2393
aI2495
aI199
aI2042
aF0.0
aF0.52
aF0.17
aI89
aI45
aI10
aI0
aa(lp1381
I1322
aI40
aI130
aI4565
aF0.0
aF0.355
aF0.1
aI233
aI3
aI338674
aI0
aa(lp1382
I1060
aI1126
aI199
aI6267
aF0.0
aF0.485
aF0.43
aI427
aI31
aI80
aI0
aa(lp1383
I679
aI538
aI199
aI2898
aF0.0
aF0.7
aF0.335
aI28
aI4
aI2916277
aI0
aa(lp1384
I1430
aI2131
aI198
aI29612
aF0.0
aF0.8140703517587939
aF0.25125628140703515
aI93
aI45
aI645969
aI0
aa(lp1385
I2440
aI1422
aI199
aI875
aF0.0
aF0.585
aF0.395
aI541
aI81
aI215506
aI1
aa(lp1386
I4045
aI1654
aI199
aI2343
aF0.0
aF0.57
aF0.39
aI415
aI226
aI92305
aI1
aa(lp1387
I577
aI237
aI133
aI1074
aF0.0
aF0.7397959183673469
aF0.14285714285714285
aI106
aI5
aI2113212
aI0
aa(lp1388
I215
aI306
aI199
aI2508
aF0.0
aF0.245
aF0.24
aI11
aI8
aI374200
aI0
aa(lp1389
I58935
aI1731
aI199
aI2232
aF0.0
aF0.51
aF0.7
aI119
aI498
aI377
aI0
aa(lp1390
I186
aI75
aI199
aI3561
aF0.0
aF0.49
aF0.23
aI148
aI2
aI1126255
aI0
aa(lp1391
I6135
aI2795
aI129
aI1795
aF0.0
aF0.845
aF0.865
aI772
aI137
aI508
aI0
aa(lp1392
I3662
aI2053
aI199
aI1866
aF0.0
aF0.71
aF0.64
aI286
aI145
aI80243
aI1
aa(lp1393
I465
aI353
aI198
aI3422
aF0.0
aF0.8040201005025126
aF0.18090452261306533
aI37
aI17
aI865532
aI0
aa(lp1394
I1228
aI668
aI199
aI1214
aF0.0
aF0.955
aF0.26
aI79
aI6
aI58275
aI0
aa(lp1395
I686
aI826
aI199
aI88
aF0.0
aF0.405
aF0.755
aI7
aI128
aI98116
aI0
aa(lp1396
I17031
aI4757
aI199
aI2635
aF0.0
aF0.51
aF0.765
aI128
aI1070
aI13322
aI0
aa(lp1397
I248
aI290
aI197
aI2085
aF0.0
aF0.6212121212121212
aF0.2828282828282828
aI139
aI10
aI4795514
aI0
aa(lp1398
I3146
aI1867
aI199
aI5416
aF0.0
aF0.995
aF0.605
aI106
aI205
aI1954103
aI0
aa(lp1399
I49
aI85
aI94
aI1705
aF0.0
aF0.64
aF0.065
aI32
aI1
aI1366175
aI0
aa(lp1400
I774
aI791
aI197
aI31571
aF0.0
aF0.8282828282828283
aF0.2474747474747475
aI375
aI8
aI2428142
aI0
aa(lp1401
I1066
aI2065
aI199
aI6016
aF0.0
aF0.79
aF0.185
aI786
aI3
aI1540190
aI0
aa(lp1402
I606
aI400
aI199
aI7629
aF0.0
aF0.945
aF0.35
aI70
aI78
aI13356
aI0
aa(lp1403
I71
aI350
aI6
aI2151
aF0.0
aF0.92
aF0.315
aI35
aI2
aI356941
aI0
aa(lp1404
I204
aI59
aI199
aI1946
aF0.0
aF0.86
aF0.145
aI169
aI1
aI1917
aI0
aa(lp1405
I289
aI571
aI199
aI2459
aF0.0
aF0.635
aF0.22
aI244
aI1
aI764028
aI0
aa(lp1406
I1182
aI776
aI199
aI3643
aF0.0
aF0.575
aF0.36
aI201
aI7
aI2178898
aI0
aa(lp1407
I52
aI102
aI4
aI87
aF0.0
aF0.5968586387434555
aF0.16753926701570682
aI59
aI0
aI260638
aI0
aa(lp1408
I1369
aI3245
aI199
aI18115
aF0.0
aF0.905
aF0.385
aI55
aI107
aI861192
aI0
aa(lp1409
I739
aI493
aI199
aI9879
aF0.0
aF0.355
aF0.185
aI62
aI3
aI1292633
aI0
aa(lp1410
I515
aI474
aI198
aI7041
aF0.0
aF0.5728643216080402
aF0.2562814070351759
aI473
aI3
aI667034
aI0
aa(lp1411
I822
aI309
aI194
aI25270
aF0.0
aF0.48717948717948717
aF0.19487179487179487
aI437
aI3
aI539705
aI0
aa(lp1412
I3851
aI1820
aI198
aI13977
aF0.0
aF0.9597989949748744
aF0.1306532663316583
aI62
aI120
aI695901
aI0
aa(lp1413
I2440
aI754
aI199
aI1962
aF0.0
aF0.74
aF0.535
aI855
aI93
aI1138210
aI0
aa(lp1414
I246
aI403
aI155
aI4787
aF0.0
aF0.64
aF0.11
aI36
aI6
aI3437338
aI0
aa(lp1415
I4192
aI463
aI198
aI42442
aF0.0
aF0.6582914572864321
aF0.24623115577889448
aI1290
aI123
aI726922
aI0
aa(lp1416
I51
aI114
aI29
aI886
aF0.0
aF0.49740932642487046
aF0.07253886010362694
aI249
aI0
aI865225
aI0
aa(lp1417
I515
aI1755
aI199
aI254
aF0.0
aF0.34
aF0.725
aI29
aI28
aI255986
aI0
aa(lp1418
I1741
aI526
aI199
aI20108
aF0.0
aF0.625
aF0.32
aI179
aI134
aI774387
aI0
aa(lp1419
I494
aI672
aI198
aI11611
aF0.0
aF0.7939698492462312
aF0.1658291457286432
aI235
aI2
aI3109644
aI0
aa(lp1420
I707
aI539
aI197
aI31355
aF0.0
aF0.8939393939393939
aF0.11616161616161616
aI844
aI7
aI3843943
aI0
aa(lp1421
I598
aI469
aI199
aI20285
aF0.0
aF0.57
aF0.11
aI215
aI13
aI122786
aI0
aa(lp1422
I1470
aI1045
aI199
aI10256
aF0.0
aF0.955
aF0.34
aI242
aI128
aI75918
aI0
aa(lp1423
I392
aI261
aI197
aI7466
aF0.0
aF0.6767676767676768
aF0.07575757575757576
aI581
aI0
aI1656660
aI0
aa(lp1424
I55
aI53
aI199
aI112
aF0.0
aF0.76
aF0.025
aI68
aI2
aI357583
aI0
aa(lp1425
I123402
aI12485
aI199
aI15805
aF0.0
aF0.9
aF0.18
aI540
aI1398
aI641
aI0
aa(lp1426
I156
aI108
aI199
aI15593
aF0.0
aF0.725
aF0.165
aI206
aI23
aI898902
aI0
aa(lp1427
I2281
aI1405
aI64
aI712
aF0.0
aF0.615
aF0.27
aI286
aI91
aI4734
aI0
aa(lp1428
I380
aI280
aI53
aI4298
aF0.0
aF0.8232323232323232
aF0.12121212121212122
aI369
aI1
aI1016721
aI0
aa(lp1429
I352
aI1059
aI136
aI228
aF0.0
aF0.92
aF0.34
aI4
aI5
aI1085793
aI0
aa(lp1430
I559
aI531
aI199
aI853
aF0.0
aF0.605
aF0.55
aI333
aI22
aI2691
aI0
aa(lp1431
I2575
aI2187
aI199
aI7050
aF0.0
aF0.725
aF0.125
aI511
aI83
aI22911
aI0
aa(lp1432
I20
aI152
aI94
aI150
aF0.0
aF0.97
aF0.43
aI13
aI4
aI5
aI0
aa(lp1433
I677
aI483
aI198
aI26507
aF0.0
aF0.8341708542713567
aF0.11055276381909548
aI85
aI5
aI949756
aI0
aa(lp1434
I92498
aI202
aI199
aI66068
aF0.0
aF0.655
aF0.175
aI365222
aI603
aI160943
aI1
aa(lp1435
I1692
aI1258
aI199
aI30133
aF0.0
aF0.735
aF0.27
aI15
aI7
aI1256105
aI0
aa(lp1436
I857
aI744
aI197
aI2511
aF0.0
aF0.9040404040404041
aF0.11616161616161616
aI46
aI1
aI1536178
aI0
aa(lp1437
I76
aI293
aI198
aI15665
aF0.0
aF0.8190954773869347
aF0.3065326633165829
aI102
aI4
aI1934172
aI0
aa(lp1438
I817
aI243
aI199
aI40569
aF0.0
aF0.785
aF0.345
aI67
aI24
aI2700687
aI0
aa(lp1439
I73
aI100
aI176
aI853
aF0.0
aF0.515
aF0.1
aI7
aI1
aI123410
aI0
aa(lp1440
I528
aI2505
aI198
aI3538
aF0.0
aF0.507537688442211
aF0.3015075376884422
aI56
aI10
aI960565
aI0
aa(lp1441
I1412
aI1857
aI199
aI33239
aF0.0
aF0.965
aF0.26
aI6
aI63
aI546221
aI0
aa(lp1442
I1055
aI654
aI199
aI21793
aF0.0
aF0.755
aF0.13
aI254
aI3
aI25628
aI0
aa(lp1443
I2137
aI2971
aI199
aI25904
aF0.0
aF0.94
aF0.3
aI12
aI157
aI1414462
aI0
aa(lp1444
I178
aI362
aI12
aI979
aF0.0
aF0.29
aF0.655
aI51
aI10
aI183801
aI0
aa(lp1445
I3898
aI204
aI182
aI518
aF0.0
aF0.65
aF0.635
aI804
aI112
aI309
aI0
aa(lp1446
I759
aI593
aI199
aI17430
aF0.0
aF0.915
aF0.13
aI26
aI3
aI1703154
aI0
aa(lp1447
I167
aI217
aI199
aI603
aF0.0
aF0.9
aF0.28
aI5
aI15
aI1378738
aI0
aa(lp1448
I819
aI250
aI199
aI5088
aF0.0
aF0.615
aF0.395
aI274
aI15
aI29500
aI0
aa(lp1449
I218
aI332
aI86
aI656
aF0.0
aF0.945
aF0.55
aI223
aI9
aI142535
aI0
aa(lp1450
I184
aI319
aI195
aI4481
aF0.0
aF0.923469387755102
aF0.0663265306122449
aI71
aI3
aI506770
aI0
aa(lp1451
I41
aI0
aI199
aI2
aF0.0
aF0.005
aF1.0
aI11
aI11
aI2
aI0
aa(lp1452
I326
aI298
aI199
aI2016
aF0.0
aF0.69
aF0.22
aI120
aI24
aI14562
aI0
aa(lp1453
I1060
aI1571
aI199
aI3890
aF0.0
aF0.64
aF0.26
aI27
aI12
aI190007
aI0
aa(lp1454
I306
aI779
aI175
aI4412
aF0.0
aF0.6231155778894473
aF0.22613065326633167
aI195
aI3
aI596353
aI0
aa(lp1455
I49
aI123
aI199
aI4434
aF0.0
aF1.0
aF0.515
aI3
aI2
aI172616
aI0
aa(lp1456
I494
aI598
aI199
aI4088
aF0.0
aF0.74
aF0.09
aI161
aI3
aI1386791
aI0
aa(lp1457
I410
aI348
aI198
aI3062
aF0.0
aF0.5577889447236181
aF0.15577889447236182
aI124
aI2
aI1101590
aI0
aa(lp1458
I927
aI846
aI199
aI537
aF0.0
aF0.255
aF0.6
aI80
aI34
aI1476
aI0
aa(lp1459
I407
aI382
aI197
aI3745
aF0.0
aF0.8535353535353535
aF0.5202020202020202
aI20
aI11
aI4734335
aI0
aa(lp1460
I685
aI1080
aI199
aI4332
aF0.0
aF0.47
aF0.45
aI249
aI44
aI101
aI0
aa(lp1461
I1883
aI2858
aI199
aI45654
aF0.0
aF0.84
aF0.275
aI103
aI39
aI976360
aI0
aa(lp1462
I2808
aI97
aI199
aI7383
aF0.0
aF0.195
aF0.11
aI1552
aI21
aI1148
aI0
aa(lp1463
I298
aI261
aI155
aI891
aF0.0
aF0.6381909547738693
aF0.17587939698492464
aI29
aI1
aI1473009
aI0
aa(lp1464
I304
aI332
aI197
aI5301
aF0.0
aF0.5527638190954773
aF0.46733668341708545
aI56
aI2
aI4219007
aI0
aa(lp1465
I293
aI1081
aI57
aI698
aF0.0
aF0.31
aF0.735
aI14
aI15
aI63854
aI0
aa(lp1466
I231
aI287
aI197
aI3915
aF0.0
aF0.6212121212121212
aF0.16161616161616163
aI383
aI1
aI1600738
aI0
aa(lp1467
I393
aI248
aI198
aI17009
aF0.0
aF0.8241206030150754
aF0.135678391959799
aI44
aI13
aI1729228
aI0
aa(lp1468
I79
aI297
aI47
aI2001
aF0.0
aF0.5824742268041238
aF0.32989690721649484
aI108
aI2
aI24302
aI0
aa(lp1469
I584
aI1282
aI180
aI348
aF0.0
aF0.785
aF0.505
aI91
aI7
aI177758
aI0
aa(lp1470
I186
aI516
aI147
aI6099
aF0.0
aF0.7638190954773869
aF0.2914572864321608
aI59
aI0
aI604224
aI0
aa(lp1471
I2
aI0
aI0
aI0
aF0.0
aF0.0
aF0.0
aI0
aI1
aI0
aI0
aa(lp1472
I405
aI233
aI199
aI8737
aF0.0
aF0.7
aF0.365
aI169
aI5
aI2828385
aI0
aa(lp1473
I827
aI492
aI199
aI80219
aF0.0
aF0.71
aF0.35
aI46
aI21
aI1258668
aI0
aa(lp1474
I1119
aI517
aI199
aI2451
aF0.0
aF0.795
aF0.32
aI51
aI68
aI394103
aI0
aa(lp1475
I311
aI212
aI199
aI546
aF0.0
aF0.375
aF0.14
aI46
aI0
aI896003
aI0
aa(lp1476
I440
aI316
aI149
aI1433
aF0.0
aF0.6432160804020101
aF0.16080402010050251
aI91
aI18
aI1551302
aI0
aa(lp1477
I481
aI365
aI199
aI328
aF0.0
aF0.425
aF0.145
aI24
aI2
aI229906
aI0
aa(lp1478
I189
aI287
aI194
aI1069
aF0.0
aF0.764102564102564
aF0.37948717948717947
aI154
aI0
aI5754152
aI0
aa(lp1479
I1212
aI771
aI92
aI8083
aF0.0
aF0.27918781725888325
aF0.10152284263959391
aI138
aI2
aI341427
aI0
aa(lp1480
I1835
aI1781
aI199
aI25120
aF0.0
aF0.755
aF0.305
aI75
aI6
aI2035977
aI0
aa(lp1481
I640
aI431
aI193
aI5968
aF0.0
aF0.9123711340206185
aF0.31958762886597936
aI104
aI6
aI6407748
aI0
aa(lp1482
I82
aI177
aI81
aI508
aF0.0
aF0.7386934673366834
aF0.23618090452261306
aI75
aI2
aI102023
aI0
aa(lp1483
I230
aI317
aI199
aI10970
aF0.0
aF0.705
aF0.26
aI520
aI6
aI3186358
aI0
aa(lp1484
I2445
aI2587
aI40
aI4861
aF0.0
aF0.3
aF0.045
aI761
aI3
aI1227422
aI0
aa(lp1485
I2024
aI720
aI196
aI32055
aF0.0
aF0.8020304568527918
aF0.1116751269035533
aI830
aI7
aI1504459
aI0
aa(lp1486
I182
aI243
aI73
aI3306
aF0.0
aF0.5728643216080402
aF0.07035175879396985
aI262
aI4
aI3643877
aI0
aa(lp1487
I1140
aI0
aI198
aI37506
aF0.0
aF0.7085427135678392
aF0.4271356783919598
aI31
aI6
aI1108798
aI0
aa(lp1488
I409
aI804
aI196
aI4018
aF0.0
aF0.9441624365482234
aF0.15228426395939088
aI94
aI7
aI1037941
aI0
aa(lp1489
I2086
aI1668
aI199
aI7969
aF0.0
aF0.55
aF0.59
aI95
aI67
aI265235
aI0
aa(lp1490
I403
aI165
aI195
aI11139
aF0.0
aF0.5357142857142857
aF0.24489795918367346
aI206
aI8
aI1511725
aI0
aa(lp1491
I410
aI497
aI199
aI13924
aF0.0
aF0.17
aF0.06
aI410
aI12
aI5530
aI0
aa(lp1492
I2585
aI2027
aI198
aI53920
aF0.0
aF0.8341708542713567
aF0.31155778894472363
aI6
aI194
aI1665318
aI0
aa(lp1493
I423
aI369
aI76
aI2628
aF0.0
aF0.7853403141361257
aF0.10471204188481675
aI203
aI2
aI1479683
aI0
aa(lp1494
I1223
aI520
aI199
aI34520
aF0.0
aF0.74
aF0.15
aI446
aI22
aI719886
aI0
aa(lp1495
I513
aI347
aI197
aI85234
aF0.0
aF0.9848484848484849
aF0.40404040404040403
aI1
aI10
aI8039618
aI0
aa(lp1496
I313
aI141
aI193
aI4986
aF0.0
aF0.9072164948453608
aF0.25257731958762886
aI55
aI1
aI3250424
aI0
aa(lp1497
I122
aI370
aI199
aI632
aF0.0
aF0.755
aF0.385
aI41
aI5
aI606419
aI0
aa(lp1498
I593
aI851
aI199
aI5477
aF0.0
aF0.515
aF0.11
aI219
aI3
aI623950
aI0
aa(lp1499
I887
aI159
aI199
aI1865
aF0.0
aF0.555
aF0.615
aI255
aI2
aI4762676
aI0
aa(lp1500
I860
aI444
aI196
aI6362
aF0.0
aF0.5228426395939086
aF0.3299492385786802
aI33
aI7
aI1262006
aI0
aa(lp1501
I4185
aI1739
aI155
aI775
aF0.0
aF0.675
aF0.625
aI1882
aI130
aI73297
aI0
aa(lp1502
I1066
aI619
aI199
aI25296
aF0.0
aF0.835
aF0.365
aI197
aI3
aI5374472
aI0
aa(lp1503
I389
aI459
aI198
aI18092
aF0.0
aF0.9899497487437185
aF0.36683417085427134
aI13
aI8
aI3650925
aI0
aa(lp1504
I229
aI465
aI141
aI1757
aF0.0
aF0.9547738693467337
aF0.507537688442211
aI60
aI7
aI338958
aI0
aa(lp1505
I1540
aI677
aI197
aI5343
aF0.0
aF0.7121212121212122
aF0.29797979797979796
aI135
aI6
aI4243646
aI0
aa(lp1506
I35
aI71
aI44
aI182
aF0.0
aF0.7185929648241206
aF0.271356783919598
aI88
aI0
aI313657
aI0
aa(lp1507
I696
aI362
aI196
aI9758
aF0.0
aF0.9086294416243654
aF0.30456852791878175
aI54
aI35
aI1092544
aI0
aa(lp1508
I1100
aI1473
aI199
aI587
aF0.0
aF0.885
aF0.515
aI4
aI266
aI309776
aI0
aa(lp1509
I608
aI1814
aI198
aI5460
aF0.0
aF0.8793969849246231
aF0.4472361809045226
aI38
aI3
aI2236323
aI0
aa(lp1510
I955
aI550
aI195
aI8486
aF0.0
aF0.7908163265306123
aF0.21428571428571427
aI339
aI1
aI2517986
aI0
aa(lp1511
I1678
aI1650
aI199
aI38704
aF0.0
aF0.89
aF0.23
aI20
aI33
aI1068100
aI0
aa(lp1512
I286
aI789
aI199
aI9471
aF0.0
aF0.975
aF0.245
aI24
aI6
aI914316
aI0
aa(lp1513
I480
aI334
aI199
aI6375
aF0.0
aF0.54
aF0.115
aI793
aI4
aI1717745
aI0
aa(lp1514
I1510
aI1003
aI129
aI7953
aF0.0
aF0.4318181818181818
aF0.18181818181818182
aI359
aI67
aI504
aI0
aa(lp1515
I1364
aI883
aI198
aI2235
aF0.0
aF0.44221105527638194
aF0.542713567839196
aI729
aI0
aI2344640
aI0
aa(lp1516
I473
aI231
aI199
aI7277
aF0.0
aF0.625
aF0.055
aI169
aI8
aI1236533
aI0
aa(lp1517
I1023
aI781
aI192
aI7770
aF0.0
aF0.772020725388601
aF0.19170984455958548
aI175
aI10
aI3471273
aI0
aa(lp1518
I535
aI634
aI196
aI3522
aF0.0
aF0.9441624365482234
aF0.3299492385786802
aI63
aI2
aI6273711
aI0
aa(lp1519
I219
aI122
aI199
aI1
aF0.0
aF0.0
aF1.0
aI1
aI4
aI0
aI0
aa(lp1520
I766
aI726
aI199
aI18580
aF0.0
aF0.725
aF0.355
aI26
aI7
aI976651
aI0
aa(lp1521
I1856
aI716
aI195
aI3396
aF0.0
aF0.6122448979591837
aF0.2653061224489796
aI30
aI15
aI2037189
aI0
aa(lp1522
I18
aI202
aI2
aI30
aF0.0
aF0.2222222222222222
aF0.18518518518518517
aI18
aI0
aI52437
aI0
aa(lp1523
I740
aI359
aI95
aI6914
aF0.0
aF0.4416243654822335
aF0.14213197969543148
aI884
aI1
aI998409
aI0
aa(lp1524
I354
aI177
aI190
aI35647
aF0.0
aF0.8638743455497382
aF0.12041884816753927
aI41
aI22
aI1780497
aI0
aa(lp1525
I869
aI447
aI199
aI6651
aF0.0
aF0.89
aF0.37
aI110
aI0
aI3721237
aI0
aa(lp1526
I154
aI680
aI198
aI4071
aF0.0
aF0.7839195979899497
aF0.38190954773869346
aI72
aI1
aI1268344
aI0
aa(lp1527
I391
aI1736
aI187
aI12170
aF0.0
aF0.36683417085427134
aF0.22110552763819097
aI37
aI6
aI155982
aI0
aa(lp1528
I539
aI1836
aI198
aI40202
aF0.0
aF0.7035175879396985
aF0.23115577889447236
aI121
aI16
aI1658268
aI0
aa(lp1529
I358
aI344
aI194
aI2945
aF0.0
aF0.8051282051282052
aF0.09230769230769231
aI152
aI3
aI931908
aI0
aa(lp1530
I400
aI815
aI199
aI1
aF0.0
aF0.0
aF1.0
aI3
aI6
aI0
aI0
aa(lp1531
I357
aI131
aI59
aI3150
aF0.0
aF0.5631578947368421
aF0.16842105263157894
aI226
aI0
aI5164089
aI0
aa(lp1532
I113
aI258
aI127
aI2119
aF0.0
aF0.915
aF0.155
aI62
aI6
aI3693717
aI0
aa(lp1533
I237
aI122
aI199
aI1
aF0.0
aF0.0
aF1.0
aI3
aI6
aI2
aI0
aa(lp1534
I211
aI122
aI199
aI1
aF0.0
aF0.0
aF1.0
aI3
aI4
aI1
aI0
aa(lp1535
I327
aI183
aI48
aI9145
aF0.0
aF0.5
aF0.18877551020408162
aI240
aI2
aI2021248
aI0
aa(lp1536
I1400
aI1443
aI199
aI33508
aF0.0
aF0.8
aF0.245
aI191
aI46
aI257141
aI0
aa(lp1537
I2878
aI183
aI62
aI530
aF0.0
aF0.61
aF0.755
aI133
aI34
aI2017
aI0
aa(lp1538
I454
aI493
aI50
aI1798
aF0.0
aF0.8157894736842105
aF0.08421052631578947
aI204
aI1
aI3010407
aI0
aa(lp1539
I210
aI122
aI199
aI1
aF0.0
aF0.0
aF1.0
aI1
aI1
aI3
aI0
aa(lp1540
I418
aI1777
aI91
aI3593
aF0.0
aF0.62
aF0.385
aI107
aI12
aI121311
aI0
aa(lp1541
I215
aI121
aI199
aI1
aF0.0
aF0.0
aF1.0
aI1
aI3
aI1
aI0
aa(lp1542
I99
aI383
aI199
aI5800
aF0.0
aF0.93
aF0.185
aI43
aI1
aI539170
aI0
aa(lp1543
I439
aI621
aI199
aI6277
aF0.0
aF0.815
aF0.255
aI139
aI52
aI98238
aI0
aa(lp1544
I567
aI248
aI198
aI3174
aF0.0
aF0.7386934673366834
aF0.1407035175879397
aI165
aI3
aI657909
aI0
aa(lp1545
I58
aI56
aI197
aI5314
aF0.0
aF0.4393939393939394
aF0.07575757575757576
aI124
aI1
aI305303
aI0
aa(lp1546
I174
aI154
aI198
aI4615
aF0.0
aF0.8592964824120602
aF0.32663316582914576
aI11
aI19
aI1468664
aI0
aa(lp1547
I513
aI250
aI198
aI20658
aF0.0
aF0.5628140703517588
aF0.2864321608040201
aI171
aI4
aI1682831
aI0
aa(lp1548
I606
aI631
aI199
aI966
aF0.0
aF0.46
aF0.575
aI441
aI15
aI3162
aI0
aa(lp1549
I252
aI416
aI48
aI1816
aF0.0
aF0.105
aF0.075
aI53
aI5
aI14538
aI0
aa(lp1550
I209
aI121
aI199
aI1
aF0.0
aF0.0
aF1.0
aI3
aI4
aI3
aI0
aa(lp1551
I230
aI250
aI198
aI9814
aF0.0
aF0.5778894472361809
aF0.1708542713567839
aI431
aI3
aI862168
aI0
aa(lp1552
I245
aI251
aI199
aI1
aF0.0
aF0.0
aF1.0
aI9
aI9
aI5
aI0
aa(lp1553
I974
aI984
aI150
aI1184
aF0.0
aF0.365
aF0.695
aI23
aI15
aI286771
aI0
aa(lp1554
I1241
aI867
aI199
aI50385
aF0.0
aF0.75
aF0.22
aI388
aI4
aI6251979
aI0
aa(lp1555
I1040
aI623
aI195
aI50446
aF0.0
aF0.6887755102040817
aF0.3112244897959184
aI285
aI9
aI1270749
aI0
aa(lp1556
I222
aI122
aI199
aI1
aF0.0
aF0.0
aF1.0
aI5
aI5
aI0
aI0
aa(lp1557
I1196
aI1090
aI191
aI1217
aF0.0
aF0.4583333333333333
aF0.1875
aI580
aI2
aI198525
aI0
aa(lp1558
I166
aI233
aI190
aI152
aF0.0
aF0.6858638743455497
aF0.5130890052356021
aI23
aI13
aI31150
aI0
aa(lp1559
I472
aI654
aI67
aI648
aF0.0
aF0.28
aF0.55
aI76
aI5
aI2567
aI0
aa(lp1560
I4607
aI4986
aI199
aI149103
aF0.0
aF1.0
aF0.225
aI0
aI188
aI131473
aI0
aa(lp1561
I392
aI285
aI65
aI9479
aF0.0
aF0.25380710659898476
aF0.12690355329949238
aI1423
aI1
aI273152
aI0
aa(lp1562
I345
aI279
aI199
aI14051
aF0.0
aF0.865
aF0.395
aI85
aI1
aI9028725
aI0
aa(lp1563
I598
aI506
aI198
aI3817
aF0.0
aF0.4824120603015075
aF0.25125628140703515
aI267
aI3
aI2448711
aI0
aa(lp1564
I208
aI150
aI199
aI1
aF0.0
aF0.0
aF1.0
aI6
aI4
aI1
aI0
aa(lp1565
I235
aI122
aI199
aI1
aF0.0
aF0.0
aF1.0
aI4
aI2
aI2
aI0
aa(lp1566
I228
aI122
aI199
aI1
aF0.0
aF0.0
aF1.0
aI5
aI3
aI1
aI0
aa(lp1567
I223
aI122
aI199
aI1
aF0.0
aF0.0
aF1.0
aI3
aI2
aI2
aI0
aa(lp1568
I216
aI122
aI199
aI1
aF0.0
aF0.0
aF1.0
aI2
aI3
aI0
aI0
aa(lp1569
I246
aI122
aI199
aI1
aF0.0
aF0.0
aF1.0
aI10
aI4
aI0
aI0
aa(lp1570
I250
aI121
aI199
aI1
aF0.0
aF0.0
aF1.0
aI15
aI6
aI14
aI0
aa(lp1571
I203
aI122
aI199
aI1
aF0.0
aF0.0
aF1.0
aI4
aI1
aI0
aI0
aa(lp1572
I236
aI122
aI199
aI1
aF0.0
aF0.0
aF1.0
aI3
aI4
aI0
aI0
aa(lp1573
I221
aI122
aI199
aI1
aF0.0
aF0.0
aF1.0
aI7
aI2
aI0
aI0
aa(lp1574
I1050
aI1577
aI199
aI8
aF0.0
aF0.0
aF1.0
aI15
aI22
aI24
aI0
aa(lp1575
I487
aI1082
aI199
aI1
aF0.0
aF0.0
aF1.0
aI4
aI9
aI3
aI0
aa(lp1576
I221
aI122
aI199
aI1
aF0.0
aF0.0
aF1.0
aI2
aI4
aI2
aI0
aa(lp1577
I250
aI122
aI199
aI1
aF0.0
aF0.0
aF1.0
aI8
aI7
aI3
aI0
aa(lp1578
I210
aI122
aI199
aI1
aF0.0
aF0.0
aF1.0
aI3
aI5
aI0
aI0
aa(lp1579
I216
aI122
aI199
aI1
aF0.0
aF0.0
aF1.0
aI8
aI4
aI0
aI0
aa(lp1580
I210
aI122
aI199
aI1
aF0.0
aF0.0
aF1.0
aI7
aI6
aI2
aI0
aa(lp1581
I204
aI122
aI199
aI1
aF0.0
aF0.0
aF1.0
aI5
aI5
aI0
aI0
aa(lp1582
I217
aI122
aI199
aI1
aF0.0
aF0.0
aF1.0
aI5
aI3
aI0
aI0
aa(lp1583
I214
aI122
aI199
aI1
aF0.0
aF0.0
aF1.0
aI2
aI4
aI1
aI0
aa(lp1584
I216
aI122
aI199
aI2
aF0.0
aF0.0
aF1.0
aI2
aI11
aI1
aI0
aa(lp1585
I225
aI122
aI199
aI1
aF0.0
aF0.0
aF1.0
aI5
aI3
aI3
aI0
aa(lp1586
I209
aI122
aI199
aI1
aF0.0
aF0.0
aF1.0
aI3
aI7
aI0
aI0
aa(lp1587
I237
aI122
aI199
aI1
aF0.0
aF0.0
aF1.0
aI12
aI8
aI0
aI0
aa(lp1588
I208
aI159
aI199
aI1
aF0.0
aF0.0
aF1.0
aI4
aI4
aI0
aI0
aa(lp1589
I202
aI122
aI199
aI1
aF0.0
aF0.0
aF1.0
aI2
aI5
aI1
aI0
aa(lp1590
I1193
aI844
aI197
aI14364
aF0.0
aF0.5606060606060606
aF0.3383838383838384
aI584
aI6
aI3333724
aI0
aa(lp1591
I280
aI226
aI22
aI1939
aF0.0
aF0.27692307692307694
aF0.1076923076923077
aI110
aI0
aI45145
aI0
aa(lp1592
I12
aI64
aI198
aI75
aF0.0
aF0.32160804020100503
aF0.6180904522613065
aI18
aI0
aI51800
aI0
aa(lp1593
I1611
aI710
aI199
aI243
aF0.0
aF0.68
aF0.225
aI62
aI13
aI1558200
aI0
aa(lp1594
I120
aI193
aI29
aI483
aF0.0
aF0.6623376623376623
aF0.06493506493506493
aI798
aI0
aI89046
aI0
aa(lp1595
I210
aI411
aI186
aI12415
aF0.0
aF0.325
aF0.075
aI42
aI1
aI1859453
aI0
aa(lp1596
I969
aI882
aI198
aI11867
aF0.0
aF0.6633165829145728
aF0.32663316582914576
aI253
aI4
aI3525955
aI0
aa(lp1597
I1718
aI808
aI197
aI13684
aF0.0
aF0.8484848484848485
aF0.2828282828282828
aI88
aI4
aI4717488
aI0
aa(lp1598
I744
aI718
aI92
aI5052
aF0.0
aF0.5102040816326531
aF0.0663265306122449
aI103
aI1
aI693001
aI0
aa(lp1599
I1017
aI520
aI198
aI2556
aF0.0
aF0.6532663316582915
aF0.22110552763819097
aI17
aI1
aI1015468
aI0
aa(lp1600
I1679
aI1935
aI199
aI11104
aF0.0
aF0.48
aF0.335
aI18
aI2
aI899903
aI0
aa(lp1601
I9115
aI4143
aI199
aI26515
aF0.0
aF0.745
aF0.42
aI95152
aI112
aI2818168
aI0
aa(lp1602
I1212
aI1685
aI199
aI2284
aF0.0
aF0.53
aF0.13
aI51
aI32
aI981409
aI0
aa(lp1603
I12019
aI3095
aI199
aI4305
aF0.0
aF0.625
aF0.81
aI783
aI90
aI301966
aI0
aa(lp1604
I1597
aI617
aI199
aI1471
aF0.0
aF0.87
aF0.45
aI423
aI71
aI356719
aI0
aa(lp1605
I316
aI282
aI197
aI11708
aF0.0
aF0.5454545454545454
aF0.17676767676767677
aI131
aI2
aI3603803
aI0
aa(lp1606
I1526
aI2034
aI199
aI10472
aF0.0
aF0.74
aF0.3
aI136
aI19
aI1590209
aI0
aa(lp1607
I812
aI638
aI199
aI16490
aF0.0
aF0.575
aF0.325
aI989
aI4
aI2454670
aI0
aa(lp1608
I733
aI950
aI199
aI32602
aF0.0
aF0.725
aF0.335
aI52
aI8
aI3681178
aI0
aa(lp1609
I1478
aI987
aI116
aI41261
aF0.0
aF0.5794871794871795
aF0.1641025641025641
aI418
aI3
aI1191915
aI0
aa(lp1610
I140
aI348
aI118
aI887
aF0.0
aF0.65
aF0.175
aI188
aI3
aI162640
aI0
aa(lp1611
I513
aI268
aI193
aI29755
aF0.0
aF0.6134020618556701
aF0.31958762886597936
aI120
aI5
aI4190587
aI0
aa(lp1612
I1686
aI2173
aI168
aI178
aF0.0
aF0.46
aF0.805
aI44
aI38
aI127807
aI0
aa(lp1613
I1229
aI509
aI199
aI348
aF0.0
aF0.725
aF0.345
aI661
aI48
aI429700
aI1
aa(lp1614
I4580
aI2997
aI199
aI6107
aF0.0
aF0.76
aF0.38
aI613
aI91
aI494384
aI0
aa(lp1615
I721
aI414
aI199
aI9132
aF0.0
aF0.88
aF0.285
aI127
aI3
aI6186012
aI0
aa(lp1616
I1672
aI1023
aI199
aI3116
aF0.0
aF0.91
aF0.495
aI282
aI80
aI59399
aI0
aa(lp1617
I599
aI351
aI198
aI21722
aF0.0
aF0.8190954773869347
aF0.3869346733668342
aI56
aI5
aI4924066
aI0
aa(lp1618
I507
aI621
aI199
aI6107
aF0.0
aF0.53
aF0.175
aI885
aI3
aI2500690
aI0
aa(lp1619
I1954
aI752
aI198
aI5034
aF0.0
aF0.5477386934673367
aF0.40703517587939697
aI878
aI31
aI197315
aI0
aa(lp1620
I81
aI167
aI136
aI305
aF0.0
aF0.51
aF0.955
aI66
aI23
aI61
aI0
aa(lp1621
I207
aI374
aI109
aI1434
aF0.0
aF0.855
aF0.775
aI125
aI4
aI88
aI0
aa(lp1622
I32
aI156
aI199
aI1786
aF0.0
aF0.94
aF0.425
aI40
aI3
aI150494
aI0
aa(lp1623
I1852
aI1305
aI199
aI10176
aF0.0
aF0.71
aF0.38
aI63
aI82
aI3615356
aI0
aa(lp1624
I484
aI523
aI196
aI8611
aF0.0
aF0.6802030456852792
aF0.16751269035532995
aI30
aI15
aI943952
aI0
aa(lp1625
I1341
aI745
aI196
aI10122
aF0.0
aF0.5685279187817259
aF0.41116751269035534
aI1136
aI20
aI2069038
aI0
aa(lp1626
I1064
aI602
aI199
aI65855
aF0.0
aF0.965
aF0.41
aI7
aI3
aI6091987
aI0
aa(lp1627
I8263
aI8874
aI199
aI184556
aF0.0
aF0.685
aF0.185
aI350
aI153
aI1459053
aI0
aa(lp1628
I487
aI274
aI199
aI20097
aF0.0
aF0.525
aF0.1
aI286
aI19
aI39230
aI0
aa(lp1629
I9259
aI575
aI199
aI1876
aF0.0
aF0.565
aF0.61
aI1710
aI204
aI2976
aI1
aa(lp1630
I294
aI235
aI199
aI77415
aF0.0
aF0.965
aF0.275
aI1032
aI7
aI721533
aI0
aa(lp1631
I688
aI1055
aI199
aI10211
aF0.0
aF0.81
aF0.215
aI97
aI134
aI354960
aI0
aa(lp1632
I691
aI345
aI126
aI12587
aF0.0
aF0.6446700507614214
aF0.030456852791878174
aI1971
aI1
aI715773
aI0
aa(lp1633
I245
aI325
aI159
aI393
aF0.0
aF0.96
aF0.315
aI144
aI8
aI8242
aI0
aa(lp1634
I143
aI151
aI197
aI1438
aF0.0
aF0.7676767676767676
aF0.2828282828282828
aI149
aI1
aI3407065
aI0
aa(lp1635
I1112
aI947
aI197
aI5979
aF0.0
aF0.8282828282828283
aF0.21717171717171718
aI683
aI2
aI2535456
aI0
aa(lp1636
I424
aI749
aI199
aI381
aF0.0
aF0.745
aF0.97
aI4
aI46
aI63358
aI0
aa(lp1637
I1600
aI2124
aI199
aI16773
aF0.0
aF0.515
aF0.19
aI868
aI4
aI920231
aI0
aa(lp1638
I180
aI81
aI194
aI547
aF0.0
aF0.8102564102564103
aF0.358974358974359
aI12
aI0
aI3034418
aI0
aa(lp1639
I10
aI49
aI38
aI2
aF0.0
aF0.16981132075471697
aF0.07547169811320754
aI18
aI0
aI308
aI0
aa(lp1640
I1538
aI1033
aI74
aI250
aF0.0
aF0.6122448979591837
aF0.08673469387755102
aI12
aI4
aI5472510
aI0
aa(lp1641
I353
aI604
aI199
aI42613
aF0.0
aF0.975
aF0.29
aI169
aI21
aI44436
aI0
aa(lp1642
I1347
aI1118
aI196
aI13716
aF0.0
aF0.5177664974619289
aF0.19289340101522842
aI64
aI2
aI1069998
aI0
aa(lp1643
I1954
aI1672
aI198
aI5033
aF0.0
aF0.5276381909547738
aF0.2914572864321608
aI327
aI82
aI710829
aI1
aa(lp1644
I572
aI862
aI199
aI34636
aF0.0
aF0.47
aF0.065
aI345
aI22
aI324424
aI0
aa(lp1645
I305
aI0
aI59
aI3098
aF0.0
aF0.6721311475409836
aF0.4098360655737705
aI20
aI33
aI44248
aI0
aa(lp1646
I253
aI121
aI64
aI2126
aF0.0
aF0.62
aF0.645
aI22
aI14
aI13062
aI0
aa(lp1647
I869
aI860
aI194
aI1445
aF0.0
aF0.9435897435897436
aF0.1794871794871795
aI1
aI65
aI480918
aI0
aa(lp1648
I3549
aI398
aI199
aI49774
aF0.0
aF0.54
aF0.155
aI1403
aI63
aI1978402
aI0
aa(lp1649
I430
aI406
aI197
aI26635
aF0.0
aF0.696969696969697
aF0.12626262626262627
aI289
aI5
aI2758305
aI0
aa(lp1650
I326
aI192
aI199
aI7391
aF0.0
aF0.74
aF0.195
aI296
aI7
aI31495
aI0
aa(lp1651
I320
aI209
aI199
aI6038
aF0.0
aF0.74
aF0.095
aI87
aI14
aI504293
aI0
aa(lp1652
I2
aI9
aI2
aI2
aF0.0
aF1.0
aF0.0
aI0
aI0
aI0
aI0
aa(lp1653
I2307
aI3276
aI2
aI5082
aF0.0
aF0.6060606060606061
aF0.06565656565656566
aI64
aI0
aI124987
aI0
aa(lp1654
I542
aI297
aI196
aI21366
aF0.0
aF0.7817258883248731
aF0.26903553299492383
aI26
aI6
aI6858477
aI0
aa(lp1655
I6039
aI965
aI198
aI13856
aF0.0
aF0.5628140703517588
aF0.1457286432160804
aI112
aI16
aI2082485
aI0
aa(lp1656
I325
aI1544
aI151
aI10551
aF0.0
aF0.74
aF0.475
aI438
aI6
aI282603
aI0
aa(lp1657
I1
aI23
aI3
aI4
aF0.0
aF1.0
aF0.0
aI1
aI0
aI0
aI0
aa(lp1658
I14241
aI1460
aI199
aI1040
aF0.0
aF0.465
aF0.61
aI1132
aI826
aI415175
aI0
aa(lp1659
I163
aI143
aI198
aI7908
aF0.0
aF0.8844221105527639
aF0.18090452261306533
aI159
aI3
aI2726568
aI0
aa(lp1660
I609
aI463
aI199
aI6970
aF0.0
aF0.675
aF0.19
aI60
aI12
aI5687130
aI0
aa(lp1661
I1173
aI1361
aI198
aI29426
aF0.0
aF0.7939698492462312
aF0.3869346733668342
aI96
aI31
aI179688
aI0
aa(lp1662
I714
aI1565
aI199
aI23122
aF0.0
aF0.68
aF0.23
aI210
aI10
aI2678175
aI0
aa(lp1663
I768
aI203
aI199
aI1942
aF0.0
aF0.465
aF0.405
aI350
aI44
aI654955
aI0
aa(lp1664
I89
aI186
aI128
aI4092
aF0.0
aF0.8080808080808081
aF0.2676767676767677
aI149
aI2
aI807465
aI0
aa(lp1665
I965
aI195
aI199
aI738
aF0.0
aF0.06
aF0.92
aI350
aI15
aI153
aI0
aa(lp1666
I4373
aI5000
aI199
aI15084
aF0.0
aF0.74
aF0.36
aI298
aI626
aI562
aI0
aa(lp1667
I2441
aI2998
aI199
aI1343
aF0.0
aF0.88
aF0.505
aI100
aI257
aI17005
aI0
aa(lp1668
I201
aI133
aI195
aI2404
aF0.0
aF0.1377551020408163
aF0.030612244897959183
aI22
aI1
aI202937
aI0
aa(lp1669
I1022
aI1884
aI199
aI38604
aF0.0
aF0.77
aF0.225
aI235
aI92
aI1979021
aI0
aa(lp1670
I353
aI578
aI199
aI16301
aF0.0
aF0.59
aF0.15
aI50
aI26
aI1903600
aI0
aa(lp1671
I273
aI256
aI17
aI102
aF0.0
aF0.215
aF0.945
aI34
aI13
aI338
aI0
aa(lp1672
I241
aI265
aI199
aI825
aF0.0
aF0.355
aF0.62
aI5
aI1
aI144963
aI0
aa(lp1673
I1516
aI1390
aI198
aI1800
aF0.0
aF0.5628140703517588
aF0.16080402010050251
aI12
aI3
aI247258
aI0
aa(lp1674
I1313
aI1195
aI198
aI28082
aF0.0
aF0.7989949748743719
aF0.23115577889447236
aI294
aI5
aI1909521
aI0
aa(lp1675
I2721
aI901
aI197
aI6537
aF0.0
aF0.7525252525252525
aF0.29797979797979796
aI31
aI30
aI846880
aI0
aa(lp1676
I390
aI331
aI37
aI9851
aF0.0
aF0.485
aF0.13
aI843
aI2
aI371939
aI0
aa(lp1677
I600
aI734
aI61
aI300
aF0.0
aF0.4
aF0.235
aI55
aI9
aI215916
aI0
aa(lp1678
I1330
aI1598
aI199
aI9723
aF0.0
aF0.675
aF0.49
aI139
aI6
aI251661
aI0
aa(lp1679
I1250
aI2881
aI199
aI7649
aF0.0
aF1.0
aF0.59
aI146
aI43
aI236519
aI0
aa(lp1680
I26761
aI22184
aI199
aI70957
aF0.0
aF0.98
aF0.41
aI780
aI96
aI134304
aI0
aa(lp1681
I418
aI438
aI198
aI4491
aF0.0
aF0.8994974874371859
aF0.33668341708542715
aI7
aI5
aI2610957
aI0
aa(lp1682
I565
aI377
aI153
aI5813
aF0.0
aF0.7106598984771574
aF0.16243654822335024
aI302
aI2
aI2357999
aI0
aa(lp1683
I1079
aI954
aI199
aI28632
aF0.0
aF0.905
aF0.505
aI142
aI41
aI59325
aI0
aa(lp1684
I56
aI113
aI199
aI10705
aF0.0
aF0.965
aF0.395
aI72
aI4
aI1086263
aI0
aa(lp1685
I207
aI220
aI131
aI5395
aF0.0
aF0.49246231155778897
aF0.1507537688442211
aI51
aI9
aI453503
aI0
aa(lp1686
I657
aI235
aI61
aI6152
aF0.0
aF0.41708542713567837
aF0.07537688442211055
aI329
aI17
aI92035
aI0
aa(lp1687
I6348
aI2068
aI199
aI1281
aF0.0
aF0.555
aF0.56
aI648
aI162
aI2207786
aI1
aa(lp1688
I2039
aI519
aI199
aI7104
aF0.0
aF0.665
aF0.215
aI45
aI50
aI311003
aI0
aa(lp1689
I3342
aI1851
aI199
aI9759
aF0.0
aF0.21
aF0.4
aI28
aI725
aI3190
aI0
aa(lp1690
I5024
aI1137
aI198
aI858
aF0.0
aF0.678391959798995
aF0.38190954773869346
aI89
aI2
aI834292
aI0
aa(lp1691
I2525
aI12
aI199
aI4438
aF0.0
aF0.855
aF0.29
aI848
aI14
aI537515
aI0
aa(lp1692
I259
aI2257
aI186
aI385
aF0.0
aF0.7437185929648241
aF0.21608040201005024
aI140
aI14
aI27238
aI0
aa(lp1693
I1480
aI927
aI199
aI25551
aF0.0
aF0.68
aF0.135
aI598
aI29
aI570067
aI0
aa(lp1694
I293
aI124
aI199
aI3954
aF0.0
aF0.93
aF0.465
aI28
aI15
aI5
aI0
aa(lp1695
I961
aI1994
aI25
aI81
aF0.0
aF0.005
aF0.485
aI136
aI10
aI25
aI0
aa(lp1696
I300
aI521
aI24
aI299
aF0.0
aF0.58
aF0.4
aI1009
aI2
aI185247
aI0
aa(lp1697
I1861
aI53
aI199
aI0
aF0.0
aF0.0
aF1.0
aI11
aI73
aI0
aI0
aa(lp1698
I924
aI118
aI25
aI351
aF0.0
aF0.54
aF0.195
aI2126
aI2
aI27240
aI0
aa(lp1699
I768
aI548
aI166
aI9547
aF0.0
aF0.6582914572864321
aF0.07537688442211055
aI1253
aI3
aI1508147
aI0
aa(lp1700
I5534
aI1507
aI199
aI516
aF0.0
aF0.66
aF0.545
aI1443
aI135
aI1409
aI0
aa(lp1701
I648
aI525
aI199
aI6640
aF0.0
aF0.755
aF0.2
aI87
aI18
aI1124416
aI0
aa(lp1702
I593
aI880
aI199
aI8599
aF0.0
aF0.935
aF0.325
aI47
aI169
aI594967
aI0
aa(lp1703
I2970
aI946
aI199
aI243
aF0.0
aF0.215
aF0.855
aI195
aI118
aI9345
aI0
aa(lp1704
I3
aI2
aI199
aI0
aF0.0
aF0.02
aF0.95
aI0
aI0
aI3
aI0
aa(lp1705
I3040
aI4152
aI199
aI400
aF0.0
aF0.12
aF0.72
aI893
aI72
aI261
aI1
aa(lp1706
I830
aI650
aI197
aI4625
aF0.0
aF0.9545454545454546
aF0.4494949494949495
aI6
aI5
aI8385897
aI0
aa(lp1707
I4957
aI4832
aI199
aI640
aF0.0
aF0.735
aF0.635
aI15
aI96
aI254431
aI0
aa(lp1708
I266
aI287
aI16
aI602
aF0.0
aF0.25252525252525254
aF0.05555555555555555
aI86
aI1
aI4075728
aI0
aa(lp1709
I237
aI175
aI165
aI374
aF0.0
aF0.55
aF0.165
aI204
aI6
aI1864966
aI0
aa(lp1710
I809
aI1788
aI24
aI259
aF0.0
aF0.62
aF0.63
aI11
aI18
aI14314
aI0
aa(lp1711
I514
aI424
aI136
aI12402
aF0.0
aF0.36231884057971014
aF0.644927536231884
aI75
aI2
aI201416
aI0
aa(lp1712
I556
aI302
aI182
aI5111
aF0.0
aF0.507537688442211
aF0.36683417085427134
aI114
aI9
aI1856
aI0
aa(lp1713
I3602
aI668
aI199
aI277
aF0.0
aF0.84
aF0.625
aI367
aI107
aI337
aI1
aa(lp1714
I882
aI578
aI199
aI235
aF0.0
aF0.73
aF0.25
aI72
aI64
aI420730
aI0
aa(lp1715
I114
aI283
aI46
aI43
aF0.0
aF0.74
aF0.025
aI104
aI4
aI7
aI0
aa(lp1716
I1926
aI759
aI166
aI370
aF0.0
aF0.485
aF0.695
aI98
aI35
aI4022
aI0
aa(lp1717
I193
aI171
aI198
aI2557
aF0.0
aF0.7738693467336684
aF0.5376884422110553
aI14
aI2
aI6435670
aI0
aa(lp1718
I1482
aI1388
aI199
aI13981
aF0.0
aF0.585
aF0.485
aI388
aI15
aI309430
aI0
aa(lp1719
I783
aI968
aI199
aI9124
aF0.0
aF0.68
aF0.185
aI251
aI54
aI1202782
aI0
aa(lp1720
I6066
aI870
aI199
aI1992
aF0.0
aF0.77
aF0.39
aI4826
aI162
aI387671
aI1
aa(lp1721
I935
aI235
aI115
aI516
aF0.0
aF0.6
aF0.72
aI647
aI44
aI545
aI0
aa(lp1722
I511
aI1166
aI199
aI1537
aF0.0
aF0.625
aF0.435
aI412
aI24
aI26501
aI0
aa(lp1723
I108
aI467
aI93
aI330
aF0.0
aF0.83
aF0.56
aI17
aI6
aI44642
aI0
aa(lp1724
I622
aI972
aI199
aI29208
aF0.0
aF0.715
aF0.215
aI258
aI21
aI161023
aI0
aa(lp1725
I2682
aI730
aI198
aI40072
aF0.0
aF0.5778894472361809
aF0.24120603015075376
aI1166
aI67
aI819297
aI0
aa(lp1726
I1527
aI1012
aI198
aI6246
aF0.0
aF0.6532663316582915
aF0.2562814070351759
aI114
aI149
aI1138848
aI0
aa(lp1727
I1070
aI1890
aI199
aI11578
aF0.0
aF0.395
aF0.805
aI91
aI95
aI3077117
aI0
aa(lp1728
I7579
aI1525
aI82
aI2212
aF0.0
aF0.49
aF0.21
aI168
aI28
aI488670
aI0
aa(lp1729
I330
aI391
aI197
aI6048
aF0.0
aF0.7929292929292929
aF0.17676767676767677
aI65
aI1
aI6349771
aI0
aa(lp1730
I381
aI3963
aI199
aI1097
aF0.0
aF0.92
aF0.215
aI26
aI18
aI1
aI0
aa(lp1731
I1420
aI4996
aI199
aI1847
aF0.0
aF0.96
aF0.995
aI4
aI34
aI1
aI0
aa(lp1732
I908
aI1707
aI199
aI144101
aF0.0
aF0.565
aF0.065
aI347
aI59
aI29943
aI0
aa(lp1733
I2285
aI2216
aI199
aI43159
aF0.0
aF0.85
aF0.355
aI343
aI60
aI1043959
aI0
aa(lp1734
I607
aI1488
aI50
aI2370
aF0.0
aF0.545
aF0.485
aI42
aI12
aI138890
aI0
aa(lp1735
I4755
aI174
aI199
aI859
aF0.0
aF0.55
aF0.63
aI62
aI151
aI276672
aI0
aa(lp1736
I4659
aI4545
aI199
aI10840
aF0.0
aF0.695
aF0.72
aI146
aI241
aI182278
aI0
aa(lp1737
I11530
aI1768
aI199
aI48422
aF0.0
aF0.73
aF0.325
aI536
aI422
aI337957
aI1
aa(lp1738
I57056
aI154
aI162
aI7
aF0.0
aF0.885
aF0.965
aI104
aI12
aI54
aI0
aa(lp1739
I1112
aI759
aI199
aI35201
aF0.0
aF0.915
aF0.275
aI87
aI19
aI1348244
aI0
aa(lp1740
I1068
aI558
aI198
aI6657
aF0.0
aF0.457286432160804
aF0.23618090452261306
aI113
aI14
aI588781
aI0
aa(lp1741
I1296
aI1280
aI28
aI2929
aF0.0
aF0.6464646464646465
aF0.4393939393939394
aI84
aI56
aI96567
aI0
aa(lp1742
I837
aI855
aI199
aI47012
aF0.0
aF0.87
aF0.38
aI42
aI41
aI337475
aI0
aa(lp1743
I1079
aI2713
aI199
aI11795
aF0.0
aF0.115
aF0.9
aI39
aI13
aI69246
aI0
aa(lp1744
I18544
aI1349
aI199
aI10437
aF0.0
aF0.51
aF0.895
aI52
aI329
aI112942
aI0
aa(lp1745
I1430
aI4995
aI199
aI615
aF0.0
aF0.94
aF0.065
aI22
aI10
aI203
aI0
aa(lp1746
I1130
aI2015
aI139
aI525
aF0.0
aF0.665
aF0.745
aI109
aI27
aI106
aI0
aa(lp1747
I1287
aI2463
aI1
aI4564
aF0.0
aF0.917098445595855
aF0.32124352331606215
aI75
aI27
aI163274
aI0
aa(lp1748
I2337
aI1150
aI199
aI6890
aF0.0
aF0.725
aF0.405
aI147
aI121
aI506914
aI0
aa(lp1749
I596
aI1195
aI199
aI1742
aF0.0
aF0.85
aF0.475
aI40
aI29
aI44049
aI0
aa(lp1750
I20923
aI2428
aI199
aI21839
aF0.0
aF0.795
aF0.33
aI2451
aI249
aI347868
aI1
aa(lp1751
I11530
aI1768
aI199
aI48422
aF0.0
aF0.73
aF0.325
aI536
aI422
aI337966
aI1
aa(lp1752
I57056
aI154
aI162
aI7
aF0.0
aF0.885
aF0.965
aI104
aI12
aI54
aI0
aa(lp1753
I20923
aI2428
aI199
aI21839
aF0.0
aF0.795
aF0.33
aI2451
aI249
aI347874
aI1
aa(lp1754
I1112
aI759
aI199
aI35201
aF0.0
aF0.915
aF0.275
aI87
aI19
aI1348243
aI0
aa(lp1755
I2458
aI568
aI199
aI6500
aF0.0
aF0.395
aF0.265
aI154
aI13
aI1394901
aI0
aasS'label'
p1756
(lp1757
I4
aI4
aI4
aI4
aI4
aI4
aI4
aI4
aI4
aI4
aI4
aI4
aI4
aI4
aI4
aI4
aI4
aI4
aI4
aI4
aI4
aI4
aI4
aI4
aI0
aI4
aI4
aI4
aI4
aI4
aI4
aI4
aI4
aI4
aI4
aI4
aI4
aI1
aI4
aI4
aI4
aI4
aI0
aI4
aI4
aI1
aI5
aI4
aI4
aI4
aI4
aI4
aI4
aI4
aI4
aI4
aI2
aI4
aI1
aI4
aI4
aI1
aI4
aI0
aI4
aI4
aI4
aI4
aI4
aI4
aI4
aI4
aI4
aI4
aI1
aI4
aI4
aI4
aI4
aI4
aI4
aI4
aI4
aI1
aI4
aI4
aI3
aI4
aI4
aI4
aI4
aI1
aI4
aI4
aI4
aI4
aI4
aI4
aI4
aI4
aI4
aI1
aI4
aI4
aI4
aI4
aI4
aI4
aI4
aI4
aI4
aI2
aI4
aI4
aI4
aI3
aI5
aI4
aI4
aI0
aI3
aI4
aI4
aI4
aI4
aI4
aI4
aI4
aI4
aI4
aI4
aI4
aI0
aI4
aI4
aI5
aI4
aI4
aI4
aI4
aI4
aI4
aI4
aI4
aI4
aI2
aI4
aI4
aI0
aI4
aI4
aI4
aI4
aI4
aI5
aI4
aI4
aI4
aI4
aI4
aI4
aI4
aI4
aI4
aI4
aI4
aI4
aI4
aI0
aI4
aI4
aI4
aI4
aI4
aI4
aI1
aI4
aI4
aI4
aI4
aI0
aI4
aI4
aI4
aI4
aI4
aI4
aI4
aI4
aI4
aI4
aI4
aI4
aI4
aI4
aI0
aI0
aI3
aI4
aI4
aI4
aI4
aI1
aI4
aI4
aI4
aI4
aI4
aI1
aI4
aI4
aI4
aI4
aI4
aI4
aI4
aI4
aI4
aI4
aI4
aI4
aI0
aI4
aI4
aI0
aI4
aI4
aI4
aI0
aI4
aI4
aI4
aI4
aI4
aI4
aI4
aI4
aI4
aI4
aI4
aI4
aI0
aI4
aI4
aI4
aI4
aI4
aI4
aI4
aI4
aI0
aI4
aI4
aI4
aI4
aI4
aI4
aI4
aI4
aI4
aI4
aI4
aI4
aI4
aI4
aI3
aI4
aI4
aI4
aI4
aI4
aI4
aI4
aI4
aI0
aI4
aI4
aI4
aI4
aI4
aI4
aI3
aI4
aI4
aI4
aI4
aI1
aI4
aI4
aI4
aI4
aI4
aI4
aI4
aI4
aI4
aI4
aI4
aI4
aI4
aI4
aI4
aI0
aI0
aI4
aI4
aI4
aI4
aI4
aI4
aI4
aI4
aI4
aI4
aI4
aI4
aI4
aI4
aI4
aI4
aI4
aI4
aI4
aI4
aI4
aI4
aI4
aI4
aI4
aI4
aI0
aI4
aI4
aI4
aI4
aI4
aI4
aI4
aI4
aI4
aI4
aI4
aI4
aI4
aI4
aI4
aI4
aI4
aI4
aI4
aI4
aI4
aI4
aI4
aI3
aI3
aI4
aI4
aI4
aI4
aI4
aI4
aI4
aI3
aI4
aI4
aI4
aI4
aI4
aI4
aI4
aI4
aI4
aI4
aI0
aI4
aI4
aI4
aI4
aI4
aI4
aI4
aI4
aI4
aI4
aI4
aI4
aI4
aI4
aI4
aI4
aI4
aI4
aI4
aI4
aI4
aI4
aI4
aI4
aI4
aI4
aI4
aI3
aI4
aI4
aI4
aI4
aI4
aI4
aI4
aI4
aI4
aI4
aI4
aI4
aI4
aI4
aI4
aI4
aI4
aI4
aI4
aI4
aI4
aI4
aI4
aI4
aI4
aI4
aI4
aI4
aI4
aI4
aI4
aI4
aI4
aI4
aI4
aI4
aI4
aI4
aI4
aI4
aI4
aI4
aI4
aI4
aI4
aI4
aI4
aI4
aI4
aI4
aI4
aI4
aI4
aI4
aI4
aI4
aI4
aI4
aI4
aI4
aI4
aI4
aI4
aI4
aI4
aI4
aI4
aI1
aI4
aI4
aI4
aI4
aI4
aI4
aI4
aI4
aI4
aI4
aI4
aI4
aI2
aI4
aI4
aI4
aI0
aI4
aI4
aI4
aI4
aI4
aI4
aI4
aI4
aI4
aI4
aI4
aI4
aI4
aI4
aI4
aI4
aI4
aI4
aI4
aI4
aI4
aI4
aI4
aI4
aI4
aI4
aI4
aI1
aI4
aI4
aI4
aI4
aI4
aI4
aI4
aI4
aI4
aI4
aI4
aI4
aI4
aI4
aI4
aI4
aI4
aI4
aI4
aI4
aI4
aI4
aI4
aI4
aI4
aI4
aI4
aI4
aI4
aI4
aI4
aI4
aI4
aI4
aI4
aI4
aI4
aI4
aI4
aI4
aI4
aI4
aI4
aI4
aI4
aI4
aI4
aI4
aI4
aI4
aI4
aI4
aI4
aI4
aI4
aI4
aI4
aI4
aI4
aI4
aI4
aI4
aI4
aI4
aI4
aI4
aI4
aI4
aI4
aI4
aI4
aI4
aI4
aI4
aI4
aI4
aI4
aI4
aI4
aI4
aI4
aI4
aI4
aI4
aI4
aI4
aI1
aI4
aI4
aI4
aI4
aI4
aI4
aI4
aI4
aI4
aI4
aI4
aI4
aI4
aI4
aI4
aI4
aI4
aI4
aI4
aI4
aI3
aI4
aI4
aI4
aI4
aI5
aI4
aI4
aI1
aI1
aI1
aI4
aI4
aI4
aI4
aI4
aI4
aI4
aI4
aI4
aI5
aI4
aI4
aI4
aI4
aI4
aI4
aI4
aI4
aI4
aI0
aI4
aI4
aI4
aI4
aI4
aI4
aI4
aI4
aI4
aI4
aI4
aI4
aI4
aI4
aI4
aI4
aI3
aI4
aI4
aI4
aI4
aI4
aI4
aI4
aI4
aI0
aI4
aI4
aI4
aI4
aI4
aI4
aI0
aI4
aI4
aI4
aI4
aI4
aI4
aI4
aI4
aI4
aI4
aI4
aI4
aI4
aI4
aI4
aI4
aI4
aI4
aI4
aI4
aI4
aI4
aI4
aI4
aI4
aI4
aI4
aI4
aI4
aI4
aI4
aI4
aI4
aI4
aI4
aI0
aI4
aI4
aI4
aI4
aI4
aI4
aI4
aI4
aI4
aI3
aI4
aI4
aI4
aI4
aI4
aI4
aI1
aI4
aI4
aI4
aI4
aI4
aI4
aI4
aI0
aI4
aI4
aI4
aI4
aI0
aI4
aI4
aI0
aI4
aI4
aI4
aI4
aI4
aI4
aI4
aI4
aI4
aI4
aI4
aI4
aI4
aI0
aI4
aI4
aI4
aI4
aI4
aI3
aI4
aI4
aI4
aI4
aI4
aI4
aI4
aI4
aI4
aI4
aI3
aI4
aI0
aI4
aI0
aI4
aI0
aI4
aI1
aI4
aI4
aI4
aI4
aI4
aI4
aI0
aI4
aI3
aI3
aI4
aI4
aI4
aI4
aI4
aI2
aI4
aI4
aI4
aI4
aI4
aI0
aI4
aI4
aI4
aI0
aI4
aI3
aI4
aI4
aI0
aI1
aI3
aI4
aI4
aI1
aI4
aI4
aI4
aI4
aI4
aI3
aI4
aI4
aI0
aI4
aI0
aI4
aI0
aI4
aI4
aI4
aI0
aI4
aI4
aI0
aI4
aI4
aI0
aI4
aI5
aI4
aI4
aI4
aI4
aI5
aI0
aI4
aI4
aI4
aI4
aI4
aI4
aI4
aI4
aI4
aI4
aI3
aI4
aI4
aI0
aI4
aI0
aI4
aI0
aI4
aI0
aI4
aI4
aI4
aI4
aI4
aI4
aI4
aI4
aI4
aI4
aI4
aI0
aI4
aI1
aI4
aI4
aI0
aI4
aI4
aI4
aI4
aI4
aI1
aI4
aI4
aI4
aI0
aI4
aI0
aI4
aI4
aI4
aI4
aI0
aI5
aI4
aI4
aI4
aI4
aI4
aI4
aI4
aI4
aI4
aI0
aI4
aI4
aI4
aI4
aI4
aI3
aI4
aI4
aI0
aI4
aI0
aI3
aI4
aI4
aI4
aI0
aI4
aI3
aI4
aI4
aI5
aI5
aI4
aI0
aI4
aI4
aI4
aI1
aI4
aI4
aI4
aI4
aI0
aI1
aI4
aI4
aI4
aI4
aI5
aI1
aI4
aI4
aI4
aI4
aI4
aI4
aI4
aI4
aI4
aI4
aI4
aI4
aI4
aI4
aI4
aI3
aI4
aI4
aI4
aI4
aI4
aI5
aI4
aI4
aI4
aI3
aI4
aI4
aI4
aI4
aI4
aI4
aI4
aI4
aI3
aI4
aI0
aI4
aI4
aI4
aI4
aI4
aI5
aI4
aI0
aI4
aI4
aI4
aI4
aI4
aI4
aI4
aI4
aI4
aI3
aI4
aI4
aI4
aI4
aI4
aI4
aI0
aI4
aI4
aI4
aI4
aI0
aI3
aI1
aI3
aI4
aI4
aI4
aI4
aI4
aI5
aI4
aI1
aI4
aI4
aI4
aI4
aI4
aI4
aI4
aI4
aI4
aI4
aI4
aI4
aI4
aI4
aI4
aI4
aI4
aI4
aI4
aI4
aI4
aI4
aI4
aI4
aI4
aI4
aI4
aI4
aI4
aI4
aI4
aI4
aI0
aI4
aI4
aI4
aI4
aI4
aI4
aI4
aI4
aI4
aI4
aI4
aI5
aI4
aI4
aI4
aI4
aI4
aI4
aI4
aI4
aI4
aI4
aI4
aI4
aI4
aI4
aI4
aI4
aI0
aI4
aI4
aI4
aI4
aI4
aI4
aI4
aI4
aI4
aI4
aI4
aI4
aI4
aI4
aI4
aI4
aI4
aI4
aI4
aI4
aI4
aI4
aI4
aI4
aI4
aI4
aI4
aI4
aI4
aI4
aI4
aI4
aI4
aI4
aI4
aI4
aI0
aI4
aI4
aI4
aI4
aI4
aI4
aI4
aI4
aI4
aI4
aI4
aI4
aI4
aI4
aI4
aI4
aI4
aI4
aI4
aI4
aI4
aI4
aI4
aI4
aI4
aI4
aI4
aI4
aI4
aI4
aI0
aI4
aI4
aI4
aI4
aI4
aI4
aI4
aI4
aI4
aI4
aI4
aI4
aI4
aI4
aI4
aI4
aI4
aI4
aI4
aI4
aI4
aI4
aI4
aI4
aI4
aI4
aI4
aI4
aI1
aI4
aI4
aI4
aI4
aI4
aI4
aI4
aI4
aI0
aI4
aI4
aI4
aI4
aI4
aI4
aI4
aI4
aI4
aI4
aI4
aI0
aI4
aI4
aI4
aI4
aI4
aI4
aI4
aI4
aI4
aI4
aI4
aI4
aI4
aI4
aI4
aI4
aI4
aI1
aI4
aI4
aI4
aI4
aI4
aI5
aI4
aI4
aI4
aI4
aI4
aI4
aI4
aI4
aI4
aI4
aI4
aI4
aI4
aI4
aI4
aI4
aI4
aI4
aI4
aI4
aI4
aI4
aI4
aI4
aI4
aI0
aI4
aI4
aI4
aI4
aI4
aI4
aI4
aI4
aI4
aI4
aI4
aI4
aI4
aI4
aI4
aI4
aI4
aI4
aI4
aI4
aI4
aI4
aI4
aI4
aI4
aI4
aI4
aI4
aI4
aI4
aI4
aI4
aI4
aI4
aI4
aI4
aI4
aI4
aI4
aI4
aI4
aI4
aI4
aI4
aI4
aI4
aI4
aI4
aI4
aI4
aI4
aI4
aI4
aI4
aI4
aI4
aI4
aI2
aI4
aI1
aI4
aI4
aI1
aI4
aI4
aI4
aI4
aI4
aI4
aI4
aI4
aI4
aI4
aI4
aI4
aI4
aI4
aI4
aI4
aI4
aI4
aI4
aI4
aI4
aI4
aI4
aI4
aI4
aI4
aI4
aI4
aI4
aI4
aI4
aI4
aI1
aI4
aI4
aI4
aI4
aI4
aI4
aI0
aI4
aI4
aI4
aI4
aI1
aI4
aI1
aI4
aI4
aI4
aI1
aI4
aI2
aI4
aI4
aI4
aI1
aI4
aI1
aI4
aI4
aI4
aI4
aI4
aI2
aI4
aI4
aI4
aI1
aI1
aI4
aI4
aI1
aI4
aI4
aI4
aI4
aI4
aI4
aI4
aI4
aI4
aI0
aI4
aI4
aI0
aI0
aI1
aI1
aI4
aI4
aI4
aI4
aI4
aI4
aI4
aI4
aI4
aI4
aI4
aI4
aI4
aI4
aI4
aI4
aI4
aI1
aI1
aI4
aI4
aI1
aI4
aI2
aI1
aI4
aI4
aI0
aI1
aI4
aI1
aI4
aI4
aI4
aI4
aI4
aI4
aI4
aI4
aI4
aI0
aI4
aI4
aI4
aI4
aI4
aI4
aI4
aI4
aI4
aI4
aI4
aI4
aI4
aI4
aI4
aI4
aI4
aI0
aI0
aI2
aI4
aI4
aI0
aI4
aI4
aI4
aI4
aI4
aI4
aI4
aI4
aI4
aI4
aI4
aI4
aI4
aI4
aI0
aI4
aI4
aI4
aI1
aI4
aI1
aI4
aI4
aI4
aI4
aI4
aI4
aI0
aI4
aI0
aI4
aI4
aI4
aI4
aI1
aI4
aI4
aI4
aI4
aI4
aI4
aI4
aI4
aI4
aI0
aI4
aI4
aI4
aI4
aI4
aI4
aI4
aI4
aI4
aI4
aI4
aI4
aI4
aI4
aI4
aI0
aI4
aI4
aI4
aI4
aI4
aI4
aI4
aI4
aI4
aI4
aI4
aI4
aI4
aI4
aI4
aI4
aI4
aI4
aI4
aI4
aI4
aI4
aI4
aI4
aI4
aI4
aI4
aI0
aI4
aI1
aI4
aI4
aI4
aI4
aI4
aI4
aI4
aI4
aI4
aI4
aI1
aI4
aI4
aI1
aI1
aI4
aI4
aI0
aI4
aI1
aI4
aI1
aI4
aI4
aI4
aI4
aI4
aI4
aI4
aI1
aI4
aI1
aI4
aI1
aI4
aI4
aI4
aI1
aI5
aI2
aI4
aI4
aI4
aI4
aI4
aI4
aI1
aI1
aI1
aI1
aI1
aI1
aI1
aI1
aI1
aI1
aI1
aI1
aI1
aI1
aI1
aI1
aI1
aI1
aI1
aI1
aI1
aI1
aI1
aI1
aI1
aI1
aI4
aI4
aI4
aI4
aI4
aI4
aI4
aI4
aI4
aI4
aI4
aI4
aI4
aI2
aI4
aI4
aI4
aI4
aI4
aI4
aI4
aI4
aI4
aI4
aI4
aI4
aI4
aI4
aI4
aI4
aI4
aI4
aI4
aI2
aI5
aI4
aI4
aI4
aI4
aI4
aI4
aI4
aI0
aI4
aI4
aI4
aI4
aI4
aI4
aI4
aI4
aI4
aI4
aI4
aI4
aI4
aI4
aI4
aI4
aI4
aI4
aI4
aI4
aI4
aI4
aI4
aI4
aI4
aI4
aI4
aI4
aI4
aI1
aI4
aI4
aI4
aI4
aI4
aI4
aI1
aI4
aI4
aI4
aI4
aI4
aI4
aI4
aI4
aI4
aI4
aI4
aI4
aI4
aI5
aI5
aI5
aI4
aI4
aI1
aI4
aI4
aI4
aI1
aI4
aI4
aI4
aI4
aI4
aI4
aI4
aI0
aI4
aI2
aI0
aI4
aI2
aI0
aI4
aI1
aI4
aI2
aI4
aI4
aI4
aI4
aI0
aI4
aI4
aI1
aI4
aI4
aI2
aI4
aI0
aI4
aI1
aI2
aI4
aI4
aI4
aI4
aI4
aI4
aI4
aI4
aI4
aI4
aI4
aI4
aI4
aI4
aI1
aI4
aI0
aI4
aI5
aI1
aI5
aI4
aI4
aI4
aI5
aI4
aI1
aI1
aI5
aI4
aI5
aI5
aI5
aI4
aI4
aI4
aI4
aI4
aI4
aI4
aI4
aI4
aI4
aI4
aI4
aI4
aI4
aI4
aI4
aI4
aI4
aI4
aI4
aI4
aI4
aI4
aI4
aI4
aI4
aI4
aI4
aI4
aI4
aI4
aI0
aI4
aI4
aI4
aI4
aI4
aI4
aI4
aI4
aI4
aI4
aI4
aI4
aI1
aI4
aI4
aI4
aI0
aI4
aI4
aI1
aI4
aI4
aI4
aI4
aI4
aI4
aI4
aI4
aI2
aI4
aI1
aI4
aI4
aI1
aI4
aI0
aI4
aI4
aI4
aI4
aI4
aI4
aI4
aI4
aI4
aI4
aI1
aI4
aI4
aI4
aI4
aI4
aI4
aI4
aI4
aI1
aI4
aI4
aI3
aI4
aI4
aI4
aI4
aI1
aI4
aI4
aI4
aI4
aI4
aI4
aI4
aI4
aI4
aI1
aI4
aI4
aI4
aI4
aI4
aI4
aI4
aI4
aI4
aI2
aI4
aI4
aI3
aI5
aI4
aI4
aI0
aI3
aI4
aI4
aI4
aI4
aI4
aI4
aI4
aI4
aI4
aI4
aI0
aI4
aI4
aI4
aI4
aI4
aI4
aI4
aI4
aI4
aI4
aI4
aI2
aI4
aI0
aI4
aI4
aI4
aI4
aI4
aI5
aI4
aI4
aI4
aI4
aI4
aI4
aI4
aI4
aI4
aI4
aI4
aI4
aI4
aI0
aI4
aI4
aI4
aI4
aI4
aI4
aI1
aI4
aI4
aI4
aI4
aI0
aI4
aI4
aI4
aI4
aI4
aI4
aI4
aI4
aI4
aI4
aI4
aI4
aI4
aI4
aI0
aI0
aI3
aI4
aI4
aI4
aI1
aI4
aI4
aI4
aI4
aI4
aI1
aI4
aI4
aI4
aI4
aI4
aI4
aI4
aI4
aI4
aI4
aI0
aI4
aI4
aI0
aI4
aI4
aI4
aI0
aI4
aI4
aI4
aI4
aI4
aI4
aI4
aI4
aI4
aI4
aI4
aI0
aI4
aI4
aI4
aI4
aI4
aI4
aI4
aI4
aI0
aI4
aI4
aI4
aI4
aI4
aI4
aI4
aI4
aI4
aI4
aI4
aI4
aI4
aI4
aI3
aI4
aI4
aI4
aI4
aI4
aI4
aI4
aI4
aI0
aI4
aI4
aI4
aI4
aI4
aI4
aI3
aI4
aI4
aI4
aI4
aI1
aI4
aI4
aI4
aI4
aI4
aI4
aI4
aI4
aI4
aI4
aI4
aI4
aI4
aI0
aI0
aI4
aI4
aI4
aI4
aI4
aI4
aI4
aI4
aI4
aI4
aI4
aI4
aI4
aI4
aI4
aI4
aI4
aI4
aI4
aI4
aI4
aI4
aI4
aI4
aI0
aI4
aI4
aI4
aI4
aI4
aI4
aI4
aI4
aI4
aI4
aI4
aI4
aI4
aI4
aI4
aI4
aI4
aI4
aI4
aI4
aI4
aI4
aI3
aI3
aI4
aI4
aI4
aI4
aI3
aI4
aI4
aI4
aI4
aI4
aI4
aI4
aI4
aI4
aI4
aI0
aI4
aI4
aI4
aI4
aI4
aI4
aI4
aI4
aI4
aI4
aI4
aI4
aI4
aI4
aI4
aI4
aI4
aI4
aI4
aI4
aI4
aI4
aI4
aI4
aI4
aI4
aI3
aI4
aI4
aI4
aI4
aI4
aI4
aI4
aI4
aI4
aI4
aI4
aI4
aI4
aI4
aI4
aI4
aI4
aI4
aI4
aI4
aI4
aI4
aI4
aI4
aI4
aI4
aI4
aI4
aI4
aI4
aI4
aI4
aI4
aI4
aI4
aI4
aI4
aI4
aI4
aI4
aI4
aI4
aI4
aI4
aI4
aI4
aI4
aI4
aI4
aI4
aI4
aI4
aI4
aI4
aI4
aI4
aI4
aI4
aI4
aI4
aI4
aI4
aI4
aI4
aI4
aI1
aI4
aI4
aI4
aI4
aI4
aI4
aI4
aI4
aI4
aI4
aI4
aI4
aI2
aI4
aI4
aI4
aI0
aI4
aI4
aI4
aI4
aI4
aI4
aI4
aI4
aI4
aI4
aI4
aI4
aI4
aI4
aI4
aI4
aI4
aI4
aI4
aI4
aI4
aI4
aI4
aI4
aI4
aI4
aI1
aI4
aI4
aI4
aI4
aI4
aI4
aI4
aI4
aI4
aI4
aI4
aI4
aI4
aI4
aI4
aI4
aI4
aI4
aI4
aI4
aI4
aI4
aI4
aI4
aI4
aI4
aI4
aI4
aI4
aI4
aI4
aI4
aI4
aI4
aI4
aI4
aI4
aI4
aI4
aI4
aI4
aI4
aI4
aI4
aI4
aI4
aI4
aI4
aI4
aI4
aI4
aI4
aI4
aI4
aI4
aI4
aI4
aI4
aI4
aI4
aI4
aI4
aI4
aI4
aI4
aI4
aI4
aI4
aI4
aI4
aI4
aI4
aI4
aI4
aI4
aI4
aI4
aI4
aI4
aI4
aI4
aI4
aI4
aI4
aI1
aI4
aI4
aI4
aI4
aI4
aI4
aI4
aI4
aI4
aI4
aI4
aI4
aI4
aI4
aI4
aI4
aI4
aI4
aI4
aI3
aI4
aI4
aI4
aI4
aI4
aI4
aI1
aI1
aI1
aI4
aI4
aI4
aI4
aI4
aI4
aI4
aI4
aI4
aI5
aI4
aI4
aI4
aI4
aI4
aI4
aI4
aI4
aI4
aI0
aI4
aI4
aI4
aI4
aI4
aI4
aI4
aI4
aI4
aI4
aI4
aI4
aI4
aI4
aI4
aI3
aI4
aI4
aI4
aI4
aI4
aI4
aI4
aI4
aI0
aI4
aI4
aI4
aI4
aI4
aI4
aI0
aI4
aI4
aI4
aI4
aI4
aI4
aI4
aI4
aI4
aI4
aI4
aI4
aI4
aI4
aI4
aI4
aI4
aI4
aI4
aI4
aI4
aI4
aI4
aI4
aI4
aI4
aI4
aI4
aI4
aI4
aI4
aI4
aI4
aI4
aI4
aI0
aI4
aI4
aI4
aI4
aI4
aI4
aI4
aI4
aI4
aI3
aI4
aI4
aI4
aI4
aI4
aI4
aI1
aI4
aI4
aI4
aI4
aI4
aI4
aI4
aI0
aI4
aI4
aI4
aI4
aI0
aI4
aI4
aI0
aI4
aI4
aI4
aI4
aI4
aI4
aI4
aI4
aI4
aI4
aI4
aI4
aI0
aI4
aI4
aI4
aI4
aI4
aI4
aI4
aI4
aI4
aI4
aI4
aI4
aI4
aI4
aI3
aI4
aI0
aI4
aI0
aI4
aI0
aI4
aI1
aI4
aI4
aI4
aI4
aI4
aI4
aI0
aI4
aI3
aI3
aI4
aI4
aI4
aI4
aI4
aI2
aI4
aI4
aI4
aI4
aI4
aI0
aI4
aI4
aI4
aI0
aI4
aI3
aI4
aI0
aI1
aI3
aI4
aI4
aI1
aI4
aI4
aI4
aI4
aI4
aI3
aI4
aI4
aI0
aI4
aI0
aI4
aI0
aI4
aI4
aI4
aI0
aI4
aI4
aI0
aI4
aI4
aI0
aI4
aI4
aI4
aI4
aI4
aI0
aI4
aI4
aI4
aI4
aI4
aI4
aI4
aI4
aI4
aI4
aI3
aI4
aI4
aI0
aI4
aI0
aI4
aI0
aI4
aI0
aI4
aI4
aI4
aI4
aI4
aI4
aI4
aI4
aI4
aI4
aI0
aI4
aI1
aI4
aI4
aI0
aI4
aI4
aI4
aI4
aI4
aI1
aI4
aI4
aI0
aI0
aI4
aI4
aI4
aI0
aI4
aI4
aI4
aI4
aI4
aI4
aI4
aI4
aI4
aI0
aI4
aI4
aI4
aI4
aI4
aI3
aI4
aI4
aI0
aI4
aI0
aI3
aI4
aI4
aI4
aI0
aI4
aI3
aI4
aI4
aI4
aI0
aI4
aI4
aI4
aI1
aI4
aI4
aI4
aI4
aI0
aI1
aI4
aI4
aI4
aI4
aI4
aI4
aI4
aI4
aI4
aI4
aI4
aI4
aI4
aI4
aI4
aI4
aI4
aI4
aI4
aI3
aI4
aI4
aI4
aI4
aI4
aI4
aI4
aI4
aI3
aI4
aI4
aI4
aI4
aI4
aI4
aI4
aI4
aI3
aI4
aI4
aI4
aI4
aI4
aI4
aI4
aI0
aI4
aI4
aI4
aI4
aI4
aI4
aI4
aI4
aI4
aI3
aI4
aI4
aI4
aI4
aI4
aI0
aI4
aI4
aI4
aI4
aI0
aI3
aI1
aI3
aI4
aI4
aI4
aI4
aI4
aI1
aI4
aI4
aI4
aI4
aI4
aI4
aI4
aI4
aI4
aI4
aI4
aI4
aI4
aI4
aI4
aI4
aI4
aI4
aI4
aI4
aI4
aI4
aI4
aI4
aI4
aI4
aI4
aI4
aI4
aI4
aI4
aI4
aI0
aI4
aI4
aI4
aI4
aI4
aI4
aI4
aI4
aI4
aI4
aI5
aI4
aI4
aI4
aI4
aI4
aI4
aI4
aI4
aI4
aI4
aI4
aI4
aI4
aI4
aI4
aI0
aI4
aI4
aI4
aI4
aI4
aI4
aI4
aI4
aI4
aI4
aI4
aI4
aI4
aI4
aI4
aI4
aI4
aI4
aI4
aI4
aI4
aI4
aI4
aI4
aI4
aI4
aI4
aI4
aI4
aI4
aI4
aI4
aI4
aI4
aI4
aI0
aI4
aI4
aI4
aI4
aI4
aI4
aI4
aI4
aI4
aI4
aI4
aI4
aI4
aI4
aI4
aI4
aI4
aI4
aI4
aI4
aI4
aI4
aI4
aI4
aI4
aI4
aI4
aI4
aI4
aI4
aI0
aI4
aI4
aI4
aI4
aI4
aI4
aI4
aI4
aI4
aI4
aI4
aI4
aI4
aI4
aI4
aI4
aI4
aI4
aI4
aI4
aI4
aI4
aI4
aI4
aI4
aI4
aI1
aI4
aI4
aI4
aI4
aI4
aI4
aI4
aI4
aI0
aI4
aI4
aI4
aI4
aI4
aI4
aI4
aI4
aI4
aI4
aI4
aI0
aI4
aI4
aI4
aI4
aI4
aI4
aI4
aI4
aI4
aI4
aI4
aI4
aI4
aI4
aI4
aI4
aI1
aI4
aI4
aI4
aI4
aI4
aI5
aI4
aI4
aI4
aI4
aI4
aI4
aI4
aI4
aI4
aI4
aI4
aI4
aI4
aI4
aI4
aI4
aI4
aI4
aI4
aI4
aI4
aI4
aI4
aI4
aI4
aI0
aI4
aI4
aI4
aI4
aI4
aI4
aI4
aI4
aI4
aI4
aI4
aI4
aI4
aI4
aI4
aI4
aI4
aI4
aI4
aI4
aI4
aI4
aI4
aI4
aI4
aI4
aI4
aI4
aI4
aI4
aI4
aI4
aI4
aI4
aI4
aI4
aI4
aI4
aI4
aI4
aI4
aI4
aI4
aI4
aI4
aI4
aI4
aI4
aI4
aI4
aI4
aI4
aI4
aI4
aI4
aI2
aI4
aI1
aI4
aI1
aI4
aI4
aI4
aI4
aI4
aI4
aI4
aI4
aI4
aI4
aI4
aI4
aI4
aI4
aI4
aI4
aI4
aI4
aI4
aI4
aI4
aI4
aI4
aI4
aI4
aI4
aI4
aI4
aI4
aI4
aI4
aI1
aI4
aI4
aI4
aI4
aI4
aI4
aI0
aI4
aI4
aI4
aI4
aI1
aI4
aI1
aI4
aI4
aI4
aI1
aI4
aI2
aI4
aI4
aI4
aI1
aI4
aI1
aI4
aI4
aI4
aI4
aI2
aI4
aI4
aI4
aI1
aI1
aI4
aI4
aI1
aI4
aI4
aI4
aI4
aI4
aI4
aI4
aI4
aI4
aI0
aI4
aI4
aI0
aI0
aI1
aI1
aI4
aI4
aI4
aI4
aI4
aI4
aI4
aI4
aI4
aI4
aI4
aI4
aI4
aI4
aI4
aI4
aI1
aI1
aI4
aI4
aI1
aI4
aI2
aI1
aI4
aI4
aI0
aI1
aI4
aI1
aI4
aI4
aI4
aI4
aI4
aI4
aI4
aI4
aI4
aI0
aI4
aI4
aI4
aI4
aI4
aI4
aI4
aI4
aI4
aI4
aI4
aI4
aI4
aI4
aI4
aI4
aI0
aI0
aI2
aI4
aI4
aI0
aI4
aI4
aI4
aI4
aI4
aI4
aI4
aI4
aI4
aI4
aI4
aI4
aI4
aI4
aI0
aI4
aI4
aI4
aI1
aI4
aI1
aI4
aI4
aI4
aI4
aI4
aI4
aI0
aI4
aI0
aI4
aI4
aI4
aI4
aI1
aI4
aI4
aI4
aI4
aI4
aI4
aI4
aI4
aI0
aI4
aI4
aI4
aI4
aI4
aI4
aI4
aI4
aI4
aI4
aI4
aI4
aI4
aI4
aI0
aI4
aI4
aI4
aI4
aI4
aI4
aI4
aI4
aI4
aI4
aI4
aI4
aI4
aI4
aI4
aI4
aI4
aI4
aI4
aI4
aI4
aI4
aI4
aI4
aI4
aI4
aI4
aI0
aI4
aI1
aI4
aI4
aI4
aI4
aI4
aI4
aI4
aI4
aI4
aI4
aI1
aI4
aI4
aI1
aI1
aI4
aI4
aI0
aI4
aI1
aI4
aI1
aI4
aI4
aI4
aI4
aI4
aI4
aI1
aI4
aI1
aI4
aI1
aI4
aI4
aI4
aI1
aI5
aI2
aI4
aI4
aI4
aI4
aI4
aI1
aI1
aI1
aI1
aI1
aI1
aI1
aI1
aI1
aI1
aI1
aI1
aI1
aI1
aI1
aI1
aI1
aI1
aI1
aI1
aI1
aI1
aI1
aI1
aI1
aI1
aI4
aI4
aI4
aI4
aI4
aI4
aI4
aI4
aI4
aI4
aI4
aI2
aI4
aI4
aI4
aI4
aI4
aI4
aI4
aI4
aI4
aI4
aI4
aI4
aI4
aI4
aI4
aI4
aI4
aI4
aI2
aI5
aI4
aI4
aI4
aI4
aI4
aI4
aI4
aI0
aI4
aI4
aI4
aI4
aI4
aI4
aI4
aI4
aI4
aI4
aI4
aI4
aI4
aI4
aI4
aI4
aI4
aI4
aI4
aI4
aI4
aI4
aI4
aI4
aI4
aI4
aI4
aI4
aI1
aI4
aI4
aI4
aI4
aI4
aI4
aI1
aI4
aI4
aI4
aI4
aI4
aI4
aI4
aI4
aI4
aI4
aI4
aI4
aI5
aI5
aI5
aI4
aI4
aI1
aI4
aI4
aI4
aI1
aI4
aI4
aI4
aI4
aI4
aI4
aI4
aI0
aI4
aI2
aI0
aI4
aI2
aI0
aI4
aI1
aI4
aI2
aI4
aI4
aI4
aI4
aI0
aI4
aI4
aI1
aI4
aI4
aI2
aI4
aI0
aI4
aI1
aI2
aI4
aI4
aI4
aI4
aI4
aI4
aI4
aI4
aI4
aI4
aI4
aI4
aI4
aI4
aI1
aI4
aI0
aI4
aI5
aI1
aI5
aI4
aI4
aI4
aI5
aI4
aI1
aI1
aI5
aI4
aI5
aI5
aI5
aI4
as.