(dp0
S'features'
p1
(lp2
(lp3
I96
aI364
aI21
aI49
aF0.0
aF0.705
aF0.78
aI73
aI16
aI9975
aI0
aa(lp4
I304
aI241
aI29
aI1551
aF0.0
aF0.83
aF0.275
aI69
aI0
aI4300575
aI0
aa(lp5
I14
aI129
aI0
aI6
aF0.0
aF0.8333333333333334
aF0.8333333333333334
aI1
aI0
aI64391
aI0
aa(lp6
I575
aI293
aI103
aI1332
aF0.0
aF0.585
aF0.225
aI107
aI9
aI99855
aI0
aa(lp7
I22
aI115
aI2
aI3
aF0.0
aF1.0
aF0.3333333333333333
aI0
aI0
aI16018
aI0
aa(lp8
I166
aI327
aI0
aI67
aF0.0
aF0.6263736263736264
aF0.6153846153846154
aI27
aI0
aI14029
aI0
aa(lp9
I7
aI233
aI2
aI86
aF0.0
aF0.36
aF0.32
aI10
aI0
aI0
aI0
aa(lp10
I123
aI27
aI12
aI65
aF0.0
aF0.8461538461538461
aF0.3076923076923077
aI1
aI0
aI4488
aI0
aa(lp11
I158
aI255
aI18
aI224
aF0.0
aF0.8247422680412371
aF0.19072164948453607
aI43
aI2
aI12491
aI0
aa(lp12
I15
aI129
aI0
aI0
aF0.0
aF0.25
aF0.5
aI0
aI0
aI0
aI0
aa(lp13
I22
aI519
aI7
aI5
aF0.0
aF0.125
aF0.0
aI4
aI0
aI1
aI0
aa(lp14
I68
aI59
aI0
aI0
aF0.0
aF0.688
aF0.072
aI3
aI0
aI11880
aI0
aa(lp15
I142
aI886
aI0
aI5
aF0.0
aF0.10526315789473684
aF0.15789473684210525
aI6
aI0
aI181
aI0
aa(lp16
I89
aI260
aI3
aI46
aF0.0
aF0.4672897196261682
aF0.037383177570093455
aI10
aI0
aI7903
aI0
aa(lp17
I83
aI221
aI0
aI38
aF0.0
aF0.21
aF0.125
aI3
aI0
aI55167
aI0
aa(lp18
I326
aI319
aI33
aI1601
aF0.0
aF0.61
aF0.81
aI21
aI10
aI2389
aI0
aa(lp19
I371
aI250
aI7
aI345
aF0.0
aF0.4720812182741117
aF0.4416243654822335
aI28
aI19
aI235780
aI0
aa(lp20
I144
aI213
aI4
aI177
aF0.0
aF0.7674418604651163
aF0.09302325581395349
aI29
aI0
aI144130
aI0
aa(lp21
I587
aI1088
aI2
aI33
aF0.0
aF0.31
aF0.6
aI48
aI3
aI7790
aI0
aa(lp22
I4
aI97
aI2
aI4
aF0.0
aF0.3333333333333333
aF0.3333333333333333
aI1
aI0
aI0
aI0
aa(lp23
I15
aI105
aI0
aI16
aF0.0
aF0.0
aF1.0
aI0
aI0
aI0
aI0
aa(lp24
I47
aI133
aI6
aI44
aF0.0
aF0.7777777777777778
aF0.0
aI2
aI0
aI0
aI0
aa(lp25
I24
aI95
aI4
aI0
aF0.0
aF0.4
aF0.6
aI6
aI0
aI74
aI0
aa(lp26
I12
aI38
aI1
aI0
aF0.0
aF0.25
aF0.0
aI1
aI0
aI1
aI0
aa(lp27
I25
aI79
aI0
aI14
aF0.0
aF0.0
aF0.0
aI0
aI0
aI0
aI0
aa(lp28
I21
aI195
aI0
aI2
aF0.0
aF0.5
aF1.0
aI9
aI0
aI0
aI0
aa(lp29
I53
aI149
aI2
aI537
aF0.0
aF0.8947368421052632
aF0.05263157894736842
aI4
aI0
aI13568
aI0
aa(lp30
I3
aI66
aI4
aI4
aF0.0
aF0.8
aF0.2
aI3
aI0
aI0
aI0
aa(lp31
I8
aI131
aI2
aI5
aF0.0
aF0.6666666666666666
aF0.0
aI4
aI0
aI0
aI0
aa(lp32
I22
aI169
aI0
aI14
aF0.0
aF0.0
aF0.0
aI0
aI0
aI0
aI0
aa(lp33
I29
aI98
aI13
aI8
aF0.0
aF0.9285714285714286
aF0.2857142857142857
aI0
aI0
aI761
aI0
aa(lp34
I5
aI24
aI1
aI3
aF0.0
aF0.0
aF0.0
aI0
aI0
aI0
aI0
aa(lp35
I6
aI86
aI0
aI0
aF0.0
aF0.5
aF0.0
aI0
aI0
aI0
aI0
aa(lp36
I380
aI900
aI0
aI291
aF0.0
aF0.385
aF0.555
aI115
aI3
aI373875
aI0
aa(lp37
I22
aI128
aI0
aI29
aF0.0
aF0.6666666666666666
aF0.0
aI0
aI0
aI245
aI0
aa(lp38
I11
aI93
aI3
aI2
aF0.0
aF0.75
aF0.25
aI0
aI0
aI0
aI0
aa(lp39
I7
aI23
aI0
aI2
aF0.0
aF0.0
aF0.0
aI0
aI0
aI0
aI0
aa(lp40
I68
aI360
aI0
aI5
aF0.0
aF0.375
aF0.5972222222222222
aI1320
aI0
aI462
aI0
aa(lp41
I30
aI335
aI1
aI13
aF0.0
aF0.6666666666666666
aF0.0
aI10
aI0
aI2
aI0
aa(lp42
I431
aI1518
aI1
aI142
aF0.0
aF0.4020100502512563
aF0.5527638190954773
aI15
aI2
aI7181271
aI0
aa(lp43
I49
aI268
aI4
aI36
aF0.0
aF0.8333333333333334
aF0.3333333333333333
aI14
aI0
aI38087
aI0
aa(lp44
I133
aI487
aI2
aI277
aF0.0
aF0.7989949748743719
aF0.2814070351758794
aI88
aI1
aI20281
aI0
aa(lp45
I10
aI79
aI0
aI110
aF0.0
aF0.5
aF0.029411764705882353
aI0
aI0
aI841
aI0
aa(lp46
I145
aI526
aI105
aI35
aF0.0
aF0.005
aF0.94
aI0
aI0
aI0
aI0
aa(lp47
I142
aI1027
aI3
aI4
aF0.0
aF0.935
aF0.995
aI9
aI3
aI1
aI0
aa(lp48
I48
aI198
aI61
aI10
aF0.0
aF0.816793893129771
aF0.03816793893129771
aI47
aI0
aI11
aI0
aa(lp49
I13
aI62
aI0
aI7
aF0.0
aF0.0
aF0.0
aI0
aI0
aI0
aI0
aa(lp50
I20
aI72
aI0
aI31
aF0.0
aF0.7272727272727273
aF0.0
aI16
aI0
aI338202
aI0
aa(lp51
I19
aI97
aI17
aI21
aF0.0
aF0.1111111111111111
aF0.16666666666666666
aI5
aI0
aI320
aI0
aa(lp52
I364
aI991
aI4
aI180
aF0.0
aF0.3103448275862069
aF0.034482758620689655
aI30
aI0
aI21
aI0
aa(lp53
I91
aI351
aI19
aI82
aF0.0
aF0.6
aF0.15
aI8
aI0
aI1
aI0
aa(lp54
I201
aI582
aI9
aI307
aF0.0
aF0.7956989247311828
aF0.1935483870967742
aI18
aI3
aI492010
aI0
aa(lp55
I45
aI529
aI3
aI0
aF0.0
aF0.25
aF0.25
aI12
aI0
aI383
aI0
aa(lp56
I15
aI126
aI8
aI23
aF0.0
aF0.86
aF0.0
aI0
aI0
aI142
aI0
aa(lp57
I19
aI211
aI3
aI1
aF0.0
aF0.5
aF0.0
aI2
aI0
aI2
aI0
aa(lp58
I58
aI336
aI1
aI6
aF0.0
aF0.0
aF0.0
aI3
aI0
aI0
aI0
aa(lp59
I35
aI19
aI0
aI8
aF0.0
aF1.0
aF0.0
aI0
aI0
aI14717
aI0
aa(lp60
I25
aI183
aI3
aI3
aF0.0
aF1.0
aF0.0
aI0
aI0
aI12
aI0
aa(lp61
I38
aI526
aI1
aI11
aF0.0
aF0.6363636363636364
aF0.13636363636363635
aI1
aI0
aI174
aI0
aa(lp62
I168
aI1050
aI7
aI1031
aF0.0
aF0.5833333333333334
aF0.6666666666666666
aI39
aI0
aI3
aI0
aa(lp63
I153
aI198
aI6
aI192
aF0.0
aF0.8442211055276382
aF0.44221105527638194
aI8
aI1
aI890720
aI0
aa(lp64
I26
aI222
aI0
aI78
aF0.0
aF0.4
aF0.2
aI3
aI0
aI2369
aI0
aa(lp65
I32
aI168
aI6
aI4
aF0.0
aF0.5714285714285714
aF0.0
aI0
aI1
aI1185
aI0
aa(lp66
I34
aI109
aI0
aI4
aF0.0
aF1.0
aF0.0
aI2
aI0
aI18
aI0
aa(lp67
I25
aI323
aI52
aI8
aF0.0
aF0.8791208791208791
aF0.17582417582417584
aI2
aI0
aI88561
aI0
aa(lp68
I376
aI320
aI124
aI1071
aF0.0
aF0.8826530612244898
aF0.1836734693877551
aI42
aI11
aI74489
aI0
aa(lp69
I19
aI52
aI4
aI4
aF0.0
aF0.75
aF0.05
aI15
aI0
aI0
aI0
aa(lp70
I649
aI676
aI22
aI156
aF0.0
aF0.4965034965034965
aF0.16083916083916083
aI39
aI1
aI16668
aI0
aa(lp71
I41000
aI4852
aI199
aI847
aF0.0
aF0.27
aF0.37
aI2350
aI167
aI1815
aI0
aa(lp72
I61
aI581
aI0
aI40
aF0.0
aF0.9387755102040817
aF0.2857142857142857
aI0
aI0
aI9140
aI0
aa(lp73
I755
aI1142
aI133
aI83
aF0.0
aF0.385
aF0.9
aI2
aI4
aI550
aI0
aa(lp74
I22
aI126
aI2
aI2
aF0.0
aF1.0
aF0.0
aI0
aI0
aI2706
aI0
aa(lp75
I7
aI56
aI2
aI4
aF0.0
aF0.6444444444444445
aF0.0
aI9
aI0
aI29
aI0
aa(lp76
I55
aI460
aI48
aI62
aF0.0
aF0.6938775510204082
aF0.14285714285714285
aI23
aI0
aI5230
aI0
aa(lp77
I129
aI760
aI2
aI280
aF0.0
aF0.6967213114754098
aF0.1557377049180328
aI31
aI0
aI11956
aI0
aa(lp78
I11293
aI10235
aI199
aI2286
aF0.0
aF0.77
aF0.28
aI508
aI1
aI834
aI0
aa(lp79
I3
aI35
aI0
aI0
aF0.0
aF0.0
aF0.0
aI1
aI0
aI0
aI0
aa(lp80
I348
aI1946
aI1
aI3
aF0.0
aF0.3333333333333333
aF0.0
aI12
aI0
aI2
aI0
aa(lp81
I5
aI55
aI4
aI0
aF0.0
aF0.0
aF1.0
aI0
aI0
aI0
aI0
aa(lp82
I8
aI143
aI2
aI0
aF0.0
aF0.0
aF0.0
aI5
aI0
aI0
aI0
aa(lp83
I165
aI849
aI1
aI145
aF0.0
aF0.8518518518518519
aF0.19753086419753085
aI113
aI1
aI13287
aI0
aa(lp84
I53
aI336
aI42
aI33
aF0.0
aF0.976
aF0.064
aI6
aI0
aI4272
aI0
aa(lp85
I81
aI86
aI2
aI126
aF0.0
aF0.3333333333333333
aF1.0
aI0
aI0
aI0
aI0
aa(lp86
I47
aI166
aI2
aI91
aF0.0
aF0.7333333333333333
aF0.16666666666666666
aI2
aI0
aI342764
aI0
aa(lp87
I24
aI229
aI9
aI0
aF0.0
aF0.6
aF0.3
aI0
aI0
aI2998
aI0
aa(lp88
I18
aI162
aI0
aI0
aF0.0
aF0.5555555555555556
aF0.5555555555555556
aI1
aI0
aI313
aI0
aa(lp89
I79
aI219
aI1
aI285
aF0.0
aF0.9899497487437185
aF0.08040201005025126
aI7
aI0
aI16722
aI0
aa(lp90
I11
aI27
aI0
aI0
aF0.0
aF0.0
aF1.0
aI1
aI0
aI0
aI0
aa(lp91
I90
aI309
aI3
aI23
aF0.0
aF0.7346938775510204
aF0.08163265306122448
aI16
aI0
aI74201
aI0
aa(lp92
I104
aI112
aI0
aI27
aF0.0
aF0.8421052631578947
aF0.15789473684210525
aI11
aI0
aI7135
aI0
aa(lp93
I55
aI257
aI0
aI33
aF0.0
aF1.0
aF0.3333333333333333
aI0
aI0
aI4587
aI0
aa(lp94
I2
aI6
aI0
aI1
aF0.0
aF1.0
aF0.0
aI1
aI0
aI0
aI0
aa(lp95
I9
aI62
aI1
aI0
aF0.0
aF0.5
aF0.0
aI2
aI0
aI48
aI0
aa(lp96
I15
aI31
aI0
aI4
aF0.0
aF0.5
aF0.0
aI1
aI0
aI0
aI0
aa(lp97
I513
aI1034
aI0
aI36
aF0.0
aF0.7272727272727273
aF0.8484848484848485
aI25
aI13
aI4066
aI0
aa(lp98
I587
aI1088
aI2
aI33
aF0.0
aF0.31
aF0.6
aI48
aI3
aI7790
aI0
aa(lp99
I10
aI54
aI2
aI0
aF0.0
aF0.6666666666666666
aF0.0
aI1
aI0
aI0
aI0
aa(lp100
I88
aI345
aI0
aI17
aF0.0
aF0.6896551724137931
aF0.0603448275862069
aI6
aI0
aI7825
aI0
aa(lp101
I154
aI116
aI1
aI588
aF0.0
aF0.8260869565217391
aF0.13768115942028986
aI45
aI1
aI418631
aI0
aa(lp102
I74
aI389
aI15
aI32
aF0.0
aF0.76
aF0.12
aI34
aI0
aI18542
aI0
aa(lp103
I237
aI107
aI3
aI81
aF0.0
aF0.4120603015075377
aF0.44221105527638194
aI47
aI1
aI7983
aI0
aa(lp104
I31
aI331
aI0
aI21
aF0.0
aF0.5
aF0.5
aI1
aI0
aI0
aI0
aa(lp105
I3
aI8
aI0
aI0
aF0.0
aF0.0
aF0.0
aI0
aI0
aI0
aI0
aa(lp106
I4
aI36
aI0
aI0
aF0.0
aF1.0
aF1.0
aI0
aI0
aI0
aI0
aa(lp107
I33
aI172
aI9
aI13
aF0.0
aF0.8571428571428571
aF0.42857142857142855
aI4
aI0
aI166
aI0
aa(lp108
I11
aI86
aI0
aI0
aF0.0
aF0.0
aF0.0
aI0
aI0
aI2
aI0
aa(lp109
I63
aI249
aI0
aI80
aF0.0
aF0.7704918032786885
aF0.03278688524590164
aI7
aI0
aI442354
aI0
aa(lp110
I144
aI213
aI4
aI177
aF0.0
aF0.7674418604651163
aF0.09302325581395349
aI29
aI0
aI144130
aI0
aa(lp111
I404
aI771
aI41
aI453
aF0.0
aF0.545
aF0.475
aI97
aI7
aI438094
aI0
aa(lp112
I89
aI215
aI1
aI8
aF0.0
aF0.65
aF0.75
aI1
aI0
aI4807
aI0
aa(lp113
I567
aI1029
aI199
aI338
aF0.0
aF0.035
aF0.69
aI36
aI4
aI2
aI0
aa(lp114
I94
aI586
aI121
aI3
aF0.0
aF0.8636363636363636
aF0.36363636363636365
aI54
aI0
aI510263
aI0
aa(lp115
I325
aI594
aI3
aI43
aF0.0
aF0.77
aF0.26
aI259
aI8
aI267
aI0
aa(lp116
I588
aI2092
aI69
aI110
aF0.0
aF0.7839195979899497
aF0.6633165829145728
aI56
aI1
aI1322
aI0
aa(lp117
I6
aI61
aI0
aI8
aF0.0
aF0.0
aF0.0
aI1
aI0
aI0
aI0
aa(lp118
I382
aI4929
aI7
aI1129
aF0.0
aF0.35964912280701755
aF0.47368421052631576
aI81
aI0
aI15
aI0
aa(lp119
I279
aI258
aI4
aI895
aF0.0
aF0.47
aF0.185
aI65
aI3
aI63028
aI0
aa(lp120
I200
aI376
aI0
aI170
aF0.0
aF0.7587939698492462
aF0.1507537688442211
aI41
aI2
aI3018
aI0
aa(lp121
I105
aI338
aI2
aI9
aF0.0
aF0.3375
aF0.0625
aI16
aI3
aI17
aI0
aa(lp122
I170
aI635
aI188
aI172
aF0.0
aF0.7382198952879581
aF0.12041884816753927
aI12
aI3
aI115308
aI0
aa(lp123
I15
aI263
aI0
aI0
aF0.0
aF0.0
aF0.0
aI1
aI0
aI0
aI0
aa(lp124
I11
aI41
aI7
aI19
aF0.0
aF0.6363636363636364
aF0.05454545454545454
aI13
aI0
aI3397
aI0
aa(lp125
I190
aI1745
aI3
aI5
aF0.0
aF0.5
aF0.05555555555555555
aI53
aI0
aI6
aI0
aa(lp126
I115
aI473
aI0
aI194
aF0.0
aF0.9144736842105263
aF0.4868421052631579
aI39
aI1
aI2422
aI0
aa(lp127
I0
aI11
aI2
aI2
aF0.0
aF0.6666666666666666
aF0.0
aI1
aI0
aI1
aI0
aa(lp128
I541
aI1181
aI0
aI517
aF0.0
aF0.98989898989899
aF0.6717171717171717
aI5
aI19
aI14624
aI0
aa(lp129
I1319
aI1754
aI11
aI3634
aF0.0
aF0.71
aF0.16
aI5
aI22
aI23349
aI0
aa(lp130
I355
aI1075
aI199
aI1
aF0.0
aF0.0
aF0.22
aI61
aI4
aI55
aI0
aa(lp131
I72
aI150
aI9
aI0
aF0.0
aF0.0
aF0.09090909090909091
aI1
aI0
aI0
aI0
aa(lp132
I480
aI560
aI101
aI105
aF0.0
aF0.165
aF0.92
aI44
aI20
aI13
aI0
aa(lp133
I112
aI374
aI10
aI35
aF0.0
aF0.9428571428571428
aF0.49142857142857144
aI36
aI2
aI80749
aI0
aa(lp134
I113
aI769
aI0
aI19
aF0.0
aF0.6331658291457286
aF0.35678391959798994
aI15
aI4
aI76950
aI0
aa(lp135
I22
aI35
aI0
aI6
aF0.0
aF0.5614035087719298
aF0.9649122807017544
aI8
aI0
aI6
aI0
aa(lp136
I41
aI112
aI0
aI1
aF0.0
aF0.4444444444444444
aF0.3111111111111111
aI8
aI1
aI4
aI0
aa(lp137
I231
aI281
aI11
aI4
aF0.0
aF0.3893129770992366
aF0.35877862595419846
aI6
aI8
aI96
aI0
aa(lp138
I9
aI14
aI3
aI1
aF0.0
aF0.25
aF1.0
aI0
aI0
aI6760
aI0
aa(lp139
I360
aI354
aI3
aI399
aF0.0
aF0.8704663212435233
aF0.015544041450777202
aI47
aI1
aI1646
aI0
aa(lp140
I19
aI76
aI3
aI0
aF0.0
aF0.7
aF0.0
aI1
aI0
aI0
aI0
aa(lp141
I98
aI93
aI3
aI30
aF0.0
aF0.6166666666666667
aF0.4166666666666667
aI3
aI0
aI51560
aI0
aa(lp142
I346
aI647
aI39
aI125
aF0.0
aF0.734375
aF0.14583333333333334
aI43
aI4
aI135874
aI0
aa(lp143
I1621
aI981
aI185
aI1871
aF0.0
aF0.705
aF0.32
aI182
aI7
aI441300
aI0
aa(lp144
I270
aI115
aI8
aI85
aF0.0
aF0.39195979899497485
aF0.05025125628140704
aI39
aI10
aI2370
aI0
aa(lp145
I196
aI750
aI9
aI121
aF0.0
aF0.6582914572864321
aF0.20100502512562815
aI25
aI0
aI4011
aI0
aa(lp146
I138
aI391
aI3
aI50
aF0.0
aF0.34536082474226804
aF0.020618556701030927
aI45
aI0
aI51443
aI0
aa(lp147
I71
aI360
aI0
aI2
aF0.0
aF0.5151515151515151
aF0.7575757575757576
aI6
aI0
aI0
aI0
aa(lp148
I365
aI975
aI6
aI18
aF0.0
aF0.36
aF0.2
aI9
aI4
aI6324
aI0
aa(lp149
I252
aI119
aI3
aI115
aF0.0
aF0.5
aF0.045
aI11
aI1
aI6788
aI0
aa(lp150
I206
aI380
aI199
aI11
aF0.0
aF0.0
aF0.97
aI0
aI2
aI0
aI0
aa(lp151
I144
aI129
aI3
aI3
aF0.0
aF0.14285714285714285
aF0.0
aI2
aI0
aI0
aI0
aa(lp152
I275
aI144
aI121
aI576
aF0.0
aF0.6
aF0.15
aI87
aI1
aI280883
aI0
aa(lp153
I222
aI470
aI26
aI30
aF0.0
aF0.88
aF0.035
aI8
aI5
aI76052
aI0
aa(lp154
I289
aI167
aI0
aI60
aF0.0
aF0.3553299492385787
aF0.17766497461928935
aI36
aI0
aI4358
aI0
aa(lp155
I38
aI113
aI53
aI147
aF0.0
aF0.38
aF0.635
aI16
aI0
aI795
aI0
aa(lp156
I407
aI361
aI40
aI273
aF0.0
aF0.705
aF0.245
aI50
aI0
aI318313
aI0
aa(lp157
I505
aI317
aI65
aI166
aF0.0
aF0.27
aF0.625
aI12
aI12
aI14872
aI0
aa(lp158
I20
aI227
aI10
aI5
aF0.0
aF0.9090909090909091
aF0.0
aI11
aI0
aI1
aI0
aa(lp159
I41
aI682
aI13
aI1
aF0.0
aF0.35175879396984927
aF0.271356783919598
aI6
aI0
aI1151
aI0
aa(lp160
I193
aI76
aI4
aI23
aF0.0
aF0.155
aF0.01
aI22
aI3
aI48084
aI0
aa(lp161
I28
aI41
aI0
aI0
aF0.0
aF0.25
aF0.0
aI0
aI0
aI2
aI0
aa(lp162
I80
aI324
aI4
aI122
aF0.0
aF0.45
aF0.0
aI11
aI0
aI33570
aI0
aa(lp163
I184
aI1000
aI147
aI0
aF0.0
aF0.005
aF0.045
aI10
aI0
aI13
aI0
aa(lp164
I19
aI22
aI9
aI4
aF0.0
aF0.456
aF0.312
aI0
aI0
aI2195
aI0
aa(lp165
I140
aI257
aI0
aI13
aF0.0
aF0.17647058823529413
aF0.5
aI14
aI1
aI0
aI0
aa(lp166
I4
aI56
aI6
aI0
aF0.0
aF0.0
aF0.0
aI0
aI0
aI0
aI0
aa(lp167
I161
aI811
aI5
aI0
aF0.0
aF0.16666666666666666
aF0.0
aI2
aI2
aI1
aI0
aa(lp168
I234
aI807
aI6
aI0
aF0.0
aF0.14285714285714285
aF0.0
aI4
aI2
aI4
aI0
aa(lp169
I579
aI432
aI46
aI57
aF0.0
aF0.19
aF0.67
aI32
aI3
aI15851
aI0
aasS'label'
p170
(lp171
I4
aI4
aI4
aI4
aI4
aI4
aI4
aI4
aI4
aI4
aI4
aI4
aI4
aI4
aI4
aI4
aI4
aI4
aI4
aI4
aI4
aI4
aI4
aI4
aI4
aI4
aI4
aI4
aI4
aI4
aI4
aI4
aI4
aI4
aI4
aI4
aI4
aI4
aI4
aI4
aI4
aI4
aI4
aI4
aI4
aI4
aI4
aI4
aI4
aI4
aI4
aI4
aI4
aI4
aI4
aI4
aI4
aI4
aI4
aI4
aI4
aI4
aI4
aI4
aI4
aI4
aI4
aI4
aI4
aI4
aI4
aI4
aI4
aI4
aI4
aI4
aI4
aI4
aI4
aI4
aI4
aI4
aI4
aI4
aI4
aI4
aI4
aI4
aI4
aI4
aI4
aI4
aI4
aI4
aI4
aI4
aI4
aI4
aI4
aI4
aI4
aI4
aI4
aI4
aI4
aI4
aI4
aI4
aI4
aI4
aI4
aI4
aI4
aI4
aI4
aI4
aI4
aI4
aI4
aI4
aI4
aI4
aI4
aI4
aI4
aI4
aI4
aI4
aI4
aI4
aI4
aI4
aI4
aI4
aI4
aI4
aI4
aI4
aI4
aI4
aI4
aI4
aI4
aI4
aI4
aI4
aI4
aI4
aI4
aI4
aI4
aI4
aI4
aI4
aI4
aI4
aI4
aI4
aI4
aI4
aI4
aI4
aI4
aI4
aI4
aI4
aI4
as.