(dp0
S'features'
p1
(lp2
(lp3
I102921503
aI205
aI197
aI5765
aF0.0
aF0.6363636363636364
aF0.5404040404040404
aI1723872
aI141566
aI553692
aI1
aa(lp4
I99816978
aI305909
aI55
aI3438
aF0.0
aF0.505
aF0.52
aI21144138
aI615845
aI10880289
aI1
aa(lp5
I94169329
aI628389
aI9
aI10
aF0.0
aF0.245
aF0.655
aI24716756
aI224561
aI6492901
aI1
aa(lp6
I85456942
aI0
aI6
aI8
aF0.0
aF0.14285714285714285
aF0.2857142857142857
aI1389755
aI121852
aI553260
aI1
aa(lp7
I76822910
aI1126
aI24
aI999
aF0.0
aF0.5326633165829145
aF0.4472361809045226
aI6463068
aI100382
aI2618446
aI1
aa(lp8
I72446238
aI36041
aI199
aI469
aF0.0
aF0.39
aF0.355
aI4186157
aI106295
aI1139316
aI1
aa(lp9
I69275848
aI129055
aI116
aI1447
aF0.0
aF0.53
aF0.5
aI3673120
aI226231
aI1420454
aI1
aa(lp10
I61865244
aI242
aI30
aI41
aF0.0
aF0.595
aF0.525
aI2198741
aI75492
aI723980
aI1
aa(lp11
I57766024
aI96
aI86
aI0
aF0.0
aF0.215
aF0.285
aI12274823
aI86838
aI2702396
aI1
aa(lp12
I55289064
aI390704
aI45
aI2369
aF0.0
aF0.195
aF0.16
aI2689643
aI122412
aI561292
aI1
aa(lp13
I55083430
aI114
aI199
aI5
aF0.0
aF0.6
aF0.485
aI1282474
aI79656
aI410793
aI1
aa(lp14
I51552015
aI1262
aI99
aI166
aF0.0
aF0.43
aF0.605
aI9754201
aI133149
aI3726290
aI1
aa(lp15
I51273385
aI65495
aI164
aI32466
aF0.0
aF0.195
aF0.75
aI16672817
aI53381
aI4764835
aI1
aa(lp16
I48870828
aI7709
aI184
aI39
aF0.0
aF0.65
aF0.435
aI659322
aI68046
aI182745
aI1
aa(lp17
I47128288
aI205
aI199
aI1208
aF0.0
aF0.65
aF0.48
aI680835
aI101536
aI132139
aI1
aa(lp18
I47726347
aI550
aI199
aI1636
aF0.0
aF0.66
aF0.495
aI4248526
aI101080
aI1406471
aI1
aa(lp19
I42631686
aI1733
aI199
aI6479
aF0.0
aF0.54
aF0.22
aI356564
aI53437
aI61571
aI1
aa(lp20
I38314980
aI284
aI100
aI148
aF0.0
aF0.685
aF0.18
aI300506
aI89700
aI66076
aI1
aa(lp21
I37875885
aI174
aI123
aI80
aF0.0
aF0.46
aF0.54
aI4792897
aI42120
aI4243907
aI1
aa(lp22
I37933855
aI183
aI79
aI21
aF0.0
aF0.37
aF0.88
aI1229863
aI121226
aI362035
aI1
aa(lp23
I34725181
aI550
aI199
aI77
aF0.0
aF0.37
aF0.58
aI758905
aI23311
aI278679
aI1
aa(lp24
I36949079
aI45
aI199
aI13
aF0.0
aF0.315
aF0.265
aI13003870
aI75069
aI3494177
aI1
aa(lp25
I35605009
aI371
aI196
aI106
aF0.0
aF0.72
aF0.465
aI4144499
aI58408
aI1001719
aI1
aa(lp26
I33323109
aI1780
aI199
aI0
aF0.0
aF0.415
aF0.365
aI2238839
aI21234
aI540659
aI1
aa(lp27
I33428348
aI109
aI142
aI123
aF0.0
aF0.135678391959799
aF0.7487437185929648
aI2517632
aI37013
aI615035
aI1
aa(lp28
I32944397
aI5957
aI199
aI253
aF0.0
aF0.7
aF0.195
aI9506954
aI118769
aI3582223
aI1
aa(lp29
I31071591
aI2046
aI22
aI64
aF0.0
aF0.24
aF0.355
aI51873818
aI166641
aI31056932
aI1
aa(lp30
I31245073
aI47
aI40
aI12
aF0.0
aF0.25
aF0.18
aI1306933
aI37195
aI555044
aI1
aa(lp31
I31472603
aI823
aI198
aI51
aF0.0
aF0.542713567839196
aF0.37185929648241206
aI2164852
aI28578
aI920605
aI1
aa(lp32
I31879971
aI748
aI66
aI796
aF0.0
aF0.6
aF0.285
aI4888728
aI49200
aI1086184
aI1
aa(lp33
I28635079
aI157
aI5
aI0
aF0.0
aF0.25
aF0.38
aI3901670
aI32786
aI1601730
aI1
aa(lp34
I30031242
aI439
aI199
aI360
aF0.0
aF0.48
aF0.6
aI533955
aI64924
aI1577626
aI1
aa(lp35
I28829716
aI1158
aI199
aI58
aF0.0
aF0.65
aF0.27
aI414098
aI30393
aI38597
aI1
aa(lp36
I27938684
aI354
aI53
aI71
aF0.0
aF0.425
aF0.425
aI458681
aI69764
aI236969
aI1
aa(lp37
I27405281
aI130
aI105
aI1
aF0.0
aF0.29
aF0.44
aI315962
aI38616
aI71647
aI1
aa(lp38
I27345527
aI111
aI46
aI177
aF0.0
aF0.505
aF0.67
aI1141042
aI60092
aI185149
aI1
aa(lp39
I27786757
aI689
aI60
aI219
aF0.0
aF0.54
aF0.49
aI612120
aI51617
aI217993
aI1
aa(lp40
I27395324
aI81
aI199
aI17
aF0.0
aF0.175
aF0.795
aI2086415
aI29373
aI454468
aI1
aa(lp41
I27131275
aI3798
aI150
aI158
aF0.0
aF0.63
aF0.075
aI17039096
aI101633
aI7707733
aI1
aa(lp42
I26808426
aI16540
aI181
aI519
aF0.0
aF0.75
aF0.3
aI7917884
aI102807
aI3570619
aI1
aa(lp43
I26121102
aI366
aI6
aI1005
aF0.0
aF0.78
aF0.405
aI3446111
aI45820
aI1390896
aI1
aa(lp44
I25611629
aI2682
aI107
aI1101
aF0.0
aF0.425
aF0.445
aI572742
aI23639
aI175597
aI1
aa(lp45
I25277840
aI1
aI104
aI0
aF0.0
aF0.09
aF0.12
aI2136961
aI87858
aI383190
aI1
aa(lp46
I24765089
aI311
aI199
aI128
aF0.0
aF0.55
aF0.49
aI588004
aI35613
aI55811
aI1
aa(lp47
I24976689
aI23
aI46
aI0
aF0.0
aF0.41
aF0.38
aI5216020
aI28801
aI947315
aI1
aa(lp48
I23886263
aI123
aI58
aI3984
aF0.0
aF0.515
aF0.455
aI3668930
aI17893
aI1178832
aI1
aa(lp49
I22852216
aI69
aI176
aI2080
aF0.0
aF0.3
aF0.695
aI383270
aI29908
aI111833
aI1
aa(lp50
I23241984
aI2271
aI13
aI310
aF0.0
aF0.35858585858585856
aF0.3939393939393939
aI11934354
aI125862
aI5435707
aI1
aa(lp51
I22571432
aI1167
aI198
aI207
aF0.0
aF0.6432160804020101
aF0.2964824120603015
aI1414209
aI13108
aI266185
aI1
aa(lp52
I21877580
aI266
aI191
aI1787
aF0.0
aF0.955
aF0.41
aI218866
aI29050
aI741458
aI1
aa(lp53
I21734275
aI9
aI13
aI15
aF0.0
aF0.085
aF0.255
aI1967043
aI20292
aI481796
aI1
aa(lp54
I22301956
aI1
aI192
aI627
aF0.0
aF0.3768844221105528
aF0.6733668341708543
aI1125850
aI45270
aI405383
aI1
aa(lp55
I21094921
aI4872
aI199
aI59656
aF0.0
aF0.415
aF0.51
aI1041650
aI63233
aI439214
aI1
aa(lp56
I21117775
aI0
aI11
aI0
aF0.0
aF0.7587939698492462
aF0.6482412060301508
aI1378198
aI59630
aI689919
aI1
aa(lp57
I21104349
aI149
aI12
aI47
aF0.0
aF0.4723618090452261
aF0.7035175879396985
aI1041513
aI46813
aI403556
aI1
aa(lp58
I19912387
aI714
aI89
aI39
aF0.0
aF0.495
aF0.41
aI699502
aI18143
aI126104
aI1
aa(lp59
I20002270
aI74
aI72
aI6
aF0.0
aF0.51
aF0.735
aI646914
aI21658
aI133262
aI1
aa(lp60
I19692855
aI25
aI199
aI309
aF0.0
aF0.325
aF0.79
aI1629598
aI14723
aI255873
aI1
aa(lp61
I18710185
aI774
aI158
aI409
aF0.0
aF0.615
aF0.435
aI252958
aI74377
aI119333
aI1
aa(lp62
I18763481
aI95
aI90
aI834
aF0.0
aF0.5
aF0.53
aI385195
aI44592
aI127664
aI1
aa(lp63
I18808971
aI525
aI199
aI1093
aF0.0
aF0.89
aF0.83
aI407083
aI29481
aI121204
aI1
aa(lp64
I18657944
aI402
aI36
aI636
aF0.0
aF0.46
aF0.45
aI845937
aI41321
aI258739
aI1
aa(lp65
I18736002
aI5
aI199
aI30
aF0.0
aF0.37
aF0.49
aI213268
aI31594
aI300228
aI1
aa(lp66
I18233750
aI144
aI101
aI40
aF0.0
aF0.85
aF0.68
aI638670
aI36870
aI438487
aI1
aa(lp67
I18480617
aI88
aI33
aI78
aF0.0
aF0.38
aF0.675
aI860318
aI17071
aI118603
aI1
aa(lp68
I17585134
aI141
aI28
aI0
aF0.0
aF0.775
aF0.14
aI209340
aI15919
aI150327
aI1
aa(lp69
I18393436
aI78
aI86
aI39
aF0.0
aF0.7
aF0.64
aI2546677
aI22917
aI319178
aI1
aa(lp70
I17333141
aI2744
aI199
aI2210
aF0.0
aF0.25
aF0.965
aI207594
aI43958
aI52669
aI1
aa(lp71
I17775884
aI762
aI44
aI1169
aF0.0
aF0.33
aF0.545
aI15692870
aI38458
aI5216925
aI1
aa(lp72
I17913293
aI78
aI67
aI10
aF0.0
aF0.285
aF0.295
aI1865647
aI34690
aI409746
aI1
aa(lp73
I17312647
aI1226
aI157
aI7696
aF0.0
aF0.38
aF0.425
aI738467
aI31997
aI463455
aI1
aa(lp74
I16800278
aI1067
aI4
aI1456
aF0.0
aF0.44
aF0.44
aI132929
aI10810
aI107783
aI1
aa(lp75
I17509694
aI46
aI67
aI67
aF0.0
aF0.555
aF0.34
aI5220963
aI6607
aI643166
aI1
aa(lp76
I16658580
aI36
aI199
aI0
aF0.0
aF0.0
aF0.0
aI18777
aI15393
aI16602
aI1
aa(lp77
I16593431
aI562
aI199
aI737
aF0.0
aF0.7
aF0.405
aI167352
aI39621
aI56640
aI1
aa(lp78
I16456259
aI24
aI10
aI10
aF0.0
aF0.475
aF0.61
aI722819
aI20504
aI397614
aI1
aa(lp79
I16748034
aI1447
aI199
aI83
aF0.0
aF0.845
aF0.17
aI1171570
aI24033
aI356318
aI1
aa(lp80
I16785453
aI207
aI199
aI345
aF0.0
aF0.16
aF0.205
aI357558
aI18717
aI553584
aI1
aa(lp81
I17300738
aI77
aI67
aI21
aF0.0
aF0.615
aF0.335
aI2459635
aI15111
aI809104
aI1
aa(lp82
I16177987
aI1
aI20
aI9
aF0.0
aF0.36683417085427134
aF0.19095477386934673
aI1271655
aI57878
aI405720
aI1
aa(lp83
I15920227
aI718
aI199
aI394
aF0.0
aF0.16
aF0.865
aI69608
aI49345
aI12317
aI1
aa(lp84
I15797724
aI755
aI199
aI50
aF0.0
aF0.2
aF0.27
aI135360
aI11389
aI36329
aI1
aa(lp85
I15676744
aI191
aI199
aI344
aF0.0
aF0.665
aF0.385
aI72442
aI22670
aI78563
aI1
aa(lp86
I16086877
aI550
aI54
aI84
aF0.0
aF0.45
aF0.475
aI2146860
aI28899
aI1451087
aI1
aa(lp87
I15948980
aI6443
aI199
aI12603
aF0.0
aF0.38
aF0.345
aI1619881
aI52578
aI650307
aI1
aa(lp88
I15681953
aI71
aI197
aI439
aF0.0
aF0.425
aF0.555
aI721484
aI28744
aI205172
aI1
aa(lp89
I15875685
aI1
aI87
aI47
aF0.0
aF0.36
aF0.63
aI796774
aI11260
aI163875
aI1
aa(lp90
I15987280
aI436
aI75
aI719
aF0.0
aF0.685
aF0.34
aI2176423
aI30388
aI967661
aI1
aa(lp91
I15120658
aI9
aI0
aI0
aF0.0
aF0.1
aF0.7
aI435057
aI33683
aI316743
aI1
aa(lp92
I14640578
aI688
aI126
aI66
aF0.0
aF0.65
aF0.545
aI461489
aI48599
aI262017
aI1
aa(lp93
I14985260
aI38
aI197
aI7
aF0.0
aF0.7676767676767676
aF0.10606060606060606
aI2184808
aI69830
aI706980
aI1
aa(lp94
I14368778
aI1199
aI199
aI7132
aF0.0
aF0.52
aF0.295
aI202987
aI36919
aI361916
aI1
aa(lp95
I14251424
aI901
aI198
aI10935
aF0.0
aF0.4321608040201005
aF0.47738693467336685
aI40556
aI34237
aI14854
aI1
aa(lp96
I14187076
aI101
aI36
aI1015
aF0.0
aF0.55
aF0.425
aI2559591
aI9096
aI469433
aI1
aa(lp97
I14446103
aI0
aI25
aI0
aF0.0
aF0.0
aF0.16
aI3723231
aI81767
aI2166098
aI1
aa(lp98
I14143158
aI590
aI91
aI63
aF0.0
aF0.525
aF0.67
aI959008
aI13873
aI227634
aI1
aa(lp99
I13967468
aI24
aI25
aI0
aF0.0
aF0.07
aF0.36
aI1509507
aI46745
aI285884
aI1
aa(lp100
I13761878
aI206
aI191
aI4332
aF0.0
aF0.27835051546391754
aF0.38144329896907214
aI390232
aI42417
aI1850247
aI1
aa(lp101
I13395811
aI569
aI199
aI6893
aF0.0
aF0.475
aF0.45
aI14444
aI22774
aI1978
aI1
aa(lp102
I13844792
aI8
aI68
aI0
aF0.0
aF0.015
aF0.015
aI5835887
aI14787
aI2588829
aI1
aa(lp103
I13761878
aI206
aI191
aI4332
aF0.0
aF0.27835051546391754
aF0.38144329896907214
aI390233
aI42417
aI1850247
aI1
aa(lp104
I13752950
aI398
aI199
aI1980
aF0.0
aF0.285
aF0.41
aI309260
aI15419
aI309649
aI1
aa(lp105
I13683386
aI78
aI56
aI17
aF0.0
aF0.47
aF0.33
aI1512399
aI23011
aI401265
aI1
aa(lp106
I13649992
aI1430
aI84
aI126
aF0.0
aF0.601010101010101
aF0.5656565656565656
aI72021
aI23482
aI264098
aI1
aa(lp107
I13367335
aI419
aI157
aI0
aF0.0
aF0.785
aF0.265
aI373308
aI32838
aI886552
aI1
aa(lp108
I13328016
aI286
aI25
aI48
aF0.0
aF0.175
aF0.205
aI3306000
aI12239
aI892634
aI1
aa(lp109
I13016917
aI136
aI35
aI0
aF0.0
aF0.315
aF0.42
aI1613488
aI6519
aI227314
aI1
aa(lp110
I13007507
aI1048
aI199
aI789
aF0.0
aF0.46
aF0.42
aI77237
aI9023
aI91649
aI1
aa(lp111
I12832873
aI397
aI170
aI96
aF0.0
aF0.105
aF0.975
aI34317
aI27341
aI3438
aI1
aa(lp112
I12804953
aI50568
aI138
aI224
aF0.0
aF0.6
aF0.54
aI462912
aI57334
aI793470
aI1
aa(lp113
I12804336
aI2825
aI43
aI500
aF0.0
aF0.445
aF0.465
aI524964
aI16965
aI129038
aI1
aa(lp114
I12715440
aI2780
aI14
aI26
aF0.0
aF0.215
aF0.105
aI1506831
aI12236
aI825407
aI1
aa(lp115
I12711379
aI1196
aI199
aI28415
aF0.0
aF0.83
aF0.325
aI138032
aI29182
aI101839
aI1
aa(lp116
I12686534
aI55
aI60
aI50
aF0.0
aF0.325
aF0.635
aI254222
aI19118
aI42669
aI1
aa(lp117
I12678302
aI264
aI199
aI26203
aF0.0
aF0.51
aF0.23
aI431962
aI44754
aI212782
aI1
aa(lp118
I12679439
aI8
aI69
aI0
aF0.0
aF0.015
aF0.015
aI7927576
aI25929
aI2498401
aI1
aa(lp119
I12622666
aI12426
aI173
aI33904
aF0.0
aF0.215
aF0.12
aI6014301
aI16775
aI1278338
aI1
aa(lp120
I12566450
aI1839
aI199
aI4159
aF0.0
aF0.545
aF0.48
aI826837
aI33794
aI528185
aI1
aa(lp121
I12426706
aI328
aI77
aI7
aF0.0
aF0.5728643216080402
aF0.5326633165829145
aI2276919
aI15986
aI3977522
aI1
aa(lp122
I12407653
aI572
aI52
aI1116
aF0.0
aF0.47
aF0.425
aI178132
aI28908
aI546541
aI1
aa(lp123
I12394413
aI2228
aI101
aI14344
aF0.0
aF0.515
aF0.39
aI1279052
aI11301
aI2425492
aI1
aa(lp124
I12351117
aI60206
aI181
aI6310
aF0.0
aF0.49246231155778897
aF0.2864321608040201
aI12835372
aI16493
aI4209193
aI1
aa(lp125
I12294356
aI294
aI199
aI7882
aF0.0
aF0.875
aF0.25
aI16798
aI7775
aI38175
aI1
aa(lp126
I12231055
aI346
aI199
aI160
aF0.0
aF0.6
aF0.48
aI42408
aI51900
aI13028
aI1
aa(lp127
I12154160
aI3656
aI48
aI586
aF0.0
aF0.45
aF0.305
aI423280
aI22804
aI4000765
aI1
aa(lp128
I12145543
aI425
aI199
aI128
aF0.0
aF0.52
aF0.545
aI701244
aI12445
aI79761
aI1
aa(lp129
I12126125
aI172
aI41
aI679
aF0.0
aF0.365
aF0.36
aI516357
aI39450
aI209820
aI1
aa(lp130
I12090184
aI186
aI199
aI209
aF0.0
aF0.81
aF0.275
aI180592
aI5415
aI171096
aI1
aa(lp131
I12075580
aI503
aI199
aI16242
aF0.0
aF0.79
aF0.365
aI2586086
aI35974
aI2395445
aI1
aa(lp132
I11974876
aI47
aI199
aI605
aF0.0
aF0.735
aF0.385
aI1805667
aI37378
aI464665
aI1
aa(lp133
I11886647
aI116
aI33
aI0
aF0.0
aF0.32160804020100503
aF0.1708542713567839
aI661357
aI19360
aI185442
aI1
aa(lp134
I11871199
aI133
aI199
aI2537
aF0.0
aF0.56
aF0.375
aI1934574
aI8756
aI332313
aI1
aa(lp135
I11821627
aI711
aI113
aI33
aF0.0
aF0.465
aF0.36
aI2086560
aI25185
aI612973
aI1
aa(lp136
I11814632
aI134
aI87
aI346
aF0.0
aF0.58
aF0.555
aI932316
aI6106
aI149334
aI1
aa(lp137
I11783562
aI65
aI89
aI16
aF0.0
aF0.42
aF0.43
aI376246
aI34027
aI50356
aI1
aa(lp138
I11769199
aI149
aI199
aI118
aF0.0
aF0.6
aF0.74
aI495286
aI30585
aI84847
aI1
aa(lp139
I11749983
aI114
aI199
aI4396
aF0.0
aF0.785
aF0.35
aI54296
aI7114
aI26344
aI1
aa(lp140
I11738734
aI392
aI199
aI346
aF0.0
aF0.86
aF0.145
aI129127
aI14660
aI13035
aI1
aa(lp141
I11593041
aI690
aI114
aI4880
aF0.0
aF0.49
aF0.58
aI977753
aI54658
aI282045
aI1
aa(lp142
I11532759
aI3910
aI199
aI4800
aF0.0
aF0.42
aF0.53
aI466691
aI14804
aI448017
aI1
aa(lp143
I11524075
aI390
aI199
aI2779
aF0.0
aF0.515
aF0.315
aI115595
aI27474
aI48858
aI1
aa(lp144
I11483662
aI514
aI12
aI441
aF0.0
aF0.5939086294416244
aF0.3553299492385787
aI1586002
aI23706
aI1316070
aI1
aa(lp145
I11435973
aI1132
aI57
aI1906
aF0.0
aF0.45
aF0.55
aI27900
aI22610
aI47584
aI1
aa(lp146
I11341415
aI3842
aI199
aI4
aF0.0
aF0.35
aF0.92
aI64332
aI48069
aI19704
aI1
aa(lp147
I11249686
aI1527
aI199
aI83
aF0.0
aF0.9
aF0.06
aI935
aI28039
aI432
aI1
aa(lp148
I11152100
aI0
aI4
aI423
aF0.0
aF0.355
aF0.66
aI453249
aI31028
aI154825
aI1
aa(lp149
I10990495
aI86957
aI24
aI2194
aF0.0
aF0.27638190954773867
aF0.271356783919598
aI425943
aI11056
aI111712
aI1
aa(lp150
I10979544
aI185
aI3
aI21
aF0.0
aF0.125
aF0.375
aI6781
aI9349
aI5428
aI1
aa(lp151
I10885719
aI2
aI136
aI4
aF0.0
aF0.23
aF0.315
aI3193397
aI10952
aI1034139
aI1
aa(lp152
I10855249
aI54
aI71
aI0
aF0.0
aF0.385
aF0.435
aI1956000
aI14442
aI438650
aI1
aasS'label'
p153
(lp154
I3
aI3
aI3
aI3
aI3
aI3
aI3
aI3
aI3
aI3
aI3
aI3
aI3
aI3
aI3
aI3
aI3
aI3
aI3
aI3
aI3
aI3
aI3
aI3
aI3
aI3
aI3
aI3
aI3
aI3
aI3
aI3
aI3
aI3
aI3
aI3
aI3
aI3
aI3
aI3
aI3
aI3
aI3
aI3
aI3
aI3
aI3
aI3
aI3
aI3
aI3
aI3
aI3
aI3
aI3
aI3
aI3
aI3
aI3
aI3
aI3
aI3
aI3
aI3
aI3
aI3
aI3
aI3
aI3
aI3
aI3
aI3
aI3
aI3
aI3
aI3
aI3
aI3
aI3
aI3
aI3
aI3
aI3
aI3
aI3
aI3
aI3
aI3
aI3
aI3
aI3
aI3
aI3
aI3
aI3
aI3
aI3
aI3
aI3
aI3
aI3
aI3
aI3
aI3
aI3
aI3
aI3
aI3
aI3
aI3
aI3
aI3
aI3
aI3
aI3
aI3
aI3
aI3
aI3
aI3
aI3
aI3
aI3
aI3
aI3
aI3
aI3
aI3
aI3
aI3
aI3
aI3
aI3
aI3
aI3
aI3
aI3
aI3
aI3
aI3
aI3
aI3
aI3
aI3
aI3
aI3
aI3
aI3
aI3
aI3
as.